(lp1
Vxsubj
p2
aVprepc_toward
p3
aVprep_below
p4
aVprep_despite
p5
aVprepc_in
p6
aVpredet
p7
aVprepc_compared_to
p8
aVconj_than
p9
aVprep_during
p10
aVprepc_if
p11
aVprepc_because_of
p12
aVconj_specific
p13
aVconj_nor
p14
aVprepc_at
p15
aVprep_throughout
p16
aVprepc_regardless_of
p17
aVprepc_whereas
p18
aVprepc_as
p19
aVprepc_with
p20
aVprep_about
p21
aVmwe
p22
aVadvcl
p23
aVaux
p24
aVprep_unlike
p25
aVparataxis
p26
aVprep_over
p27
aVnsubj
p28
aVprep_with_respect_to
p29
aVcomplm
p30
aVprep_contrary_to
p31
aVprep_upon
p32
aVprepc_as_for
p33
aVprep_onto
p34
aVprep_form
p35
aVprep_compared_with
p36
aVprep_apart_from
p37
aVnpadvmod
p38
aVconj_negcc
p39
aVprep_subsequent_to
p40
aVpurpcl
p41
aVamod
p42
aVprep_on
p43
aVprep_of
p44
aVprep_instead_of
p45
aVprep_next_to
p46
aVprep_such
p47
aVprep_since
p48
aVprep_by
p49
aVprep_with
p50
aVprepc_before
p51
aVdet
p52
aVprep_across
p53
aVprep_that
p54
aVccomp
p55
aVprep_along
p56
aVnum
p57
aVprep_than
p58
aVprepc_for
p59
aVprepc_along_with
p60
aVprepc_upon
p61
aVprepc_as_to
p62
aVprep_in_case_of
p63
aVneg
p64
aVconj_with
p65
aVprepc_from
p66
aVauxpass
p67
aVconj_versus
p68
aVinfmod
p69
aVrel
p70
aVprep_for
p71
aVconj_such
p72
aVprep_as
p73
aVprep_at
p74
aVprepc_instead_of
p75
aVadvmod
p76
aVprep_involving
p77
aVpunct
p78
aVprepc_despite
p79
aVacomp
p80
aVpcomp
p81
aVprep_per
p82
aVprep_around
p83
aVposs
p84
aVxcomp
p85
aVcop
p86
aVconj_plus
p87
aVconj_but
p88
aVprep_like
p89
aVdobj
p90
aVprep_following
p91
aVprep_in
p92
aVprep_with_regard_to
p93
aVprep_given
p94
aVprep_above
p95
aVprep_if
p96
aVprep_against
p97
aVprepc_to
p98
aVprep_beneath
p99
aVcc
p100
aVprep_among
p101
aVprep_up
p102
aVnumber
p103
aVpossessive
p104
aVprepc_such_as
p105
aVnsubjpass
p106
aVconj_or
p107
aVcsubj
p108
aVprepc_compared_with
p109
aVprep_without
p110
aVprep_in_accordance_with
p111
aVprepc_about
p112
aVprep_regarding
p113
aVprep_under
p114
aVprep_after
p115
aVprep_due_to
p116
aVprep_toward
p117
aVprep_out_of
p118
aVprep_via
p119
aVmark
p120
aVconj_x
p121
aVprepc_according_to
p122
aVprep_besides
p123
aVprep
p124
aVconj_and
p125
aVprep_depending_on
p126
aVprep_including
p127
aVprep_except_for
p128
aVprep_because_of
p129
aVprepc_without
p130
aVprep_between
p131
aVquantmod
p132
aVprepc_by
p133
aVprepc_because
p134
aVprep_before
p135
aVprep_compared_to
p136
aVprep_by_means_of
p137
aVprep_amongst
p138
aVconj_+
p139
aVprepc_through
p140
aVattr
p141
aVprep_through
p142
aVprep_i&pde&pd
p143
aVdep
p144
aVprep_in_addition_to
p145
aVprep_except
p146
aVconj_together
p147
aVprep_regardless_of
p148
aVprep_prior_to
p149
aVpobj
p150
aViobj
p151
aVexpl
p152
aVprep_such_as
p153
aVpreconj
p154
aVprepc_depending_on
p155
aVappos
p156
aVprepc_of
p157
aVprepc_on
p158
aVagent
p159
aVprt
p160
aVprep_into
p161
aVprep_from
p162
aVconj
p163
aVprepc_considering
p164
aVprep_beyond
p165
aVconj_vs
p166
aVnn
p167
aVconj_and/or
p168
aVcsubjpass
p169
aVprep_owing_to
p170
aVprepc_except_for
p171
aVprep_close_to
p172
aVprep_outside_of
p173
aVprep_within
p174
aVprep_followed_by
p175
aVprep_in_spite_of
p176
aVconj_therefore
p177
aVrcmod
p178
aVprepc_due_to
p179
aVprep_irrespective_of
p180
aVprepc_in_addition_to
p181
aVprepc_based_on
p182
aVprep_in_place_of
p183
aVprep_towards
p184
aVprep_encoding
p185
aVprep_to
p186
aVpartmod
p187
aVconj_yet
p188
aVprep_together_with
p189
aVabbrev
p190
aVprep_near
p191
aVprepc_that
p192
aVprepc_into
p193
aVprep_in_front_of
p194
aVprepc_after
p195
aVtmod
p196
aVprepc_except
p197
aVprep_until
p198
a.