(lp1
VPRP$
p2
aVVBG
p3
aVVBD
p4
aV``
p5
aVVBN
p6
aVPOS
p7
aV''
p8
aVVBP
p9
aVWDT
p10
aVJJ
p11
aVWP
p12
aVVBZ
p13
aVDT
p14
aVRP
p15
aVNN
p16
aVFW
p17
aV,
aV.
aVTO
p18
aVPRP
p19
aVRB
p20
aV-LRB-
p21
aV:
aVNNS
p22
aVLS
p23
aVVB
p24
aVWRB
p25
aVCC
p26
aVPDT
p27
aVRBS
p28
aVRBR
p29
aVCD
p30
aVEX
p31
aVIN
p32
aVWP$
p33
aVMD
p34
aV-RRB-
p35
aVJJS
p36
aVJJR
p37
aVNNP
p38
a.