(lp1
VLTR-dependent
p2
aVOKT3
p3
aVhost-cell
p4
aVEC50
p5
aVlocalizes
p6
aV/Jun
p7
aVPI3K/PKB
p8
aVElevated
p9
aVfour
p10
aVSCID-passaged
p11
aVKit225
p12
aV3-kinase-linked
p13
aVfactor-IL-6beta
p14
aVAnalogous
p15
aVlocalized
p16
aVsimilarity
p17
aV6q26-27
p18
aVlist
p19
aV-beta-catenin
p20
aVimmature
p21
aVdeoxycytidine
p22
aVdexamethasone-induced
p23
aVSPF
p24
aVhormone
p25
aVSP1
p26
aVpreceeded
p27
aVNFAT-directed
p28
aVreplaces
p29
aVGSK-3beta
p30
aVPhosphatidylserine
p31
aVdifferentiated
p32
aVlineage-determining
p33
aVpersisted
p34
aVdifferentiates
p35
aVBcl-xL
p36
aVdephosphorylation
p37
aVJNK
p38
aVrepeat-driven
p39
aVn-acetyl-L-cysteine
p40
aVTh1cells
p41
aVIEXL320G
p42
aVrepeat-directed
p43
aVcytomegalovirus
p44
aVantioncogenic
p45
aVpulse
p46
aVfeasibility
p47
aVconsists
p48
aVsecond
p49
aVelegans
p50
aVsustaining
p51
aV60-kDa
p52
aVperiodontitis
p53
aVPoly-HRP
p54
aVcell-type-specific
p55
aVGR6
p56
aVdimerizes
p57
aVrelieving
p58
aVmultimers
p59
aVfingers
p60
aVA-insensitive
p61
aVdimerized
p62
aVpolyubiquitinated
p63
aVreceptor-initiated
p64
aVincreasing
p65
aV/Tal1
p66
aVLiposomal
p67
aVreporter
p68
aVinterrupting
p69
aVinterdependent
p70
aVhere
p71
aVreported
p72
aVGRE
p73
aVpancreas
p74
aVPrecise
p75
aVelaborate
p76
aVreports
p77
aVcontroversy
p78
aVetiology
p79
aVsymmetrical
p80
aVNOS
p81
aVinterferon
p82
aVappropriately
p83
aVtopography
p84
aVexplained
p85
aVThree
p86
aVbrought
p87
aVdegreesC
p88
aVparasite-induced
p89
aVp49
p90
aVGH-induced
p91
aVp45
p92
aVunit
p93
aVp40
p94
aVderivatives
p95
aV42
p96
aVLevels
p97
aVtherefore
p98
aVhematopoietic-specific
p99
aVpinpoints
p100
aVRecent
p101
aVTh1-type
p102
aVfemales
p103
aVLipinski
p104
aVpopulations
p105
aVsuccessful
p106
aVcomigrated
p107
aVreversibly
p108
aVreversible
p109
aVCHO/CD14
p110
aVCoordinate
p111
aVserially
p112
aVvirus-encoded
p113
aVcircumstances
p114
aVLMP
p115
aVTcf-mediated
p116
aVdCTP-labeled
p117
aVRU38486
p118
aVLMO
p119
aVICAM-1
p120
aVexample
p121
aVbisindolylmaleimide
p122
aVLa
p123
aVPositive
p124
aVunderphosphorylated
p125
aVReactive
p126
aVcytosols
p127
aVATF/CREB
p128
aVC/EBPs
p129
aVabsolute
p130
aVparasite-mediated
p131
aVcytometer
p132
aVLN
p133
aVunmasked
p134
aVdamage
p135
aVhow
p136
aVmethodology
p137
aVchaffeensis
p138
aVsignificance
p139
aVSequencing
p140
aVtranslocation
p141
aVA
aVmodulation
p142
aVdiagram
p143
aVmodest
p144
aVhypergammaglobulinemia
p145
aVL2
p146
aVL1
p147
aVtypes
p148
aV2D3-mediated
p149
aVeffective
p150
aVrecombination
p151
aVorally
p152
aVAnother
p153
aVSequences
p154
aVCFP
p155
aVrestriction
p156
aVfeedback
p157
aVAP2
p158
aVbufalin
p159
aVAP1
p160
aVvary
p161
aVmicroglia
p162
aVmethylation-resistant
p163
aVactivating
p164
aVligand
p165
aVAct-1
p166
aVmatured
p167
aVOverexpression
p168
aVdisturb
p169
aVhypoxia
p170
aVeffects
p171
aVmimicking
p172
aVstructural
p173
aVBglII
p174
aVrepresents
p175
aVRFX5
p176
aVFunctional
p177
aVtuberculin
p178
aVlosartan
p179
aVAPC
p180
aVinterfering
p181
aVmIL-2rE
p182
aVpreceded
p183
aVHNF-4alpha
p184
aVPMA/ionomycin-inducible
p185
aVseries
p186
aVplatelets
p187
aVdouble-stranded
p188
aVdisplacement
p189
aVparasites
p190
aVinvitro
p191
aVTCR-induced
p192
aVsubstantially
p193
aVlaboratory
p194
aVfactor-kappaB
p195
aVBCL-2
p196
aVring
p197
aVBZLF1
p198
aVBCL-6
p199
aVDominant
p200
aVPart
p201
aVthrombin
p202
aVkinase-specific
p203
aVLMP-1
p204
aVcombinatorial
p205
aVunrelated
p206
aVfoundation
p207
aVlymphoblasts
p208
aVEgr
p209
aVUniversity
p210
aV30,31
p211
aVnucleoli
p212
aVchemotactic
p213
aVCEM-C7
p214
aVTriflusal
p215
aVHuman
p216
aVbeta-gal
p217
aVappreciable
p218
aVgamma-radiation
p219
aVpneumoniae-mediated
p220
aVH2O2-induced
p221
aVvitro
p222
aV/c-jun
p223
aVoncogenic
p224
aVlineage-restricted
p225
aVdismutase
p226
aVB-independent
p227
aVsimilarly
p228
aVengagement
p229
aVAggregation
p230
aV-280
p231
aVneeded
p232
aVanti-LMP1
p233
aVFcRFgamma
p234
aVglucocorticoid
p235
aVunderlie
p236
aVmyelomonocytic
p237
aVpostulate
p238
aVcalyculin
p239
aVranging
p240
aVoctamer-dependent
p241
aVmicrograms/ml
p242
aVintegrally
p243
aVIRF-1
p244
aVpositively
p245
aVIRF-4
p246
aV270
p247
aVshowed
p248
aVmitogen
p249
aVmultimerized
p250
aVregulator
p251
aVanti-CD25
p252
aVmicroglial
p253
aV5-bromo-2
p254
aVacquisition
p255
aVanti-CD28
p256
aVcore-binding
p257
aVspectrum
p258
aVhypermethylation
p259
aVsuperinduction
p260
aV-3110
p261
aVhT86
p262
aVdownmodulated
p263
aVresponsible
p264
aVAIDS-associated
p265
aVBand
p266
aVrecommended
p267
aVInhibition
p268
aVThey
p269
aVsteroid-treated
p270
aVdownmodulates
p271
aV+646
p272
aV-275
p273
aV-276
p274
aVdiminishing
p275
aVADP-activated
p276
aVretroviruses
p277
aVimmune-modulating
p278
aVcycloheximide
p279
aVorganization
p280
aVretaining
p281
aVStat3beta
p282
aV/delta
p283
aVinitiator
p284
aVBCL6
p285
aVLTR-mediated
p286
aVcamp
p287
aVlpr
p288
aVintrons
p289
aVimmunoreactivity
p290
aVI-hypersensitive
p291
aV/pp36/38
p292
aVFACS
p293
aVRU486
p294
aVCalpha
p295
aVAG490
p296
aVhAEC
p297
aVC-to-A
p298
aVheterologous
p299
aVparticipate
p300
aVsuper-induction
p301
aVtrans-active
p302
aVinducers
p303
aVRT-PCR
p304
aVACT-1-activating
p305
aVshuffling
p306
aVvirus-infected
p307
aVRALDH2
p308
aVkinase
p309
aVthan
p310
aVmaturation
p311
aVpost-inductive
p312
aVgamma-Interferon
p313
aVRp-cAMP
p314
aVL-N-monomethyl-arginine
p315
aV50-kDa
p316
aVester-responsive
p317
aV7-11
p318
aVreversal
p319
aVX
aVNeutrophils
p320
aVsegregate
p321
aVsuperfamily
p322
aVcontributes
p323
aVhematoxylin
p324
aVr-hTBP-1
p325
aVcalcineurin-NFAT
p326
aVdeletions/insertions
p327
aVElf-1
p328
aVflanked
p329
aVrelease
p330
aVPurified
p331
aVIgH
p332
aVSIVsmmPBj14
p333
aVrespond
p334
aVmandatory
p335
aVMIBP1
p336
aVhybridomas
p337
aVsensitivity
p338
aVtransferred
p339
aVunexpectedly
p340
aVAnderson
p341
aVcloning
p342
aVfail
p343
aVGGGGAATCTCCC
p344
aVbest
p345
aVoncogene
p346
aVpressures
p347
aVRXRs
p348
aVphosphatase-1
p349
aVmonocyte-macrophages
p350
aVC/EBP-epsilon
p351
aVlymphoma/leukemia
p352
aVnature
p353
aVsera
p354
aVeukaryotic
p355
aVreconstitute
p356
aVextent
p357
aV+13
p358
aVtriggers
p359
aVAntisense
p360
aVPatients
p361
aVGABP
p362
aVPSE
p363
aVDeltaSpi-B
p364
aVML-9-induced
p365
aVeradicate
p366
aVCo-ligation
p367
aV,158
p368
aVB-beta
p369
aVBCR
p370
aVBCS
p371
aVpAT
p372
aVDependent
p373
aVInterleukin-2
p374
aVInfection
p375
aVeliciting
p376
aVmuch
p377
aVbeta1
p378
aVprogenitor
p379
aVpAkt
p380
aVallelic
p381
aVSRE
p382
aVSTAT-3
p383
aVSTAT-6
p384
aVSTAT-4
p385
aVdisulfide
p386
aVfibroblast
p387
aVantagonization
p388
aVdissect
p389
aVCulture
p390
aVLMO-dependent
p391
aVLPMC
p392
aVTDS
p393
aV368-389
p394
aVpolysaccharide
p395
aVp65
p396
aVplayed
p397
aVpolyadenylation
p398
aVupregulates
p399
aVconditioned
p400
aVU937
p401
aVcharacterize
p402
aVelicit
p403
aVreceptor-2
p404
aVcoexpressed
p405
aVupregulated
p406
aVAssessment
p407
aVTCR-controlled
p408
aVPMA-activated
p409
aVseverity
p410
aVImportantly
p411
aVtemplates
p412
aVEA/S-directed
p413
aVMIP-1beta
p414
aVRunx
p415
aVphoP-activated
p416
aVhomodimeric
p417
aVEBF
p418
aVEBV
p419
aVEBS
p420
aVTable
p421
aVplaque
p422
aVRapid
p423
aVE2F-binding
p424
aVSubsequent
p425
aVhomogeneity
p426
aV/NF-AT
p427
aV3kb
p428
aVanabolism
p429
aVfactor-DNA
p430
aVDRA
p431
aVprevious
p432
aVnuclease-hypersensitive
p433
aVhad
p434
aVzVAD-fmk
p435
aVRather
p436
aVEVI1
p437
aVcations
p438
aV-induced
p439
aVML-9
p440
aVhas
p441
aV1-beta
p442
aVelevation
p443
aVantiestrogens
p444
aVsurvival
p445
aVpossible
p446
aVpossibly
p447
aVindicative
p448
aVpertinent
p449
aVunique
p450
aVoccurring
p451
aVThromboxane
p452
aVimmunoregulatory
p453
aVTRE-like
p454
aVsteps
p455
aVProtein-1
p456
aVhTLR2
p457
aVFurther
p458
aV-35
p459
aVCongruous
p460
aVbeneficial
p461
aVanions
p462
aVunrearranged
p463
aVtruncated
p464
aVpredominance
p465
aVSystem
p466
aVproportionally
p467
aV-487
p468
aVhaemopoietic
p469
aV48-kDa
p470
aVkappaB-responsive
p471
aV-30
p472
aVfibroblasts
p473
aVfor
p474
aVfos
p475
aVkilling
p476
aVrepression
p477
aVindividuals
p478
aVperiphery
p479
aVmethylation-sensitive
p480
aVAccompanying
p481
aV3T3
p482
aVsquelching
p483
aVFirst
p484
aVpredisposition
p485
aVanomalous
p486
aVo
aVlacked
p487
aVslightly
p488
aVO-side
p489
aVFK506-sensitive
p490
aVUse
p491
aVStrength
p492
aVc-Maf
p493
aVcell-free
p494
aVphysiologic
p495
aVlive-attenuated
p496
aVcucurbitacin
p497
aVNF-KB
p498
aVreducing
p499
aVThrombopoietin
p500
aVnovo
p501
aVfactor/nerve
p502
aVsupport
p503
aVconstantly
p504
aVJankovic
p505
aVNF-microB
p506
aVmAb
p507
aVresulted
p508
aVTip-associated
p509
aVtherapeutically
p510
aVforming
p511
aVPI3-kinase
p512
aVincorporation
p513
aVglucan
p514
aVInterferon
p515
aVarrays
p516
aVstrongest
p517
aVspecificities
p518
aVmegakaryocytic
p519
aV151
p520
aV150
p521
aVsemiquantitate
p522
aVaminotriazole
p523
aVsteady
p524
aVBamHI
p525
aVId3
p526
aVcoincubation
p527
aVId1
p528
aVexist
p529
aVNeg-1
p530
aVhiCD25
p531
aVTumor-derived
p532
aVeventual
p533
aVPossible
p534
aVInduce
p535
aVrole
p536
aVconferring
p537
aVxenobiotics
p538
aVsuperantigens
p539
aVE
aVmodels
p540
aVcleaved
p541
aVrolling
p542
aVreorganization
p543
aVleucocytes
p544
aVsystem-enriched
p545
aVanti-CD44
p546
aVanti-CD40
p547
aVfibrinogen-binding
p548
aVB-dependent-genes
p549
aVserum-containing
p550
aVenhancer-mediated
p551
aVtime
p552
aVcRel
p553
aVquantity
p554
aVRE/AP
p555
aVNRE-2a
p556
aVpolypeptides
p557
aVchain
p558
aVactivated
p559
aVvirus-1
p560
aVP450IA1
p561
aVGC-box
p562
aVspaced
p563
aVactivates
p564
aVamplification
p565
aVN-Oct-3
p566
aVlaminin
p567
aVTcf-dependent
p568
aVthiol
p569
aV96
p570
aVTBARS
p571
aV-253
p572
aV-256
p573
aV-257
p574
aVnephropathy
p575
aVkB-like
p576
aVgranulocyte-macrophage
p577
aVexact
p578
aVTat
p579
aVTap
p580
aVGM2/GC-box
p581
aVimmune/inflammatory
p582
aVTax
p583
aVeosinophilia
p584
aVloads
p585
aVhTAFII105
p586
aVprevent
p587
aVoccurrence
p588
aVfindings
p589
aVAbcam
p590
aVprediction
p591
aVfootprinted
p592
aVM7
p593
aVagonists
p594
aVthyroglobulin
p595
aVcurrent
p596
aVoverexpressed
p597
aVng/mL
p598
aVP-like
p599
aVMn
p600
aVunderstanding
p601
aVlyso-platelet-activating
p602
aVaddress
p603
aValone
p604
aVHSF
p605
aValong
p606
aVegr-3
p607
aVinterferon-induced
p608
aVMM
p609
aVphosphorylation-dependent
p610
aVvectors
p611
aVcommonly
p612
aVaccomplished
p613
aVineffective
p614
aVstudies
p615
aVinflux
p616
aVMCP-1
p617
aVParadoxically
p618
aVmacromolecule
p619
aVPRDII
p620
aVtwo-hybrid
p621
aVgamma-activated
p622
aVDOX
p623
aV2.6-kilobase
p624
aVIL-1R-associated
p625
aVkilobases
p626
aVp38alpha
p627
aVtoxoplasmosis
p628
aVpositive
p629
aVonly
p630
aVlymphoctyes
p631
aVopposed
p632
aVenriched
p633
aVThose
p634
aVintroducing
p635
aVheterodimers
p636
aVIsolation
p637
aV101bp
p638
aVImplications
p639
aVdegrade
p640
aV70-base-pair
p641
aVTal-1
p642
aVinvolve
p643
aVpolypeptide
p644
aVpreponderance
p645
aVhydrochloride
p646
aVoriginally
p647
aVGGGATTTCACC
p648
aVvalues
p649
aVfollowing
p650
aVOur
p651
aVzippers
p652
aVhemoglobins
p653
aVDPA
p654
aVendonuclease
p655
aVallowed
p656
aVflavonoids
p657
aVLymphomas
p658
aVimmune
p659
aVSignificant
p660
aVoptimal
p661
aV2C11
p662
aVNFATp/c-binding
p663
aVRORgammat
p664
aVsalicylates
p665
aV12-fold
p666
aVGLRP
p667
aVPMA-treated
p668
aVnonexpression
p669
aVtransactivating
p670
aVPlatelet/endothelium
p671
aVapplications
p672
aVJun-Fos
p673
aVPFP9a20
p674
aVdate
p675
aVsuch
p676
aVdata
p677
aV-SLP-76
p678
aVstress
p679
aVnatural
p680
aVFGF-1
p681
aVHS3
p682
aVNP-1
p683
aValpha,25-dihydroxyvitamin
p684
aVsclerosis
p685
aVyielding
p686
aVC-terminal
p687
aVquadrant
p688
aVso
p689
aVse
p690
aVLIF
p691
aVDisturbance
p692
aVacid-response
p693
aVp85
p694
aVfeature
p695
aVcourse
p696
aVexperiments
p697
aVLIP
p698
aVre-expression
p699
aVJun/AP
p700
aVdecreases
p701
aVlethality
p702
aVdecreased
p703
aVdecades
p704
aVconveying
p705
aVchromatin
p706
aVRho
p707
aVthereby
p708
aVDBF-sites
p709
aVthyroids
p710
aVsorter
p711
aVchemokines
p712
aVexon
p713
aVPol-II
p714
aVcellsis
p715
aVmaintaining
p716
aVendonucleases
p717
aVestablishing
p718
aVHosken
p719
aVcoagulation
p720
aVclassify
p721
aVHSF-1
p722
aV1-kappa
p723
aVprimarily
p724
aVTranscription
p725
aVbovine
p726
aVSIVmac239
p727
aVexogenously
p728
aVkaryotype
p729
aVcoreceptors
p730
aVthymoma
p731
aVtwo-fold
p732
aVPML-RAR
p733
aV798
p734
aVL.
p735
aVcontained
p736
aVinvestigation
p737
aVblk
p738
aVsuggesting
p739
aVhck
p740
aVsignal-induced
p741
aVcooperatively
p742
aVInvariably
p743
aVgoverning
p744
aVquite
p745
aVamino-terminal
p746
aV-driven
p747
aVintensely
p748
aVmitogenic
p749
aVNF-IL6beta
p750
aVinteracted
p751
aVprogramming
p752
aVinitiate
p753
aVundesirable
p754
aVroutes
p755
aV/CREB2
p756
aVATF
p757
aVATG
p758
aVsymmetry
p759
aVATA
p760
aVThrombin
p761
aVone
p762
aVnonspecifically
p763
aVhGATA-1
p764
aVhGATA-3
p765
aVgamma-globin
p766
aVReplication
p767
aVindicate
p768
aV2
aVconstants
p769
aVstructures
p770
aVnucleocytoplasmic
p771
aVtransgene
p772
aVapoptotic
p773
aVGata-3
p774
aVperpetuation
p775
aVAll
p776
aVartifact
p777
aVHB-EGF
p778
aVnon-syntenic
p779
aVrepresenting
p780
aVCD8-positive
p781
aVDP1
p782
aVdepressed
p783
aVfavors
p784
aVaP2
p785
aVprotease/phosphatase
p786
aVAT1
p787
aVfragmented
p788
aVastrocytes
p789
aVinsensitivity
p790
aVinhibiting
p791
aVsaw
p792
aVZAP-70
p793
aVReceptor/Stat
p794
aVdilutions
p795
aVinstructed
p796
aVnote
p797
aV50-fold
p798
aVtranscribed
p799
aVHalf
p800
aVpostreceptor
p801
aVPBMCs
p802
aVVDRE
p803
aValtered
p804
aVopposite
p805
aVbuffer
p806
aVc-sis
p807
aVmolecule
p808
aVtransfection-cocultivation
p809
aVRho-induced
p810
aVcarboxy-terminal
p811
aVinserted
p812
aVv-src
p813
aVpromoter/enhancer
p814
aVAP-2-like
p815
aVinfections
p816
aVdrive
p817
aVAP-1-like
p818
aVmanaging
p819
aVNH2-terminal
p820
aVPAF-stimulated
p821
aVsalt
p822
aVTPA-induced
p823
aVstimulator
p824
aVoncogenes
p825
aV65-kDa
p826
aVreprogramme
p827
aVCyA
p828
aVP/I
p829
aVfra-1
p830
aVfibre
p831
aVslow
p832
aVDNA-PK
p833
aVgammaRI
p834
aVcalcium-dependent
p835
aVliberation
p836
aVphospholipids
p837
aVactin
p838
aVvirion
p839
aVfilarial
p840
aVamplifying
p841
aVantisense
p842
aVdecidual
p843
aVKruppel-like
p844
aVNF-chi
p845
aVrecombinant
p846
aVprime
p847
aVself-perpetuation
p848
aVneutrophilia
p849
aVneutrophilic
p850
aVIL-beta
p851
aVwhere
p852
aVattenuated
p853
aV-sensitive
p854
aVSpecifically
p855
aVattenuates
p856
aVMEK
p857
aV2-phase
p858
aVbisdioxopiperazine
p859
aVVitD3-treated
p860
aVThat
p861
aVsites
p862
aVIL-2R
p863
aVaffecting
p864
aVrecruitment/function
p865
aVreceptor/toll-like
p866
aVaberration
p867
aVscreen
p868
aVsuppresses
p869
aVTcR
p870
aVcontinuously
p871
aVsteroid
p872
aVEo-VP16
p873
aVsuppressed
p874
aVBase-pair
p875
aVconcentrated
p876
aVc-kit
p877
aVDNA-receptor
p878
aVmany
p879
aVMoAb
p880
aVStability
p881
aVs
aVJAK/STAT
p882
aVTcf
p883
aVexpression
p884
aVAPAF-1
p885
aV47-bp
p886
aVVirol
p887
aVanalyzed
p888
aVanti
p889
aVHIV-gene
p890
aVGGTAGTTCCC
p891
aVreconcile
p892
aVbetter
p893
aV0.4-fold
p894
aVtrypsin-resistant
p895
aVstretch
p896
aVincubation
p897
aV-233
p898
aVcombined
p899
aVsignal-dependent
p900
aVtyrosine-protein
p901
aVlymphocyte-activating
p902
aVenable
p903
aVformed
p904
aVobserve
p905
aVformer
p906
aVGF109203X
p907
aV-73
p908
aV-72
p909
aV-70
p910
aV-76
p911
aV-75
p912
aV-79
p913
aVintimately
p914
aVLPS-specific
p915
aV/P50
p916
aVDIL
p917
aVLKLF
p918
aVmethyltransferases
p919
aVengaged
p920
aVAccumulation
p921
aV-236
p922
aVproteolytic
p923
aVcold-shock-induced
p924
aVbinary
p925
aVtetrazolium
p926
aVsubunit
p927
aVpeptide-mediated
p928
aVlineage-specific
p929
aVI
aVplatelet-activating-factor
p930
aVTFIID-dependent
p931
aVUTR
p932
aVp59fyn
p933
aVIRF
p934
aVtracking
p935
aVundefined
p936
aVPermanent
p937
aVanti-IL-2
p938
aVdownmodulation
p939
aVentered
p940
aVpersistently
p941
aVNAC
p942
aVNAF
p943
aVu.v.
p944
aVbeing
p945
aVzinc-finger
p946
aVprooxidant
p947
aVsemiquantitative
p948
aVBOB
p949
aVHBV
p950
aVhypermethylated
p951
aVCore-specific
p952
aVgranulocyte/macrophage
p953
aVPathways
p954
aVprominently
p955
aVThy-tax
p956
aVmetalloproteinase
p957
aVphorbol-myristate-acetate
p958
aVaspects
p959
aVcounteracting
p960
aVdetrimental
p961
aVtissue-type
p962
aVEM-2
p963
aVbreakage
p964
aVcycle-dependent
p965
aVthiazolidinediones
p966
aVmalignancy
p967
aVGal4-resposive
p968
aVcolon
p969
aVMyc
p970
aVMyb
p971
aVintestinal
p972
aVPGG-glucan
p973
aVFli-1
p974
aVconditional
p975
aVExpressed
p976
aVRFX1
p977
aVPDGF
p978
aVinterleukin
p979
aVcavity
p980
aVtoto
p981
aVpathogenesis
p982
aV1-dependent
p983
aVdestroys
p984
aVantibody-mediated
p985
aVKCl
p986
aVretinoic
p987
aVretinoid
p988
aVAnti-TNF-alpha
p989
aVratios
p990
aVRestriction
p991
aVbimodal
p992
aVco-transfection
p993
aVII-induced
p994
aVomega-monomethyl-L-arginine
p995
aVtumor
p996
aVbone
p997
aVact
p998
aVage-related
p999
aVperturbed
p1000
aVAssays
p1001
aVlytic
p1002
aVNo
p1003
aVpotentiate
p1004
aVdisrupts
p1005
aVimmunodeficiency
p1006
aVaccumulated
p1007
aVphosphotyrosine-containing
p1008
aVDown-regulation
p1009
aVsalicylate
p1010
aVNO
p1011
aVso-far-unrecognized
p1012
aVNF
p1013
aVNF-IL2A
p1014
aVsecretion
p1015
aVCis-acting
p1016
aVNT
p1017
aVICOS
p1018
aVcomplete
p1019
aVoctamer
p1020
aVsecreted
p1021
aVmammals
p1022
aVets
p1023
aVM-CSF
p1024
aVsecretes
p1025
aVfollicular
p1026
aVDNase-I
p1027
aVclones
p1028
aVmice
p1029
aVNF-kappaB-directed
p1030
aVwith
p1031
aVFox01
p1032
aVover-expression
p1033
aVanti-infective
p1034
aV-linked
p1035
aVkappaB-driven
p1036
aVPKC-mediated
p1037
aVP45
p1038
aVpulp
p1039
aVdetailed
p1040
aVab
p1041
aVsubclinically
p1042
aVcertain
p1043
aVhistocompatibility
p1044
aVan
p1045
aVas
p1046
aVProduction
p1047
aVassociating
p1048
aVat
p1049
aVlymphokines
p1050
aVAZT
p1051
aVHox
p1052
aVA-MYB
p1053
aVT1/2
p1054
aVabolish
p1055
aVtight
p1056
aVTandem
p1057
aVspatial
p1058
aVetiologically
p1059
aV2007
p1060
aVsite-forming
p1061
aVDNMT3A
p1062
aVsite-like
p1063
aVmonocyte
p1064
aVAlteration
p1065
aVFKBP
p1066
aVanthracyclines
p1067
aVNonspecific
p1068
aVlocus-activating
p1069
aVcpm
p1070
aVacids
p1071
aVDirect
p1072
aVhaving
p1073
aVmimic
p1074
aVimmunoglobulin
p1075
aVmass
p1076
aVcell-to-cell
p1077
aVsplicing
p1078
aVcaused
p1079
aVnucleotide-dependent
p1080
aVFig
p1081
aVcauses
p1082
aVparticles
p1083
aVoct-2A
p1084
aVCAAT
p1085
aVCytokine
p1086
aVTIMP-2
p1087
aVTIMP-1
p1088
aVCostimulation
p1089
aVGSSG/GSH-induced
p1090
aVto
p1091
aVGGGGCTGTCCC
p1092
aVendogenous
p1093
aVreturned
p1094
aVAuTG
p1095
aVSP-1
p1096
aV/PDGF-B
p1097
aVsubunits
p1098
aVblockade
p1099
aVmyeloperoxidase
p1100
aVTFG-beta
p1101
aVHL60R
p1102
aVstrand
p1103
aVco-stimulatory
p1104
aVpotentiation
p1105
aVaccompanying
p1106
aVRel-related
p1107
aV-negative
p1108
aVSIVmacMER
p1109
aVphosphorylation
p1110
aVlarge
p1111
aVthese
p1112
aVmurine-specific
p1113
aVsmall
p1114
aVpostnatally
p1115
aVreactvation
p1116
aVantibiotic
p1117
aVpast
p1118
aVdisplays
p1119
aVco-repressors
p1120
aVhormone-binding
p1121
aVsituated
p1122
aV21-base
p1123
aVhormonal
p1124
aVantiallergic
p1125
aVEomesodermin
p1126
aVtransactivator
p1127
aVmethod
p1128
aVcontrast
p1129
aVIL3
p1130
aVrevealing
p1131
aVdimerization
p1132
aVfull
p1133
aVhours
p1134
aVVCAM-1
p1135
aVOKT3/PMA
p1136
aVdifferentiate/mature
p1137
aVthymidine
p1138
aVprior
p1139
aVhamster
p1140
aVDifferentiation
p1141
aVallografts
p1142
aVsuccinate
p1143
aVbisulfite
p1144
aVfollowed
p1145
aVpHIV-CAT
p1146
aVsuperantigen
p1147
aVselect
p1148
aVElements
p1149
aVobjectives
p1150
aV6
aVc-erbA/thyroid
p1151
aVmore
p1152
aVproliferative
p1153
aVinitiated
p1154
aVsubstances
p1155
aVrelevant
p1156
aVcorrected
p1157
aVemission
p1158
aVtested
p1159
aVRaji
p1160
aVkeeping
p1161
aVhemin-induced
p1162
aVcentered
p1163
aVpGL4-TKhRluc2
p1164
aVT-bet
p1165
aVRel/kappaB
p1166
aVViral
p1167
aVaxin
p1168
aVantagonists
p1169
aVmyristate
p1170
aVstates
p1171
aVregulators/adapters
p1172
aVsense
p1173
aVsalts
p1174
aVIRBP
p1175
aVinformation
p1176
aVrespective
p1177
aVDownstream
p1178
aV-enriched
p1179
aVFusion
p1180
aVfreshly
p1181
aVv-Fos
p1182
aVOTF-2
p1183
aVOTF-1
p1184
aVvariant
p1185
aVmapping
p1186
aVphenotypes
p1187
aVcotransfected
p1188
aVthymopoiesis
p1189
aVauthentic
p1190
aV-55
p1191
aV-54
p1192
aV-57
p1193
aV-51
p1194
aV-50
p1195
aVE2F1
p1196
aVresemble
p1197
aV3q21
p1198
aV-59
p1199
aVTissue
p1200
aVfundamental
p1201
aVtyrosine-phosphorylated
p1202
aVlow-ionic-strength
p1203
aVImmunoResearch
p1204
aVGPIX
p1205
aVpaper
p1206
aVp130
p1207
aVIL-1RA
p1208
aVits
p1209
aVP-450
p1210
aVrapidly
p1211
aVEBV-positive
p1212
aVpolymerases
p1213
aVGPIIb-IIIa
p1214
aVnonviable
p1215
aVconjugation
p1216
aVsymptoms
p1217
aVburst-forming
p1218
aVbypass
p1219
aVsu
p1220
aVdominant-negative
p1221
aVOleate
p1222
aVokadaic
p1223
aVseverely
p1224
aVC3a
p1225
aVreciprocally
p1226
aV3.4-fold
p1227
aVURS
p1228
aVspeculate
p1229
aVheparin-binding
p1230
aVchannels
p1231
aValways
p1232
aVResistance
p1233
aVGA-binding
p1234
aV627-bp
p1235
aVDoses
p1236
aVfound
p1237
aVreactions
p1238
aVNGF
p1239
aVbends
p1240
aVIX
p1241
aVreduce
p1242
aVdoses
p1243
aVAntioxidants
p1244
aVrepressive
p1245
aVPRDI
p1246
aVresearch
p1247
aVBMT
p1248
aVdenoted
p1249
aVoccurs
p1250
aVsecretory/transport
p1251
aVlocalization
p1252
aVantisera
p1253
aVabnormally
p1254
aVChang
p1255
aVdriven
p1256
aVpairs
p1257
aVretained
p1258
aV-TRAF2
p1259
aVpersons
p1260
aVTBP
p1261
aVsubtoxic
p1262
aVPRRII
p1263
aVexhibited
p1264
aVmajor
p1265
aVhyper-sensitivity
p1266
aVthereafter
p1267
aVnumber
p1268
aVRepression
p1269
aVoctamer-binding
p1270
aVOCTA
p1271
aVphysico-chemical
p1272
aVdiffer
p1273
aVPGG-Glucan
p1274
aVintroduction
p1275
aVcheckpoint
p1276
aVadenovirus
p1277
aVdeletional
p1278
aVmaster
p1279
aVmolecular
p1280
aVglucocorticosteroids
p1281
aVPPARalpha
p1282
aVtwo-phase
p1283
aVKrox-24
p1284
aVelaboration
p1285
aVrelationship
p1286
aVimmediate
p1287
aVCDR2-loop
p1288
aVfocusing
p1289
aVspacings
p1290
aVionophore-induced
p1291
aVcritically
p1292
aV591/EGR2
p1293
aV2.5-fold
p1294
aVmultimer
p1295
aVdetermined
p1296
aV/CBF
p1297
aVSlVmac239
p1298
aVPD98059
p1299
aVinsertion
p1300
aVFuGene
p1301
aVMOLT
p1302
aVdefect
p1303
aVA23187
p1304
aVPlatelet-induced
p1305
aVPRISM
p1306
aVconjugate
p1307
aVresynthesis
p1308
aVzileuton
p1309
aVantagonizes
p1310
aVIFNgamma
p1311
aVself
p1312
aVHIV-protease
p1313
aVEomes
p1314
aValso
p1315
aVrecognizing
p1316
aVinternal
p1317
aVanalogy
p1318
aVanalogs
p1319
aVplay
p1320
aVM
aVMIP-1alpha
p1321
aVphosphoprotein
p1322
aVvirus
p1323
aV4-trifluoromethyl
p1324
aVds-oligonucleotides
p1325
aVlaboratories
p1326
aVP65
p1327
aVbeta-mecaptoethanol
p1328
aVXP-B
p1329
aVOTF
p1330
aVXP-D
p1331
aVproliferated
p1332
aVbodies
p1333
aVPhysical
p1334
aVPMA/A23187
p1335
aVCytokines
p1336
aVambiguities
p1337
aVpCMV4-Tax
p1338
aVgold
p1339
aVnondetectable
p1340
aVTal1
p1341
aVdegraded
p1342
aV/c-Rel
p1343
aVoccupation
p1344
aVimpact
p1345
aVindicator
p1346
aVconsistently
p1347
aVHAEC
p1348
aVLabs
p1349
aVfailed
p1350
aVenzyme
p1351
aVcassette
p1352
aVdamage-induced
p1353
aVfactor
p1354
aVBRCA1
p1355
aVinducibly
p1356
aVdependent
p1357
aVHIV-LTR
p1358
aVNF-kappaB-independent
p1359
aVAF-2
p1360
aVT-lymphocytes
p1361
aVAF-1
p1362
aVclosely
p1363
aVreporters
p1364
aVuntreated
p1365
aVinducible
p1366
aVprogressive
p1367
aVEPO
p1368
aVtumors
p1369
aVspliced
p1370
aVHela
p1371
aVimmunosuppressants
p1372
aVrCTLA4Ig
p1373
aVapproaching
p1374
aVset
p1375
aVacid-sensitive
p1376
aVFos
p1377
aV317
p1378
aVanti-Fas
p1379
aVpotent
p1380
aVantiproliferative
p1381
aVcollectively
p1382
aVsee
p1383
aVmigration
p1384
aV-p50
p1385
aVprotein-DNA
p1386
aVanalog
p1387
aVTyrosine
p1388
aVsequences
p1389
aV#
aVcurrently
p1390
aVrejecting
p1391
aV61058
p1392
aVacidic
p1393
aVEMSA
p1394
aVacutely
p1395
aVavailable
p1396
aVkilobase
p1397
aVtargeted
p1398
aVCTG-dimer
p1399
aVVivo
p1400
aVpolymerized
p1401
aVselectively
p1402
aVNFATc.beta
p1403
aVC/EBP
p1404
aVcryptic
p1405
aVPrior
p1406
aVbarely
p1407
aVIgG1
p1408
aVconnection
p1409
aVimproves
p1410
aVTLCK
p1411
aVretarded
p1412
aVlong-term
p1413
aVwhole
p1414
aVhomologue
p1415
aVYY1
p1416
aVacted
p1417
aVtrolox
p1418
aVcorresponds
p1419
aVagents
p1420
aVinitiation
p1421
aVprotooncogenes
p1422
aVCross-competition
p1423
aVdopamine-induced
p1424
aVCare
p1425
aVresting
p1426
aVinfect
p1427
aV-phoQ
p1428
aVsilencer
p1429
aVsignal-regulated
p1430
aVStarting
p1431
aVligands
p1432
aVRel/NF-kappaB-responsive
p1433
aV7700
p1434
aVreliable
p1435
aVexpanded
p1436
aVnucleotides
p1437
aVvol
p1438
aVPretreatment
p1439
aVvon
p1440
aVgamma-herpesvirus
p1441
aVbinding
p1442
aVTPA-treated
p1443
aVimmunomodulatory
p1444
aVPGE2-dependent
p1445
aVanti-thrombin
p1446
aVtriple
p1447
aVCCl4-induced
p1448
aVGerosa
p1449
aVmediating
p1450
aVelevated
p1451
aVtrans-activation
p1452
aVvirtually
p1453
aVRAW264
p1454
aVBettelli
p1455
aVrevertants
p1456
aVmegakaryocytes
p1457
aVkinetics
p1458
aV-CD16
p1459
aVcomprehensive
p1460
aVBAY11
p1461
aVlevels
p1462
aVnecessity
p1463
aVrecent
p1464
aVLimited
p1465
aVSAP-1
p1466
aVimmunohistological
p1467
aV52,53
p1468
aVpolyclonal
p1469
aVregulating
p1470
aVPurity
p1471
aVclearance
p1472
aV5-azacytidine
p1473
aVc-fos
p1474
aVProlactin
p1475
aVhypothesized
p1476
aVtriflusal
p1477
aVE74
p1478
aVglobin
p1479
aVdissociation
p1480
aVconclusions
p1481
aVhsp90
p1482
aVdeclined
p1483
aVsignals
p1484
aVCCK-8
p1485
aVcausing
p1486
aV-controlled
p1487
aVlocation
p1488
aVE-boxes
p1489
aVrelevance
p1490
aVinput
p1491
aVBoth
p1492
aVsyndrome-associated
p1493
aVdysfunctions
p1494
aVacute
p1495
aVcouple
p1496
aVemanating
p1497
aVemergence
p1498
aVtranscription-enhancer
p1499
aVstructurally
p1500
aVnNOS
p1501
aV9.3
p1502
aVimposed
p1503
aVd
aVOH
p1504
aV-36
p1505
aVanti-rabbit
p1506
aVretrovirus
p1507
aVHighly
p1508
aVconsensus
p1509
aVcontinue
p1510
aVyields
p1511
aVrescuing
p1512
aVin-vitro-translated
p1513
aVehrlichial
p1514
aVdisorder
p1515
aVpertaining
p1516
aVpermeabilized
p1517
aVmethods
p1518
aVdose-dependent
p1519
aVtransactivators
p1520
aVDEN
p1521
aVNF-M
p1522
aV-1954
p1523
aVHUVECs
p1524
aVbe
p1525
aVbb
p1526
aVfollicles
p1527
aVagreement
p1528
aVegr-2
p1529
aVTaxol
p1530
aVDeficiencies
p1531
aVbp
p1532
aVC5a
p1533
aVNF-IL-6
p1534
aVby
p1535
aVanti-IL10
p1536
aVDomain
p1537
aVanything
p1538
aVLocus
p1539
aVcotransfection
p1540
aVchi
p1541
aVNP-5
p1542
aVAPC-independent
p1543
aVrepair
p1544
aVACH
p1545
aVintegral
p1546
aVDefensin
p1547
aVlocus
p1548
aVappropriate
p1549
aVmitochondrial
p1550
aVRetinoblastoma
p1551
aVNER
p1552
aVpathogenicity
p1553
aVepidermal
p1554
aVTH-dependent
p1555
aVspecifically
p1556
aVACs
p1557
aVIFN-gamma-activated
p1558
aVEts-related
p1559
aVcDNAs
p1560
aVlipopolysaccharide
p1561
aVconsiderably
p1562
aVFibrinogen
p1563
aVligation
p1564
aVgrowth-regulated
p1565
aVlink
p1566
aVSJO
p1567
aVATPase
p1568
aVprotooncogene
p1569
aVline
p1570
aVResolution
p1571
aVconsiderable
p1572
aVcounterstained
p1573
aVOffice
p1574
aVstem-loop
p1575
aVAfrica
p1576
aVup
p1577
aVus
p1578
aVcis
p1579
aVpaired
p1580
aVmatrix-associated
p1581
aVmature
p1582
aVCTL-specific
p1583
aVGGAAAA
p1584
aVtranscriptional
p1585
aVattenuating
p1586
aVphytohemaglutinin
p1587
aVdefined
p1588
aVinfluence
p1589
aVR-3-hydroxymyristate
p1590
aVUCSD-AML1
p1591
aVPKCalpha
p1592
aVdiverse
p1593
aVHydroxyurea
p1594
aVFcgammaRI
p1595
aVTCF-1
p1596
aVtranslocations
p1597
aVprofibrotic
p1598
aVvirus-specific
p1599
aVpreventing
p1600
aV-triggered
p1601
aVelements
p1602
aVanti-onco-genic
p1603
aVdevelopmental
p1604
aVfaintly
p1605
aVlong-lasting
p1606
aVPMA-induced
p1607
aVsuppression
p1608
aVGATA-factor
p1609
aVlane
p1610
aVcalmodulin-binding
p1611
aVc-Fos
p1612
aValgorithm
p1613
aVrescued
p1614
aVthrombosis
p1615
aVDithiocarbamates
p1616
aVopposing
p1617
aVanti-E
p1618
aV10-fold
p1619
aVretardation
p1620
aVfresh
p1621
aVrescues
p1622
aVpartial
p1623
aVresults
p1624
aVillustrated
p1625
aV.2.5
p1626
aVdepletion
p1627
aViii
p1628
aVyoung
p1629
aVendogenously
p1630
aVRo5-3335
p1631
aVtissue-specific
p1632
aVindicating
p1633
aVcyclooxygenase
p1634
aVF2
p1635
aVdevelopmentally
p1636
aVcontinued
p1637
aVcategories
p1638
aVsoluble
p1639
aVtransmission
p1640
aVSurface
p1641
aV35-fold
p1642
aVIPEX
p1643
aVOVA
p1644
aVPreincubation
p1645
aVPrimer
p1646
aVbasic-helix-loop-helix
p1647
aVplatelet-activating
p1648
aVGATA/ER
p1649
aVprogenitors
p1650
aVrecruitment
p1651
aVpStat6
p1652
aVpStat3
p1653
aVdynamics
p1654
aVweek
p1655
aVapparatus
p1656
aVNRE-II
p1657
aVexpressed
p1658
aVBlockade
p1659
aVISG15
p1660
aVexpresses
p1661
aVIL-1R
p1662
aV-p56
p1663
aVproliferation
p1664
aVled
p1665
aVNaOH
p1666
aVrespectively
p1667
aVheme-treated
p1668
aVmonocyte/macrophage
p1669
aVphysiology
p1670
aVgreat
p1671
aVengage
p1672
aVHIV-associated
p1673
aVinvolved
p1674
aVacetyltransferase
p1675
aVresulting
p1676
aVinsulin
p1677
aVdyad
p1678
aVinvolves
p1679
aVIKAROS/LYF
p1680
aVfactor-binding
p1681
aVpp125FAK
p1682
aVLTR-modified
p1683
aVadherence/contact
p1684
aVlymphocytic
p1685
aVoligomerization
p1686
aVGGGGACTTTCCG
p1687
aVTNF-dependent
p1688
aVcausal
p1689
aVets-binding
p1690
aVnext
p1691
aV21-base-pair
p1692
aVduplicate
p1693
aVmulti-protein
p1694
aVchloride
p1695
aVkaryophilic
p1696
aVjudged
p1697
aVphoQ
p1698
aVphoP
p1699
aVchloroquine
p1700
aVcalcium-mobilizing
p1701
aVAML1
p1702
aVoccurred
p1703
aVbodily
p1704
aVcarrying
p1705
aVderegulate
p1706
aVanimals
p1707
aVthis
p1708
aVphox
p1709
aVchallenge
p1710
aVerythroid
p1711
aVNeg-2
p1712
aVhydrolysis
p1713
aVPU-box
p1714
aVPentoxifylline
p1715
aVweaker
p1716
aVIL-2rE
p1717
aVprocess
p1718
aVloci
p1719
aVpurposes
p1720
aVCATGTGGC
p1721
aVhigh
p1722
aVbend
p1723
aVAPCs
p1724
aVHSP70
p1725
aVSeveral
p1726
aVdocking
p1727
aVdelay
p1728
aVNevertheless
p1729
aVhormones
p1730
aVestablishment
p1731
aVblocks
p1732
aV/CD69
p1733
aVDose-response
p1734
aVGal4-BD-CREB-1
p1735
aVLdb-1
p1736
aVdemonstrating
p1737
aVmarrow
p1738
aVefficiently
p1739
aVviremia
p1740
aVrealized
p1741
aVderanged
p1742
aVOct2
p1743
aVmicrobial
p1744
aVelement
p1745
aVMBD4
p1746
aVNFAT-DNA
p1747
aVMBD1
p1748
aVallow
p1749
aVMBD2
p1750
aVEdelta
p1751
aVproduces
p1752
aVinsight
p1753
aVtranscriptionally
p1754
aVproduced
p1755
aV100-fold
p1756
aV/TAN
p1757
aVdirects
p1758
aVcAMP-response
p1759
aVligand-receptor
p1760
aVperfect
p1761
aVdecay
p1762
aVchosen
p1763
aVprogeny
p1764
aVhypothesize
p1765
aVmellitus
p1766
aV53071
p1767
aVcommunication
p1768
aVderivative
p1769
aVsuppressor
p1770
aVfMLP
p1771
aVIFN-beta
p1772
aVIgLMP1
p1773
aVdisrupted
p1774
aVmitigated
p1775
aVJurkat
p1776
aVfunction-associated
p1777
aVaccompanies
p1778
aVNFAT-family
p1779
aVaccompanied
p1780
aVdifferentiation-promoting
p1781
aVinverting
p1782
aVsubset
p1783
aVSTAT
p1784
aVId-3
p1785
aVBCR-derived
p1786
aVc-fms
p1787
aVdeficiency
p1788
aVfibronectin
p1789
aVfrequency
p1790
aVmicroscopy
p1791
aVIRFs
p1792
aVmediates
p1793
aVfundamentally
p1794
aVthyrocyte
p1795
aVmediated
p1796
aVmotifs
p1797
aVshut
p1798
aVdelineate
p1799
aVinteractions
p1800
aV-11
p1801
aVadherence
p1802
aVregulators
p1803
aV-12
p1804
aVstaurosporin
p1805
aVregulatory
p1806
aVMHC/superantigen
p1807
aVcould
p1808
aVput
p1809
aVpro-inflammatory
p1810
aVactivation-inducible
p1811
aVlength
p1812
aVBsh1236I
p1813
aVassumed
p1814
aVrepeats
p1815
aVdistinguish
p1816
aVstimulate
p1817
aVEBV-mediated
p1818
aVAntiserum
p1819
aVrhIL-2
p1820
aVZif-268
p1821
aVClinicians
p1822
aVCostimulatory
p1823
aVcollagen
p1824
aVbacterially
p1825
aVpg/mL
p1826
aVProgram
p1827
aVB-alpha
p1828
aVmicromol/L
p1829
aVextrinsic
p1830
aVhistograms
p1831
aVtranscriptionally-active
p1832
aVpg/ml
p1833
aVmembrane-proximal
p1834
aVperipheral
p1835
aVRel/STAT
p1836
aVTRE-DNA
p1837
aVsib-pair
p1838
aVtesting
p1839
aVadaptor
p1840
aVindomethacin
p1841
aVcalcineurin-stimulated
p1842
aVCalcium
p1843
aVprimers
p1844
aV-1.7
p1845
aVAnergy
p1846
aVdithiocarbamates
p1847
aVcolleagues
p1848
aVinterferon-alpha
p1849
aVkappaB-Sp1
p1850
aVreacted
p1851
aV-producing
p1852
aVnegatively
p1853
aVallergic
p1854
aVresult
p1855
aVGal4-BD-Tax
p1856
aVprotease-treated
p1857
aVResults
p1858
aVoctamer-bound
p1859
aVaffinities
p1860
aVOne
p1861
aVclearly
p1862
aVbasal-level
p1863
aVstudying
p1864
aVReversed
p1865
aVmechanism
p1866
aVadjunct
p1867
aVimmunmodulatory
p1868
aVX2-box
p1869
aVperoxidase
p1870
aVreproducing
p1871
aVcompetence
p1872
aVpersistence
p1873
aVPierce
p1874
aVMethylation
p1875
aVmultimeric
p1876
aVMac-1
p1877
aVM-TAT/EPO
p1878
aVcomparison
p1879
aVsegment
p1880
aVeicosanoids
p1881
aVso-called
p1882
aVMCM
p1883
aVvolunteers
p1884
aVplacement
p1885
aVERK5
p1886
aVCys2-Xaa12-His2
p1887
aVGFP
p1888
aVbred
p1889
aVstronger
p1890
aVNOTCH1
p1891
aVRelative
p1892
aVAg-3
p1893
aVmechanical
p1894
aVfact
p1895
aVHSF1
p1896
aVHSF2
p1897
aVcharacterisation
p1898
aVterminate
p1899
aVbring
p1900
aVcyclase
p1901
aVMDMs
p1902
aVprincipal
p1903
aVH-8
p1904
aVH-7
p1905
aVshould
p1906
aVterminal
p1907
aVmolecules
p1908
aVFoxo3a
p1909
aVStrong
p1910
aVConstitutively
p1911
aVC-235
p1912
aVantagonism
p1913
aVTCEd
p1914
aVpathophysiology
p1915
aVexchanges
p1916
aVantagonist
p1917
aVBecause
p1918
aVchemically-reactive
p1919
aVlittermate
p1920
aVcomprising
p1921
aVHSFE
p1922
aVdelta418
p1923
aVPu
p1924
aVexerted
p1925
aVOBF-1
p1926
aVCRE
p1927
aV-1,065
p1928
aVparallels
p1929
aVPR
p1930
aVPS
p1931
aVinteracting
p1932
aVPU
p1933
aVnuclear
p1934
aVcarcinomas
p1935
aVstearic
p1936
aVDeltaFKH
p1937
aVRestoration
p1938
aVPF
p1939
aVPE
p1940
aVPI
p1941
aVP2
p1942
aVP3
p1943
aVP0
p1944
aVP1
p1945
aV3q21-24
p1946
aVP4
p1947
aVP5
p1948
aVnotion
p1949
aVconfiguration
p1950
aVLysates
p1951
aVmug/ml
p1952
aVCR1
p1953
aVfive-fold
p1954
aVisopropanol
p1955
aVAstrocytes
p1956
aVdrug
p1957
aVfigures
p1958
aVIono
p1959
aVleishmaniasis
p1960
aVconclude
p1961
aVadeno-associated
p1962
aVprostaglandin
p1963
aVca
p1964
aVregulon
p1965
aVreconstitution
p1966
aVenhancer-zeta
p1967
aVdimerizing
p1968
aVcells/mm2
p1969
aVFactor-1
p1970
aVElevation
p1971
aVPAF-induced
p1972
aVchronicity
p1973
aVgenetic
p1974
aVLightfoote
p1975
aVAMP-dependent
p1976
aVutilizing
p1977
aVGen
p1978
aV>
aVlymphoid
p1979
aVCD69
p1980
aVCD68
p1981
aVng/ml
p1982
aVIgM-secreting
p1983
aVFragmentation
p1984
aVFlowJo
p1985
aVlipid-associated
p1986
aVPU.1
p1987
aVExogenously
p1988
aVHTLV-II
p1989
aVStepwise
p1990
aVconcerted
p1991
aVdiversification
p1992
aVsite
p1993
aVStrict
p1994
aVhSIE
p1995
aVRBP-Jkappa
p1996
aVsitu
p1997
aVnegative-acting
p1998
aVflasks
p1999
aVall-trans
p2000
aVinfarction
p2001
aVEBNA
p2002
aVNF-AT
p2003
aVconflicting
p2004
aVGranzyme
p2005
aV24-29
p2006
aVcomplemented
p2007
aVPercentages
p2008
aV24-26
p2009
aVpolyA
p2010
aVidentity
p2011
aVNF-kappaB-responsive
p2012
aVDifferentiation-dependent
p2013
aVC/EBP-beta
p2014
aVpulse-treatment
p2015
aVEpitope
p2016
aVchemokine
p2017
aVpatterns
p2018
aVCD11b
p2019
aVsubgroup
p2020
aVtrophic
p2021
aVless
p2022
aVmonocytes-macrophages
p2023
aVhormone-activated
p2024
aVGiven
p2025
aVkinases/extracellular
p2026
aVresuspended
p2027
aVpredicts
p2028
aV-CD30L
p2029
aVgranulocytic
p2030
aVluciferase
p2031
aVtransactivated
p2032
aVCK-1
p2033
aVcotreatment
p2034
aVCK-2
p2035
aVB-binding
p2036
aVincreased
p2037
aVI/Y
p2038
aVoctamer-like
p2039
aVB-specific
p2040
aVcell-type
p2041
aVincreases
p2042
aVfive
p2043
aVGlimcher
p2044
aVcerevisiae
p2045
aVplacenta
p2046
aVphenomena
p2047
aVcostimulate
p2048
aVparasite
p2049
aVTFIIIB
p2050
aVCD2-activated
p2051
aVbecome
p2052
aVneutrophils
p2053
aVreplacement
p2054
aVcarcinogens
p2055
aVAddition
p2056
aVunderwent
p2057
aVshuttling
p2058
aVsubset-restricted
p2059
aVtransport
p2060
aVICN
p2061
aVLymphoid
p2062
aVICSBP
p2063
aVdeacetylase
p2064
aVdoes
p2065
aV130-kD
p2066
aVchelating
p2067
aVtransactivator-induced
p2068
aVbiology
p2069
aVmacrophages
p2070
aVselecting
p2071
aVisoquinoline
p2072
aVsemi-purified
p2073
aVTPCK
p2074
aVselectins
p2075
aVvs.
p2076
aVstage
p2077
aVgained
p2078
aVNM23
p2079
aVT-box
p2080
aVtime-dependent
p2081
aValpha-tcp-induced
p2082
aVinsufficient
p2083
aVconstraints
p2084
aVExpressHyb
p2085
aVH7
p2086
aVletters
p2087
aVkappaB-regulated
p2088
aVFOSB
p2089
aV-570
p2090
aVcommitment
p2091
aVassess
p2092
aVlung
p2093
aVreceptor-ligand
p2094
aV/c-Jun
p2095
aVPit-1b
p2096
aVrestricts
p2097
aVSignaling
p2098
aV/Vav/phosphatidylinositol
p2099
aVSynergistic
p2100
aVunresponsive
p2101
aVspecimens
p2102
aVnaturally
p2103
aVfunction
p2104
aVC/EBPalpha
p2105
aVWnt
p2106
aVprogrammed
p2107
aVInterestingly
p2108
aVWY14643
p2109
aVoverlapping
p2110
aVdelivery
p2111
aVimmunologically
p2112
aVlowered
p2113
aVconvergence
p2114
aVimmunopathogenesis
p2115
aVdelivers
p2116
aVanetholdithiolthione
p2117
aVfragmentation
p2118
aVevident
p2119
aVPI3K/Akt
p2120
aVchaperone
p2121
aVcalcium
p2122
aVplaced
p2123
aVPBLs
p2124
aVdistribution
p2125
aVbearing
p2126
aVCIF
p2127
aVrecognize
p2128
aVcontribute
p2129
aVCIS
p2130
aVsibling
p2131
aVepithelial
p2132
aVp50B
p2133
aVnuclease
p2134
aVcompared
p2135
aVvariety
p2136
aVtrials
p2137
aVmetal-ion
p2138
aVrunting
p2139
aVSentman
p2140
aVdetails
p2141
aVquantities
p2142
aVacidification
p2143
aVJak3
p2144
aVthiols
p2145
aVforkhead
p2146
aVrepeat
p2147
aVrepressors
p2148
aVneuroblastoma
p2149
aVTHP1
p2150
aVU
aVcytokine-mRNA
p2151
aValpha-interferon
p2152
aVexposure
p2153
aV104-bp
p2154
aVtranscription/translation
p2155
aVcompete
p2156
aVanti-kappa
p2157
aVTat-I
p2158
aVsuicidal
p2159
aVdown-regulating
p2160
aValleles
p2161
aVRoche
p2162
aVcontroversial
p2163
aVintegrity
p2164
aVshear-induced
p2165
aVHIV-TF1
p2166
aVphysiological
p2167
aVmechanims
p2168
aVHDMEC
p2169
aV244-bp
p2170
aVDNA-binding
p2171
aVgene-suppressive
p2172
aVInducible
p2173
aVdouble-negative
p2174
aVreplication
p2175
aVantigen-presenting
p2176
aVHIVs
p2177
aV-related
p2178
aVMAP
p2179
aVprogression
p2180
aVmolybdate
p2181
aVDose
p2182
aVdownregulating
p2183
aVindices
p2184
aV297
p2185
aVabolishing
p2186
aV293
p2187
aV4,11,14,17
p2188
aVNF-kappaB/Rel
p2189
aVLipopolysaccharide
p2190
aVmyricetin
p2191
aVestablished
p2192
aVcooperating
p2193
aVNFAT/AP
p2194
aVincompatible
p2195
aV+
aVD.-E.
p2196
aVconsequent
p2197
aVabove
p2198
aVtoll
p2199
aVIL-2R-alpha
p2200
aVconsisting
p2201
aVD3-mediated
p2202
aVsimultaneously
p2203
aVendothelium
p2204
aVprotection
p2205
aVX-ray
p2206
aVobtained
p2207
aVextrapituitary
p2208
aVH/C
p2209
aV-10
p2210
aVstudy
p2211
aVEGR-1
p2212
aVCu
p2213
aVsmoke
p2214
aVsequestering
p2215
aVCsA-sensitive
p2216
aVsynergizes
p2217
aVmodulates
p2218
aVpredominant
p2219
aVhighly
p2220
aVInterleukin-1
p2221
aVmodulated
p2222
aVInterleukin-3
p2223
aVInterleukin-4
p2224
aVInterleukin-5
p2225
aVInterleukin-7
p2226
aVCTL
p2227
aVsupernatants
p2228
aVtotal
p2229
aV5-LOX
p2230
aVStat
p2231
aVStar
p2232
aVlikelihood
p2233
aVisoform
p2234
aValkaloid
p2235
aVintracellularly
p2236
aVnegative
p2237
aVsubstitutions
p2238
aVseparated
p2239
aVtolerated
p2240
aVThapsigargin
p2241
aVExtracts
p2242
aVConstitutive
p2243
aV/HEB
p2244
aVself-perpetuated
p2245
aVblocking
p2246
aV31,37
p2247
aV1991
p2248
aVreceptor-1
p2249
aV1995
p2250
aV-expressing
p2251
aV1996
p2252
aVenhancer-blocking
p2253
aVlipid-lowering
p2254
aVwork
p2255
aVphosphorylated
p2256
aVmammalian
p2257
aVImmunoprecipitation
p2258
aVoxide
p2259
aVEBNA-2A
p2260
aVORF
p2261
aVlysophospholipids
p2262
aVOncogenic
p2263
aVindicated
p2264
aV1.3-fold
p2265
aValloreactive
p2266
aVimpair
p2267
aVindicates
p2268
aVAbs
p2269
aVGASd/EBSd
p2270
aV-dependent
p2271
aVrecovery
p2272
aVprovide
p2273
aVie
p2274
aVrecovers
p2275
aVG-CSF
p2276
aVMNDA
p2277
aVImpaired
p2278
aVfever
p2279
aVtransforming
p2280
aVCD44
p2281
aVearlier
p2282
aVCD40
p2283
aVlac
p2284
aVretain
p2285
aVlipopolysaccharides
p2286
aVbHLH
p2287
aVtransfectant
p2288
aVHerein
p2289
aVsensitizing
p2290
aVorder
p2291
aVtriggering
p2292
aVinternalization
p2293
aVInhibitory
p2294
aVB-dependent
p2295
aVconsent
p2296
aVInhibitors
p2297
aV6.5
p2298
aVSp-1
p2299
aVchronically
p2300
aVpriming
p2301
aVT-cell-activating
p2302
aVTransfection
p2303
aVBands
p2304
aVgld/gld
p2305
aVproduction
p2306
aVTCR-signalling
p2307
aVReview
p2308
aVshear
p2309
aVthen
p2310
aVthem
p2311
aVaffected
p2312
aVZIP
p2313
aVfragment
p2314
aVrate-limiting
p2315
aVIP-10
p2316
aVAnalysis
p2317
aVreagent
p2318
aVthey
p2319
aVlifelong
p2320
aVSer-36
p2321
aVControl
p2322
aV-Ox
p2323
aVElucidation
p2324
aVoxygen
p2325
aVcoexpressing
p2326
aVgene-targeted
p2327
aV377
p2328
aVCCAAT/enhancer-binding
p2329
aVAutocrine
p2330
aVN-Ac-Leu-Leu-norleucinal
p2331
aVfactor-KB
p2332
aVseropositivity
p2333
aVLAMA-84
p2334
aVnetwork
p2335
aVeffector-to-target
p2336
aVCsA
p2337
aVGASd
p2338
aVdiamide
p2339
aVGlucocorticoids
p2340
aVmedicine
p2341
aVhelix-turn-helix
p2342
aVB-like
p2343
aVPrimers
p2344
aVCommittees
p2345
aVD5G6
p2346
aVbarrier
p2347
aVMolt-4
p2348
aVforskolin
p2349
aVIL-2Rbeta
p2350
aVNFkappaB-mediated
p2351
aVcreated
p2352
aVTAFII105
p2353
aVStable
p2354
aVloCD25
p2355
aVcreates
p2356
aVoppose
p2357
aVincorporated
p2358
aVco-migrating
p2359
aVCREB
p2360
aVRay-Gallet
p2361
aVbehaves
p2362
aVrender
p2363
aVCHO-DR
p2364
aVsystem
p2365
aVCell
p2366
aVemploying
p2367
aVActin
p2368
aVanother
p2369
aVimplicated
p2370
aVAIDS
p2371
aV11-base-pair
p2372
aVpathophysiological
p2373
aVsyncytium-forming
p2374
aVapproximately
p2375
aVatherosclerosis-promoting
p2376
aVblr1
p2377
aVrates
p2378
aVobservations
p2379
aVaminoguanidine
p2380
aVELISA
p2381
aVB
aVintestine
p2382
aVHS-40
p2383
aVenhancing
p2384
aVPriming
p2385
aV35,36
p2386
aVcorresponded
p2387
aVGene
p2388
aVEmploying
p2389
aVtarget
p2390
aVsurfactant
p2391
aVTUR
p2392
aVgp120
p2393
aVSex
p2394
aVbinds
p2395
aVEBV-negative
p2396
aVProteolytic
p2397
aViron
p2398
aVInitiation
p2399
aVSD-1
p2400
aVsolely
p2401
aVacetylsalicylate
p2402
aVLysoPC
p2403
aVmanner
p2404
aVInstead
p2405
aVphorbol-12-myristate-13-acetate
p2406
aVPDTC
p2407
aVre-exposure
p2408
aVforced
p2409
aVstrength
p2410
aVgenuine
p2411
aVtrans-dominant
p2412
aVDeath-inducing
p2413
aVconvenient
p2414
aVlatter
p2415
aVTHP-1
p2416
aVsubjects
p2417
aVcorrelating
p2418
aVmutants
p2419
aVpre-incubation
p2420
aVQp
p2421
aVviscosity
p2422
aVextending
p2423
aVoptimized
p2424
aVinvolving
p2425
aVquantitative
p2426
aVphase
p2427
aVassessed
p2428
aVcis-acting
p2429
aVautopsy
p2430
aVmanifested
p2431
aVpRb
p2432
aVincomplete
p2433
aVresponder
p2434
aVscavenging
p2435
aVLAZ3
p2436
aVaccounted
p2437
aVE1A
p2438
aVresponded
p2439
aVd.
p2440
aVbeta-chain
p2441
aV7.1
p2442
aVCD3/CD28
p2443
aVPAF
p2444
aVDCs
p2445
aVblotting
p2446
aVlatent
p2447
aVPdBU
p2448
aVvirus-mediated
p2449
aVelucidated
p2450
aVelectrophoresis
p2451
aVscreening
p2452
aVDCR
p2453
aVphosphatases-1
p2454
aVdo
p2455
aVfactor-IL6
p2456
aV-128
p2457
aVM47
p2458
aVdegradation
p2459
aVstimulations
p2460
aVassaying
p2461
aVLactobacilli
p2462
aVds
p2463
aVester-stimulated
p2464
aVrunt
p2465
aVKB-enhancer
p2466
aV26-kDa
p2467
aVeosinophil-derived
p2468
aVlabile
p2469
aVdifferentiation/maturation
p2470
aVIHC
p2471
aVimplication
p2472
aVexplanations
p2473
aVFunctionally
p2474
aVIL-2-alpha
p2475
aVPD-98059
p2476
aVGAPDH
p2477
aVobserved
p2478
aVdepends
p2479
aVcytoplasmic
p2480
aVdown-regulate
p2481
aVoptimum
p2482
aVtechniques
p2483
aVA-responsive
p2484
aVaway
p2485
aVRepeated
p2486
aVunable
p2487
aVcooperation
p2488
aVLPS-mediated
p2489
aVeosin
p2490
aVc-jun
p2491
aVwe
p2492
aVterms
p2493
aVFADD
p2494
aVprotein-TRE-DNA
p2495
aVdesensitization
p2496
aVPD098059
p2497
aVATGCAAAT
p2498
aVlinkage
p2499
aVessentially
p2500
aVSigma-Aldrich
p2501
aVCdk2
p2502
aVIFN-alpha-induced
p2503
aVsupplementation
p2504
aVETS
p2505
aVp120
p2506
aVInitial
p2507
aVcodon
p2508
aVmutations
p2509
aVLysophosphatidylethanolamine
p2510
aVGAS
p2511
aVMaximal
p2512
aVmobilization
p2513
aVTransient
p2514
aVwell-characterized
p2515
aVaffinity
p2516
aVfamilies
p2517
aVbioavailability
p2518
aVAP-1-binding
p2519
aVNADPH
p2520
aVcoherent
p2521
aVup-regulation
p2522
aVallele
p2523
aVLong-term
p2524
aVAnti-CD28
p2525
aVcytotoxic
p2526
aVinhibit
p2527
aVcross-talk
p2528
aVreciprocal
p2529
aVaim
p2530
aVC5a-induced
p2531
aVHLA-B27
p2532
aValkylation
p2533
aVproperty
p2534
aVcharacterizing
p2535
aVCross-linking
p2536
aVIkB
p2537
aVtissue
p2538
aV-ATF/CREB
p2539
aVc-Jun
p2540
aVconfirmed
p2541
aVperform
p2542
aVdemonstration
p2543
aVatopic
p2544
aVPan
p2545
aVplates
p2546
aVlithium
p2547
aVsulfoxide
p2548
aVindependent
p2549
aVwhole-cell
p2550
aVthalassemias
p2551
aVhand
p2552
aVB-cell-specific
p2553
aVY
aVMini
p2554
aVkept
p2555
aVwhereby
p2556
aVprotein-coupled
p2557
aVcytosins
p2558
aVbacterium
p2559
aVcompartments
p2560
aVleukocyte-derived
p2561
aVARDS
p2562
aVcontact
p2563
aVelongated
p2564
aVthe
p2565
aVgerm-line
p2566
aVcytosine
p2567
aVstringent
p2568
aVnon-HD
p2569
aVKaposi
p2570
aVGGAAs
p2571
aVthyroid
p2572
aVvisualization
p2573
aVLPS-mCD14
p2574
aVR-394
p2575
aVspread
p2576
aVS2
p2577
aVevidenced
p2578
aVplasma
p2579
aVS1
p2580
aVphotographed
p2581
aVCD28
p2582
aVinsensitive
p2583
aVCD23
p2584
aVCD21
p2585
aVCD20
p2586
aVCD26
p2587
aVCD25
p2588
aVfusion
p2589
aVfactor-dependent
p2590
aVZ-LLL-H-insensitive
p2591
aV2.3-kb
p2592
aVlymphoma
p2593
aVlck
p2594
aVGATA-4
p2595
aVN-Acetylcysteine
p2596
aVGATA-1
p2597
aVGATA-2
p2598
aVGATA-3
p2599
aVCertain
p2600
aV-derived
p2601
aVtemporally
p2602
aVDNase
p2603
aVimmunosuppressive
p2604
aVprotein-mediated
p2605
aVhoming
p2606
aV-460
p2607
aVStably
p2608
aVlineages
p2609
aVunnecessary
p2610
aVbeta-globin
p2611
aVPhosphotyrosine
p2612
aVlambda5
p2613
aV-Bio
p2614
aVdeposition
p2615
aVectopically
p2616
aV/
aVerythroid-specific
p2617
aVCHO-DR/B7
p2618
aVExternal
p2619
aVparticipation
p2620
aVIFN-alpha-inducible
p2621
aVSchool
p2622
aVH-chain
p2623
aVIL1-RA
p2624
aVelucidate
p2625
aVconfer
p2626
aVNF-E1
p2627
aVPropagation
p2628
aVmegakaryocyte-specific
p2629
aVRel/NF-kappa
p2630
aVsubstitution
p2631
aVAP-1-dependent
p2632
aVPharmacological
p2633
aVsite-directed
p2634
aVproperties
p2635
aVNF-GM2
p2636
aVBiophotometer
p2637
aVTcell
p2638
aVmonths
p2639
aVCBFalpha2
p2640
aVEpithelial
p2641
aVcis-element
p2642
aVdigestion
p2643
aVcostimulus
p2644
aVbound
p2645
aVrendering
p2646
aVmalignancies
p2647
aVdehydrogenase
p2648
aVgranulocytes
p2649
aVBcl-X
p2650
aVcausative
p2651
aVmutated
p2652
aVclinical
p2653
aVToremifene
p2654
aVway
p2655
aVwas
p2656
aVlowest
p2657
aVERK1
p2658
aVCD-40
p2659
aVERK2
p2660
aVencodes
p2661
aVlactones
p2662
aVB/rel
p2663
aVencoded
p2664
aVabsent
p2665
aVHTLV-I-encoded
p2666
aVISGs
p2667
aVmaximum
p2668
aV4.3-fold
p2669
aVcancers
p2670
aVreceptor-like
p2671
aVunusually
p2672
aVcycle-associated
p2673
aVCD16-induced
p2674
aVrenaturation
p2675
aVmicrolumat
p2676
aVevidence
p2677
aVconserved
p2678
aVBACKGROUND
p2679
aVacetate-inducible
p2680
aVmmol/L
p2681
aVphysical
p2682
aV170-fold
p2683
aVdying
p2684
aVbufalin-induced
p2685
aVExtending
p2686
aVtest
p2687
aVcalcineurin-dependent
p2688
aVLymphoma
p2689
aVextravasation
p2690
aVimmunoprecipitate
p2691
aVactivation-dependent
p2692
aVconcurrent
p2693
aV0.5-fold
p2694
aVDHEA
p2695
aVmitogen-activated
p2696
aVL-659
p2697
aVgoverned
p2698
aVAdherence-dependent
p2699
aVthrombogenesis
p2700
aVangiogenesis
p2701
aVATF1
p2702
aVblastocyst-derived
p2703
aVATF2
p2704
aVOxypurinol
p2705
aVswitched
p2706
aVglobal
p2707
aVX2BP
p2708
aVROIs
p2709
aVCLEO
p2710
aVBcl-3
p2711
aVuncoupling
p2712
aVcontributing
p2713
aVcertainly
p2714
aVhomocysteine
p2715
aVtheircapacity
p2716
aVzone
p2717
aVmacrophage-restricted
p2718
aVpermanently
p2719
aVmonocytes
p2720
aVT-lymphoid
p2721
aVZEBRA
p2722
aVdivision
p2723
aVprotective
p2724
aVToll-like
p2725
aV-interfering
p2726
aVdiminish
p2727
aVHsp60
p2728
aVnerve
p2729
aVrespiratory
p2730
aVFacility
p2731
aValtering
p2732
aVCLE0
p2733
aVknock-out
p2734
aVearly-response
p2735
aVp
aVgut
p2736
aVdependently
p2737
aVCML
p2738
aVthree-dimensional
p2739
aVPCR
p2740
aVrepetitive
p2741
aVAP3-L
p2742
aVCREB-induced
p2743
aVhigher-order
p2744
aVGC-dependent
p2745
aVPCL
p2746
aVCMV
p2747
aVsaturable
p2748
aVPCD
p2749
aVappear
p2750
aVMKP-1
p2751
aVE-cadherin
p2752
aVshares
p2753
aVNotably
p2754
aVsequential
p2755
aVhEpoR
p2756
aV-102
p2757
aVsupporting
p2758
aV-104
p2759
aVgenes
p2760
aVM22
p2761
aVmRNA
p2762
aVintrabodies
p2763
aVappears
p2764
aVchange
p2765
aVKruppel-related
p2766
aVheteromeric
p2767
aVPC4
p2768
aVusually
p2769
aVreagents
p2770
aVpathologies
p2771
aVplotted
p2772
aVpancreatitis
p2773
aVMM6
p2774
aV39-41
p2775
aVmarked
p2776
aVSuppressive
p2777
aVtranslational
p2778
aVmarker
p2779
aV-activity
p2780
aVinositol
p2781
aVlpr/lpr
p2782
aVlose
p2783
aVsubvert
p2784
aVselects
p2785
aVBSA
p2786
aVmarginally
p2787
aVencompassed
p2788
aVF
aVisoenzymes
p2789
aVRequired
p2790
aVenvelope
p2791
aVclue
p2792
aVSB203580
p2793
aVGlycation-dependent
p2794
aVinducer-mediated
p2795
aVradiotherapy
p2796
aVNF-AT-dependent
p2797
aVcap
p2798
aVatypical
p2799
aVfoci
p2800
aVlabeled
p2801
aVcan
p2802
aVSBE
p2803
aVprotects
p2804
aVtrans
p2805
aVstimulating
p2806
aVheart
p2807
aVShown
p2808
aVproteasome-dependent
p2809
aVERP
p2810
aVp105
p2811
aVmonoazide
p2812
aVSAF-like
p2813
aVp100
p2814
aVGGGACTTTCC
p2815
aVdistinguishable
p2816
aVserum
p2817
aVcDNA
p2818
aVERK
p2819
aVposttranscriptional
p2820
aVproductive
p2821
aVGH-N
p2822
aVmeans
p2823
aVAntioxidant-mediated
p2824
aVpositional
p2825
aVWhether
p2826
aVNRE-I
p2827
aVflank
p2828
aVpromoter-dependent
p2829
aV-Mediated
p2830
aVCell-specific
p2831
aVproduct
p2832
aVCREB/ATF
p2833
aVmutation/deletion
p2834
aVdampened
p2835
aVinvariably
p2836
aVresidues
p2837
aVCD40L
p2838
aVproduce
p2839
aVhost-derived
p2840
aVtyrosine-based
p2841
aVdrastic
p2842
aVcoagulate
p2843
aVnon-toxic
p2844
aV5.5
p2845
aVlocalize
p2846
aVIFN-induced
p2847
aVprovirus
p2848
aVtransfect
p2849
aVaccelerated
p2850
aVprogressively
p2851
aVNF-kappaBp65
p2852
aVhigher-affinity
p2853
aVINK4A
p2854
aVtypical
p2855
aVhGATA-2
p2856
aVapprox
p2857
aValbicans
p2858
aVunlabeled
p2859
aVpolyendocrinopathy
p2860
aVanti-atherogenic
p2861
aVindeed
p2862
aVH-hexahydro-1
p2863
aVmonocyte-specific
p2864
aVbrain
p2865
aVJak
p2866
aVRb
p2867
aVZXDA
p2868
aVstill
p2869
aVG-protein
p2870
aVproteases
p2871
aVcoreceptor
p2872
aVRV
p2873
aVretrovirally
p2874
aVtiters
p2875
aVforms
p2876
aVBS-II
p2877
aVRA
p2878
aV2400
p2879
aVRI
p2880
aVcorrespondence
p2881
aV.10
p2882
aVestrogenic
p2883
aVR1
p2884
aVGzmb
p2885
aVR3
p2886
aVDiminished
p2887
aVtails
p2888
aVidentically
p2889
aVnot
p2890
aVmetabolite
p2891
aVnow
p2892
aVprovision
p2893
aVdensities
p2894
aVlineage
p2895
aVsusceptibility
p2896
aVinversion
p2897
aVGzmB
p2898
aVFew
p2899
aVdrop
p2900
aVSTAT-related
p2901
aVTRAIL
p2902
aVAU-motif-directed
p2903
aVh
aVentirely
p2904
aVStructural
p2905
aV-1068
p2906
aVsteroid-thyroid
p2907
aVdomain
p2908
aVhemopoiesis
p2909
aVsignificantly
p2910
aVcoactivators
p2911
aVchallenged
p2912
aVeg
p2913
aVtranslocate
p2914
aVdirecting
p2915
aVLPS/IFN-gamma
p2916
aVcytokine
p2917
aVshown
p2918
aVaccomplish
p2919
aVEBP-1
p2920
aVlysoPC
p2921
aVincrease
p2922
aVreceiving
p2923
aVshows
p2924
aVinevitably
p2925
aVtumor-derived
p2926
aVRenal
p2927
aVdivergence
p2928
aV17beta-HSD
p2929
aVRNA-packaging
p2930
aVoligonucleotide
p2931
aVrlu
p2932
aVrearrangements
p2933
aVcycles
p2934
aVdeprivation
p2935
aVtransition
p2936
aVMMTV
p2937
aVpaxillin
p2938
aVtrans-activators
p2939
aVpromotion
p2940
aV515
p2941
aVenteropathy
p2942
aVlambda
p2943
aVEven
p2944
aVthymus
p2945
aVstimuli-specific
p2946
aVTEC
p2947
aVtonically
p2948
aVstriking
p2949
aVomitted
p2950
aVThere
p2951
aVcomprised
p2952
aVcytoplasmic/nuclear
p2953
aVDnase
p2954
aVdirectly
p2955
aVmessage
p2956
aVsize
p2957
aVsilent
p2958
aVTargeted
p2959
aVdehydroascorbate
p2960
aVAnalyses
p2961
aVResponse
p2962
aVsite-dependent
p2963
aVmostly
p2964
aVthat
p2965
aVcostimulation
p2966
aV156.7
p2967
aV14-16
p2968
aVeliminated
p2969
aVcalcium-modulator
p2970
aVchymotryptic
p2971
aVZEB
p2972
aVrecruit
p2973
aVproto-oncogenes
p2974
aVenhancer-dependent
p2975
aVBtk
p2976
aVPhospho-Stat3
p2977
aVremained
p2978
aVcorrection
p2979
aVcis-elements
p2980
aVcrossover
p2981
aVabnormalities
p2982
aVclonogenic
p2983
aVheterozygotes
p2984
aVGenBank
p2985
aVonline
p2986
aVimpairment
p2987
aVdeterioration
p2988
aVproteolytically
p2989
aVanalyse
p2990
aVcentrifugation
p2991
aVGM3
p2992
aV]
aVBeta-actin
p2993
aVgamma-2
p2994
aVgamma-1
p2995
aVrenal
p2996
aVposttranslational
p2997
aVPlatelet-activating
p2998
aVimplications
p2999
aVCOX-2
p3000
aVanti-Fos
p3001
aV-allophycocyanin
p3002
aVprofessional
p3003
aVdispersed
p3004
aVduplication
p3005
aVtypically
p3006
aVdiffusible
p3007
aVnucleoplasmic
p3008
aVdiscovered
p3009
aVNH2Cl
p3010
aVtuberous
p3011
aVratio
p3012
aVstained
p3013
aVproportion
p3014
aVIL-4
p3015
aVHSP
p3016
aVthreefold
p3017
aVtyrphostin
p3018
aVstain
p3019
aVp40tax
p3020
aVleukocyte-specific
p3021
aVreplicative
p3022
aVfour-subunit
p3023
aVarachidonic
p3024
aVmembrane
p3025
aVesterification
p3026
aVIL-1
p3027
aVHS2
p3028
aVgp160
p3029
aVIARC
p3030
aVmucosa
p3031
aVinvariant
p3032
aVdifferentiating
p3033
aVglutathione
p3034
aVvaginalis
p3035
aVligand-binding
p3036
aVmonocyte-derived
p3037
aVDopamine
p3038
aVPBL-T
p3039
aVpituitary
p3040
aVSOCS-1
p3041
aVirradiation
p3042
aVEMA
p3043
aVconcert
p3044
aVburst
p3045
aVphysically
p3046
aVAccumulating
p3047
aVnamely
p3048
aVactively
p3049
aVRGD
p3050
aVpore-forming
p3051
aVEMS
p3052
aVTolerance
p3053
aVE47
p3054
aVNFeB
p3055
aVB/MAD
p3056
aVmimicry
p3057
aVLDL
p3058
aV3
aVMembers
p3059
aVimport
p3060
aVliver-enriched
p3061
aVtherapies
p3062
aVTarget
p3063
aVAgonist
p3064
aVArnt
p3065
aV-91
p3066
aV-90
p3067
aV-92
p3068
aV-95
p3069
aV-97
p3070
aV-96
p3071
aVp15INK4b
p3072
aVarticle
p3073
aVresides
p3074
aVAP1-dependent
p3075
aVp56lck
p3076
aVBob1
p3077
aVnearby
p3078
aVNF-AT-like
p3079
aVcharacterization
p3080
aV-345
p3081
aVhybrids
p3082
aVstimuli-induced
p3083
aVmoreover
p3084
aVGTP-binding
p3085
aVamino
p3086
aVsynergize
p3087
aVoligodeoxynucleotide
p3088
aVCTF
p3089
aVCepsilon
p3090
aVphosphorylation-defective
p3091
aVmarkedly
p3092
aVcyclins
p3093
aVhelper-induced
p3094
aVinterleukin-3
p3095
aVkinases
p3096
aV158
p3097
aVN-ethylmaleimide
p3098
aVsystems
p3099
aVCR2
p3100
aV-140
p3101
aVCR3
p3102
aValiquot
p3103
aVdiffered
p3104
aVSupershift
p3105
aVTR2RE-SV40
p3106
aVBiosystems
p3107
aVCO2
p3108
aV4-6
p3109
aV4-8
p3110
aV/NF-kappaB
p3111
aVc-erbA/TR
p3112
aVsyndromes
p3113
aVIL6
p3114
aVIL4
p3115
aVIL5
p3116
aVIL2
p3117
aVPerformed
p3118
aVSelenium-mediated
p3119
aVAbnormalities
p3120
aVIL9
p3121
aVorientation
p3122
aVtopoisomerase
p3123
aVmicroarrays
p3124
aVAIM
p3125
aVbias
p3126
aVattributed
p3127
aVspleens
p3128
aVupregulation
p3129
aVcytokine-receptor
p3130
aVdevelop
p3131
aVComplete
p3132
aVmedia
p3133
aVSterol
p3134
aVglucose-stimulated
p3135
aVdocument
p3136
aVheat-activated
p3137
aVinvestigated
p3138
aVintegrin-mediated
p3139
aVfoam
p3140
aV5-aza-2-deoxycytidine
p3141
aVvalidate
p3142
aVchemoattractants
p3143
aVbox-dependent
p3144
aVHIV-inductive
p3145
aV-CD8
p3146
aVtraps
p3147
aVconstitutional
p3148
aVanti-C/EBPdelta
p3149
aVsevere
p3150
aVchemotaxis
p3151
aVcoordinate
p3152
aVS727
p3153
aVdifferentiation-dependent
p3154
aVedema
p3155
aV-positve
p3156
aVRel/NF-kappaB-dependent
p3157
aVcell-cycle
p3158
aVExamination
p3159
aVdeacetylation
p3160
aVribosomal
p3161
aVMolecular
p3162
aVhomeostasis
p3163
aV24,50,51
p3164
aVdeath
p3165
aVangiotensin
p3166
aVInteractions
p3167
aVDSMZ
p3168
aVimprovement
p3169
aVTLRs
p3170
aVtreatment
p3171
aVversa
p3172
aVenhancerless
p3173
aVinstructions
p3174
aV571
p3175
aV75
p3176
aVcell-associated
p3177
aVread
p3178
aVspecimen
p3179
aVacetaminophen
p3180
aVearly
p3181
aVHetherington
p3182
aVNF-AT-binding
p3183
aVusing
p3184
aVNuclei
p3185
aVNF-Y
p3186
aVTLR2
p3187
aVbenefit
p3188
aVt
aVTLR4
p3189
aVdilution
p3190
aVflow-induced
p3191
aValbuminuria
p3192
aVexposed
p3193
aVpervanadate
p3194
aVnucleic
p3195
aVtransfections
p3196
aVanthracycline-induced
p3197
aVduration
p3198
aV's
p3199
aVviral
p3200
aVlysophospholipid
p3201
aVhyperadhesivity
p3202
aVEarlier
p3203
aVhepatitis
p3204
aVTFE3
p3205
aVB-cells
p3206
aVTruncation
p3207
aVassembly
p3208
aVsnRNA
p3209
aVequivalent
p3210
aVsedimentation
p3211
aVmonocyte/macrophage-specific
p3212
aVcomplementation
p3213
aVsrc
p3214
aVcentral
p3215
aVenzymatic
p3216
aVMG-132
p3217
aVdelimitation
p3218
aVanti-IgM
p3219
aVgreatly
p3220
aVhyperactivation
p3221
aVantibody
p3222
aVprotease
p3223
aVinclusion
p3224
aVhomodimer
p3225
aVposttranscriptionally
p3226
aVinvolvement
p3227
aVL243
p3228
aVheated
p3229
aVoperator
p3230
aVAzaC
p3231
aVhyperglycemia
p3232
aVFcR-dependent
p3233
aVintervention
p3234
aVTAL-1
p3235
aVarea
p3236
aVfNF-E2
p3237
aVremoving
p3238
aVstart
p3239
aVbromide
p3240
aVc-rel
p3241
aVlow
p3242
aVsystem-derived
p3243
aVtransient-transfection
p3244
aVSHP2
p3245
aVirreversibly
p3246
aVAd2
p3247
aV2D3
p3248
aVJ
aVdelayed
p3249
aVkappaB-mutated
p3250
aVindicators
p3251
aVcirculation
p3252
aVquantitatively
p3253
aVantiseras
p3254
aVskews
p3255
aVtype-I
p3256
aV15-fold
p3257
aVfusions
p3258
aV-PerCP
p3259
aVdescribe
p3260
aVsignal-mediating
p3261
aVELAM
p3262
aVgradients
p3263
aVAR/TR2/AR
p3264
aVlyso-phospholipids
p3265
aVinactivation
p3266
aVSurvival
p3267
aVstorage
p3268
aVLac
p3269
aVproductively
p3270
aVHIV-LTR-kappaB
p3271
aVterminating
p3272
aVintronic
p3273
aVpoor
p3274
aVgermline
p3275
aVBRLF1
p3276
aVnoncoding
p3277
aV-Ig
p3278
aVpeak
p3279
aVelastase
p3280
aVconferred
p3281
aVNotch
p3282
aVpool
p3283
aVcondensation
p3284
aVinsertions
p3285
aVmAbs
p3286
aV-103
p3287
aVJak2
p3288
aVrestored
p3289
aVtype-1
p3290
aVsignalling
p3291
aVtype-2
p3292
aVorientation-specific
p3293
aV4-fold
p3294
aV-mediated
p3295
aVRel-B
p3296
aVpretreatment
p3297
aVbenzene-induced
p3298
aVRetroviruses
p3299
aVchain-breaking
p3300
aVthymus-dependent
p3301
aVnodes
p3302
aV1pk
p3303
aVtransducers
p3304
aVvery
p3305
aVapoptosis
p3306
aVExosurf
p3307
aVimmunotoxicity
p3308
aVmarrow-derived
p3309
aVHIV-induced
p3310
aVTranscriptional
p3311
aVdeficient
p3312
aVissue
p3313
aV-7
p3314
aV-6
p3315
aV-1
p3316
aV-3
p3317
aV-2
p3318
aVinversions
p3319
aV-9
p3320
aV-8
p3321
aV12-O-tetradecanoylphorbol-13-acetate
p3322
aV-Max
p3323
aVNF-CLE0
p3324
aVTSC
p3325
aVChicken
p3326
aVenhancement
p3327
aVattributable
p3328
aVTSS
p3329
aVcanonical
p3330
aVabundant
p3331
aVcues
p3332
aVK562
p3333
aVrecruits
p3334
aVmodify
p3335
aVTATA-less
p3336
aVselective
p3337
aVcompartmentalization
p3338
aVexcess
p3339
aVstrong
p3340
aVtranscription-enhancing
p3341
aVcell-surface
p3342
aVahead
p3343
aVskewing
p3344
aVoutgrowth
p3345
aVRaf-1
p3346
aVreason
p3347
aVamount
p3348
aVB-1a
p3349
aVB-1b
p3350
aVsealing
p3351
aVmonocytes/macrophages
p3352
aVgliotoxin
p3353
aVhemin
p3354
aVgranulocyte
p3355
aVfamily
p3356
aVmediator
p3357
aVrequiring
p3358
aVIonomycin
p3359
aVS6
p3360
aVBcl-x
p3361
aVconventional
p3362
aVFCS
p3363
aVtakes
p3364
aV0
aVCD28RC
p3365
aVcontains
p3366
aVcells-family
p3367
aValmost
p3368
aVmonocytic
p3369
aVtaken
p3370
aVinjury
p3371
aVFCM
p3372
aVcyclin/cdks
p3373
aVARE-containing
p3374
aVconformational
p3375
aVgp39
p3376
aVSp
p3377
aVp75TNF-R
p3378
aVE2F-1
p3379
aVsurprisingly
p3380
aVlipoprotein
p3381
aVmicrobicidal
p3382
aVLEF1
p3383
aVBcl-2
p3384
aVproducing
p3385
aV19-bp
p3386
aVProtease
p3387
aVSS
p3388
aVSP
p3389
aVproapoptotic
p3390
aVhydroxytoluene
p3391
aVnine
p3392
aVstructure-based
p3393
aVdepleting
p3394
aVspontaneous
p3395
aVhistory
p3396
aVions
p3397
aVGRE-specific
p3398
aV/NFATp
p3399
aVIBD
p3400
aVCAT
p3401
aVCAK
p3402
aVinfectivity
p3403
aV-like
p3404
aVlacks
p3405
aVspecies
p3406
aVfirmly
p3407
aV1053
p3408
aVTGF-beta-inducible
p3409
aVpermissive
p3410
aVcross-reacts
p3411
aVligand-independent
p3412
aVsuperactivation
p3413
aVELAM-1
p3414
aVPartitioning
p3415
aVSpi-B
p3416
aVprognostic
p3417
aVderived
p3418
aVlong
p3419
aVinvasion
p3420
aVglycation-induced
p3421
aVa
aVTransactivation
p3422
aVpreferential
p3423
aVenzymes
p3424
aVanytime
p3425
aV3-fold
p3426
aVnegligible
p3427
aVUDG
p3428
aValpha-dihydrotestosterone
p3429
aV2-reverse
p3430
aVIL-8
p3431
aVIL-9
p3432
aVreservoir
p3433
aVhierarchy
p3434
aVIL-5
p3435
aVIL-6
p3436
aVIL-7
p3437
aVsoon
p3438
aVIL-2
p3439
aVIL-3
p3440
aVAdhesion
p3441
aVthermal
p3442
aVcommitted
p3443
aVMIP
p3444
aVkinetic
p3445
aVIL-17a
p3446
aVlipopolysaccharide/interferon-gamma
p3447
aVVpr
p3448
aVselenium
p3449
aV-146
p3450
aVabsence
p3451
aV-145
p3452
aVdisclosed
p3453
aVcyclin-dependent
p3454
aV-141
p3455
aVWP-34
p3456
aVPancreatic
p3457
aV11alpha,13-dihydrohelenalin
p3458
aVtranscribing
p3459
aV49,70
p3460
aVhirudin
p3461
aVAM580
p3462
aVnon-T-cells
p3463
aVfully
p3464
aVcapability
p3465
aVRecruitment
p3466
aVImmunodepletion
p3467
aVmouse
p3468
aVtar-independent
p3469
aVreferred
p3470
aVheavy
p3471
aVtranscribe
p3472
aVSpi-1
p3473
aVundetectable
p3474
aVDistinctive
p3475
aVAML1/PEBP2
p3476
aVpositioned
p3477
aVKinase
p3478
aVevent
p3479
aVinactivates
p3480
aVFcepsilonRIIb
p3481
aVsince
p3482
aVviability
p3483
aVHelenalin
p3484
aVRel-A
p3485
aVsustain
p3486
aV7
aV5C
p3487
aVGSK3
p3488
aVCanventol
p3489
aVNone
p3490
aVcaspase
p3491
aVanti-apoptotic
p3492
aVbase
p3493
aVask
p3494
aVnon-specific
p3495
aVearliest
p3496
aVhomologous
p3497
aVreceptor-alpha
p3498
aVpersists
p3499
aVAccession
p3500
aVHypermethylation
p3501
aVThymocyte-thymic
p3502
aVETS-domain
p3503
aVBFU-E
p3504
aVundergo
p3505
aVfivefold
p3506
aVencoding
p3507
aVAP-1
p3508
aVAP-2
p3509
aVreflected
p3510
aVTRAMP
p3511
aVincubated
p3512
aVpyrrolidinedithiocarbamate
p3513
aVperturbation
p3514
aVcationic
p3515
aVHUAECs
p3516
aVanti-TNF-alpha
p3517
aVbelongs
p3518
aVRA-resistant
p3519
aVdiabetes
p3520
aVM.
p3521
aVproteolysis-resistant
p3522
aVB-DNA
p3523
aVantitumor
p3524
aVmeasurable
p3525
aVbasal
p3526
aVPKC-independent
p3527
aVsignaling
p3528
aVauthors
p3529
aVtranslation
p3530
aV35-38
p3531
aVATGCAAAG-3
p3532
aVautoregulatory
p3533
aVjagged1
p3534
aVFK506-mediated
p3535
aVGPIIb
p3536
aVlysate
p3537
aV-independent
p3538
aVPositive-pressure
p3539
aVDistinct
p3540
aVPhoPc
p3541
aVTh2
p3542
aVTh1
p3543
aVTh0
p3544
aVRegions
p3545
aVincrementally
p3546
aVRag1
p3547
aVconcentration
p3548
aVorgans
p3549
aVPercentage
p3550
aVChallenges
p3551
aVconstructions
p3552
aVmonophosphate
p3553
aVpotentiated
p3554
aVsubtype
p3555
aVdefensin
p3556
aVD1/CDR2-loop
p3557
aVETS1
p3558
aVon-going
p3559
aVstoichiometry
p3560
aVrhu
p3561
aVstress-induced
p3562
aVAJ507799
p3563
aVcomparisons
p3564
aValpha
p3565
aVThe
p3566
aVapproved
p3567
aVaberrations
p3568
aVNF-ATc/p
p3569
aVmuscle
p3570
aVclear
p3571
aVphytohemagglutinin
p3572
aVnonspecific
p3573
aV/AP
p3574
aVCCGCCC
p3575
aVNF-KB-related
p3576
aVphenomenon
p3577
aVhalf-maximal
p3578
aVthymocytes
p3579
aVAGATAA
p3580
aVionomycin-induced
p3581
aVTCR-mediated
p3582
aVparameters
p3583
aVSimilarly
p3584
aVtoll-like
p3585
aVECS-dependent
p3586
aVLck
p3587
aVdominant
p3588
aVFITC
p3589
aVglioblastoma
p3590
aVimmunoassays
p3591
aVWhile
p3592
aV-559
p3593
aVcompeting
p3594
aVcombinations
p3595
aVduring
p3596
aVsixfold
p3597
aVSox4
p3598
aV-552
p3599
aVgels
p3600
aVIfngamma
p3601
aVtransgenic
p3602
aVCT99021
p3603
aVstored
p3604
aVERK1/2
p3605
aVx
aVoverstimulation
p3606
aVrBPI21
p3607
aVundergoes
p3608
aVnitrocellulose
p3609
aVculture
p3610
aVaims
p3611
aVmediators
p3612
aVclose
p3613
aVprecursors
p3614
aVpolymorphic
p3615
aVconstellation
p3616
aVDeletions
p3617
aVRescue
p3618
aVJUN
p3619
aVpotently
p3620
aVglutamine-rich
p3621
aVnoncleavable
p3622
aVcysteine
p3623
aVconditions
p3624
aV/RelB
p3625
aVmissing
p3626
aVadenoviruses
p3627
aVzipper
p3628
aVboth
p3629
aVsensitive
p3630
aVhistamine
p3631
aVexperimental
p3632
aVlymphoid-restricted
p3633
aVdeoxidizing
p3634
aVCTLA4Ig
p3635
aVDiscussion
p3636
aVCoexpression
p3637
aVscurfy
p3638
aVhomogeneously
p3639
aVTMD
p3640
aVguanine
p3641
aVatopy
p3642
aVdescribed
p3643
aVActivation-dependent
p3644
aVarrest
p3645
aVAntisera
p3646
aVenhancer-binding
p3647
aVMost
p3648
aVsyncytia
p3649
aVEcoRI
p3650
aVmaintenance
p3651
aVkinase-STAT
p3652
aVempty
p3653
aVpartly
p3654
aVPMA-stimulated
p3655
aVN
aVgamma-positive
p3656
aVdetermination
p3657
aVcompromised
p3658
aVmonokine
p3659
aVcytoskeleton-binding
p3660
aVA20
p3661
aVmegakaryocytopoiesis
p3662
aVMembranes
p3663
aVofIL-10
p3664
aVwhile
p3665
aVsubstantial
p3666
aVFigure2F
p3667
aVFigure2D
p3668
aVFigure2E
p3669
aVguide
p3670
aVloop
p3671
aVFigure2A
p3672
aVstudied
p3673
aVFurthermore
p3674
aVherein
p3675
aVposition-dependent
p3676
aV4.5-kilobase
p3677
aVfull-length
p3678
aVready
p3679
aVsimian
p3680
aVchemoattractant
p3681
aVLPS-responsive
p3682
aVRemixing
p3683
aVbaseline
p3684
aVHalf-maximal
p3685
aVT-lymphocyte
p3686
aVSwitching
p3687
aVFAK
p3688
aVhybridoma
p3689
aVmodification
p3690
aVcomposition
p3691
aVfkhrl1
p3692
aVFos-related
p3693
aVcarboxylesterase
p3694
aVused
p3695
aVStat3alpha
p3696
aVferritin
p3697
aVuses
p3698
aVleukocyte
p3699
aVfactor-alpha
p3700
aVcrux
p3701
aVevasion
p3702
aVisotype
p3703
aVunderlies
p3704
aVmyeloma
p3705
aVCoCl2-induced
p3706
aVId-3L
p3707
aVPKC-zeta
p3708
aVTAFII
p3709
aVexploits
p3710
aVanergy
p3711
aVreviewed
p3712
aVeffector
p3713
aVIg-mediated
p3714
aVCCK
p3715
aVlower-affinity
p3716
aVbloods
p3717
aVOctamer-dependent
p3718
aVNFATp
p3719
aVpotentiates
p3720
aVcostimulatory
p3721
aVPIF
p3722
aVNFATd
p3723
aVsecosterol
p3724
aVNFATc
p3725
aV/platelet-derived
p3726
aVtransformation
p3727
aVvaginosis
p3728
aVlacking
p3729
aVshowing
p3730
aVgenetically
p3731
aVlow-mobility
p3732
aVp14ARF
p3733
aVB/CD28
p3734
aVNFAT4
p3735
aVNFAT1
p3736
aVNFAT2
p3737
aVNFAT3
p3738
aVPreviously
p3739
aVstimulatory
p3740
aVbHLH-hsp90
p3741
aVimmunization
p3742
aV-306
p3743
aVtranslated
p3744
aVGlucocorticoid-mediated
p3745
aVkinase-3beta
p3746
aVLittle
p3747
aVsome
p3748
aVelement-binding
p3749
aVAMs
p3750
aVProliferation
p3751
aVAML
p3752
aVexceeding
p3753
aVconditionally
p3754
aVcalmodulin-dependent
p3755
aVMassachusetts
p3756
aVLPS-induced
p3757
aVAMP
p3758
aVminimal
p3759
aV/p300
p3760
aVheterodimerizes
p3761
aVN-formyl-methionine-leucine-phenyl-alanine
p3762
aVprocessing
p3763
aV25,26,28
p3764
aVstem
p3765
aVstep
p3766
aVendotoxin-stimulated
p3767
aVplots
p3768
aV2/3
p3769
aV2/5
p3770
aVDU528
p3771
aVprove
p3772
aV1,9-dideoxy
p3773
aVkDa
p3774
aVsimulation
p3775
aVneonates
p3776
aVTFIID
p3777
aVTFIIH
p3778
aVtherapeutic
p3779
aVCell-type-specific
p3780
aVsilence
p3781
aVpost-transcriptional
p3782
aVbeta-cell
p3783
aVwithin
p3784
aVensue
p3785
aVphosphorImager
p3786
aVTheir
p3787
aVtightly
p3788
aVPeroxisome
p3789
aVTHP-1-hGH-transfected
p3790
aVIL-12-dependent
p3791
aVinnate
p3792
aVrenewal
p3793
aVRBC
p3794
aVpurine-rich
p3795
aVTPA-dependent
p3796
aVthrombomodulin
p3797
aV.1
p3798
aV.2
p3799
aV.3
p3800
aVproperly
p3801
aVsegregation
p3802
aVSwitzerland
p3803
aVinjection
p3804
aVD-ribose
p3805
aVhybridized
p3806
aVRunx3
p3807
aVtransmits
p3808
aV/Epo-R
p3809
aVleukemogenesis
p3810
aVIgE/allergen
p3811
aVheterogeneous
p3812
aVelectrophoretic
p3813
aVsimilar
p3814
aVInterleukin
p3815
aVLFA-3
p3816
aVcomprise
p3817
aVordered
p3818
aVadults
p3819
aVIKKbeta
p3820
aVaccessibility
p3821
aVHPRT
p3822
aVmitogen-induced
p3823
aVTh
p3824
aVkidney
p3825
aVacid-induced
p3826
aVREF-1
p3827
aVIKKalpha
p3828
aVIFN-alpha
p3829
aVamounts
p3830
aVoncoprotein
p3831
aVhalf-sites
p3832
aVTS
p3833
aVA.
p3834
aVA1
p3835
aVapplication
p3836
aVA2
p3837
aVTK
p3838
aVTH
p3839
aVTF
p3840
aVTG
p3841
aVAC
p3842
aVapparent
p3843
aVnonactivated
p3844
aVT7
p3845
aVG-protein-coupled
p3846
aV8,34
p3847
aVcostimulated
p3848
aVAP
p3849
aVAR
p3850
aVAT
p3851
aVstructure
p3852
aVISRE
p3853
aV/alpha-globin
p3854
aVantecedent
p3855
aVindependently
p3856
aVAb
p3857
aVAg
p3858
aVAh
p3859
aVrequired
p3860
aVAn
p3861
aVAs
p3862
aVzidovudine
p3863
aVcorrelates
p3864
aVAt
p3865
aVredundantly
p3866
aVrequires
p3867
aVavoid
p3868
aVSLP-76
p3869
aVlactosylceramide
p3870
aVTCR-dependent
p3871
aVStrikingly
p3872
aVtriciribine
p3873
aVTrinchieri
p3874
aVLymphocytes
p3875
aVSp1
p3876
aVSp3
p3877
aVkappa3
p3878
aVexcluded
p3879
aVNot
p3880
aVNov
p3881
aVNor
p3882
aVC-dependent
p3883
aVmuE3
p3884
aVwave
p3885
aV-secreting
p3886
aVcellular
p3887
aVAcquisition
p3888
aVhelix-loop-helix
p3889
aVpositions
p3890
aVmisfolding
p3891
aVLITAF
p3892
aVcyclosporine
p3893
aVReconstitution
p3894
aVSpl
p3895
aVglycosylphosphatidylinositol-linked
p3896
aVcompensated
p3897
aVATF-1
p3898
aVglycoproteins
p3899
aVbeta-actin
p3900
aVNFAT-dependent
p3901
aVD.-E
p3902
aVoverexuberant
p3903
aVBriefly
p3904
aVplays
p3905
aVAGGC
p3906
aVcalcineurin-regulated
p3907
aVexacerbate
p3908
aVcell
p3909
aVheterodimer
p3910
aVpituitary-specific
p3911
aVcyclooxygenase-2
p3912
aVphosphatidylinositol-4-phosphate
p3913
aVAhR
p3914
aVradicals
p3915
aVGreen
p3916
aVligand-activated
p3917
aVheterodimerizing
p3918
aVC-zeta
p3919
aVLikewise
p3920
aValpha-lipoate
p3921
aVpreferentially
p3922
aVproducts
p3923
aVconstitutive
p3924
aVgene
p3925
aVexamining
p3926
aVstabilization
p3927
aVBelkaid
p3928
aVmanage
p3929
aV4.75
p3930
aVframe
p3931
aVcepharanthine
p3932
aVanti-CD3-induced
p3933
aVglucocorticoid-mediated
p3934
aVremains
p3935
aVCIITA
p3936
aVPG490
p3937
aVfactor-AT
p3938
aVvehicle
p3939
aVhiding
p3940
aVsplenocytes
p3941
aVreflects
p3942
aVfiltrates
p3943
aV1/3
p3944
aVkaryopherin
p3945
aVstarted
p3946
aVbecomes
p3947
aVISG15-LTR-IFN
p3948
aV1/8
p3949
aVaNF-E2
p3950
aVWindhagen
p3951
aVp16INK4a
p3952
aVhomeobox
p3953
aVsynthesis-dependent
p3954
aVcryptococcosis
p3955
aVcoligation
p3956
aVinhibitor
p3957
aV/nur77
p3958
aVcontrol
p3959
aVlinks
p3960
aVescaped
p3961
aVdefective
p3962
aVdigested
p3963
aVgenomes
p3964
aVlocated
p3965
aVperoxisome
p3966
aVself-perpetuating
p3967
aValpha-chain
p3968
aVOligonucleotides
p3969
aVSpecific
p3970
aVFigures
p3971
aVloss-of-function
p3972
aVascorbate
p3973
aV12-16
p3974
aVsubfamilies
p3975
aVFigure4F
p3976
aVX-ray-treated
p3977
aVsoftware
p3978
aVbipartite
p3979
aV0.58-fold
p3980
aVGonzalez
p3981
aVleast
p3982
aVfacilitated
p3983
aVdifferentiation-inducing
p3984
aVintermediates
p3985
aVincluding
p3986
aVgender-specific
p3987
aVconverting
p3988
aVfacilitates
p3989
aVRAG
p3990
aVRecently
p3991
aVexclusion
p3992
aVtemporal
p3993
aVRAR
p3994
aVK-562
p3995
aVFGF
p3996
aVimbalance
p3997
aVNFAT-1
p3998
aVc-Raf-1
p3999
aVfunctional
p4000
aVexhibiting
p4001
aVp16
p4002
aVBasophils
p4003
aVdocumented
p4004
aVneoformans
p4005
aVmagnitude
p4006
aVmode
p4007
aVpools
p4008
aVcytogenetic
p4009
aVglobi
p4010
aValteration
p4011
aVconstitute
p4012
aValpha-subunit
p4013
aVmeasure
p4014
aVIFN
p4015
aVcorticosteroids
p4016
aVPan-1
p4017
aVspecial
p4018
aVCEM
p4019
aVConstructs
p4020
aVJ.
p4021
aV/Stat6
p4022
aVPKB
p4023
aVPKC
p4024
aVPKA
p4025
aVsingle-copy
p4026
aVMycoplasma
p4027
aVcause
p4028
aVBHRF1
p4029
aVdose-dependently
p4030
aVreacts
p4031
aVprecipitable
p4032
aVcompletely
p4033
aVOct1
p4034
aVerythroleukemias
p4035
aVbisulfite-treated
p4036
aVdetermining
p4037
aVHistamine
p4038
aVdiminished
p4039
aVtimes
p4040
aVcounterpart
p4041
aVLAMPf
p4042
aVGGAACCTCCCCC-3
p4043
aVpowerful
p4044
aVimproving
p4045
aVDeletion
p4046
aVmanagement
p4047
aVrevealed
p4048
aVdurable
p4049
aVoccupancy
p4050
aV-180
p4051
aVperfectly
p4052
aV-186
p4053
aVfinal
p4054
aVpathogen
p4055
aVprone
p4056
aV2-3
p4057
aVIL-2Ralpha
p4058
aVgoiter
p4059
aVrsk
p4060
aVcrucially
p4061
aVchemicals
p4062
aVR
aVNF-kappaB
p4063
aVmanifestation
p4064
aVsynergistic
p4065
aVmorbidity
p4066
aVPEBP2/CBF
p4067
aVcorrelate
p4068
aVdistinguishes
p4069
aVsubmitted
p4070
aV59,60
p4071
aV/p50
p4072
aVcell-restricted
p4073
aVproviding
p4074
aVdistinguished
p4075
aVkinase-3
p4076
aVexhibit
p4077
aVgene-proximal
p4078
aVunchanged
p4079
aVfibrogenesis
p4080
aVpFA-CMV
p4081
aVOther
p4082
aVvariable
p4083
aVDelayed
p4084
aVneed
p4085
aVEBNA2
p4086
aVTAR-independent
p4087
aVNeither
p4088
aVDevelopment
p4089
aV/p65
p4090
aVable
p4091
aVMEK2
p4092
aVMEK1
p4093
aVpivotal
p4094
aV2.5
p4095
aVMEK5
p4096
aV31-8425
p4097
aVNF-ATc
p4098
aV0/1
p4099
aVPRRI
p4100
aVsite-specific
p4101
aVconnected
p4102
aVbut
p4103
aVcounterbalance
p4104
aVNF-ATp
p4105
aVintrinsic
p4106
aVevolutionarily
p4107
aVconsequences
p4108
aVspleen
p4109
aV-regulated
p4110
aVscrambled
p4111
aVGrowth
p4112
aVhematopoietic
p4113
aVisotypes
p4114
aVKBF1
p4115
aVB-inducing
p4116
aVOct-DNA
p4117
aVnonidentical
p4118
aVperoxidation
p4119
aVpp90rsk
p4120
aVNFAT-driven
p4121
aVhigh-level
p4122
aVNGFI-B
p4123
aVNGFI-A
p4124
aVpartners
p4125
aVbased
p4126
aVApoptosis
p4127
aViHIV-1
p4128
aVreceptors
p4129
aVreactive
p4130
aVbases
p4131
aVequivalents
p4132
aVemployed
p4133
aVachieve
p4134
aVadherent
p4135
aVG2/M-phase
p4136
aVoverall
p4137
aVnonpituitary
p4138
aVjoint
p4139
aVOn
p4140
aVprobably
p4141
aVvascular-specific
p4142
aVyears
p4143
aVCD8-Nef
p4144
aVeosinophil-specific
p4145
aVJun-D
p4146
aVprocesses
p4147
aVCD3-T-cell
p4148
aVJun-B
p4149
aVcell-permeable
p4150
aVcontain
p4151
aVProtein
p4152
aVembryonic
p4153
aVCpG-rich
p4154
aVOFT-2
p4155
aVOFT-1
p4156
aVpromoter-specific
p4157
aVhumans
p4158
aVusefulness
p4159
aVEpoR
p4160
aVLipopolysaccharide-induced
p4161
aVharvested
p4162
aVTriplex
p4163
aVstate
p4164
aVB-related
p4165
aVcorrectly
p4166
aVneither
p4167
aVC/EBPbeta
p4168
aVo-phenanthroline
p4169
aVcomparable
p4170
aV/MAD
p4171
aVspares
p4172
aVadhesive
p4173
aVimportance
p4174
aVinterfere
p4175
aVefficiency
p4176
aVPGE2
p4177
aVheavy-chain
p4178
aV201-bp
p4179
aVproblem
p4180
aVinterferon-regulated
p4181
aVinterpretations
p4182
aVlimits
p4183
aVstrains
p4184
aVmanifestations
p4185
aVCepharanthine
p4186
aVnontoxic
p4187
aVRAR-alpha
p4188
aV-abl
p4189
aVLow
p4190
aVmaximize
p4191
aVfactor/cAMP
p4192
aVbeta-catenin
p4193
aVpost-translationally
p4194
aVX2-boxes
p4195
aVbox-binding
p4196
aVaddition
p4197
aVCD80
p4198
aVIFN-stimulated
p4199
aVCD86
p4200
aVslowly
p4201
aVeightfold
p4202
aVhydrolase
p4203
aV-510
p4204
aVcorresponding
p4205
aVSizes
p4206
aVoxidants
p4207
aVreleasing
p4208
aVarginine
p4209
aVBLR1
p4210
aVSubsequently
p4211
aVConsequently
p4212
aVnovel
p4213
aVpromyelocytes
p4214
aVtrans-activates
p4215
aVsynergistically
p4216
aVNF-IL6
p4217
aVIL-12-stimulated
p4218
aVgene-1
p4219
aVEngagement
p4220
aVNF-AT-directed
p4221
aVsurface
p4222
aVexamined
p4223
aVPMNs
p4224
aVPPB
p4225
aVrecipients
p4226
aVTpl-2
p4227
aVPAF-receptor
p4228
aVantiviral
p4229
aVparts
p4230
aVdominant-active
p4231
aVfide
p4232
aVpromoters
p4233
aVMAPk
p4234
aVeffect
p4235
aVB-cell-restricted
p4236
aVunliganded
p4237
aVNSAIDs
p4238
aVfrequently
p4239
aVB-containing
p4240
aVdestruction
p4241
aVB-cell-mediated
p4242
aVpolymorphism
p4243
aVsupernatant
p4244
aVVitD3
p4245
aVi
aVIntriguingly
p4246
aVatherogenesis
p4247
aVwell
p4248
aV64.1
p4249
aVExperiments
p4250
aVspecific-transcription
p4251
aVAb-associated
p4252
aV/5
p4253
aVglial
p4254
aV/2
p4255
aVBD
p4256
aVrestore
p4257
aVactivation-driven
p4258
aVBB
p4259
aVFigure6B
p4260
aVFigure6C
p4261
aVaccurate
p4262
aVFigure6A
p4263
aVFigure6D
p4264
aVdose
p4265
aVsources
p4266
aVBV
p4267
aVBW
p4268
aVA6H
p4269
aVGSH
p4270
aVpurified
p4271
aVcoordination
p4272
aVlow-level
p4273
aVrecapitulated
p4274
aVC/EBP-binding
p4275
aVBb
p4276
aVmicrotubule
p4277
aVMKK4
p4278
aV26S
p4279
aVc-MYC
p4280
aVIL-1-induced
p4281
aVPU-1
p4282
aVextends
p4283
aVPhorbol
p4284
aVpp52
p4285
aVanthracycline-treated
p4286
aVproteasomes
p4287
aVExposure
p4288
aVdefinitive
p4289
aVfate
p4290
aVdisappearance
p4291
aVChromosomal
p4292
aVburden
p4293
aVsequencing
p4294
aVimmediately
p4295
aVbcl6
p4296
aVdomains
p4297
aVprominent
p4298
aVloss
p4299
aVnecessary
p4300
aVlost
p4301
aVsizes
p4302
aValternatively
p4303
aVB.
p4304
aVB4
p4305
aVB7
p4306
aVB1
p4307
aVB2
p4308
aVB3
p4309
aVbisulfite-sequencing
p4310
aVbenzene
p4311
aVglycoprotein
p4312
aVcognate
p4313
aVantioxidant-dependent
p4314
aVTranscription-independent
p4315
aVproteins
p4316
aV30-fold
p4317
aVlibrary
p4318
aVU2
p4319
aVhydrocortisone
p4320
aVAzeptin-treated
p4321
aVhomo
p4322
aVTK-3
p4323
aVfactor-kappaB/Rel
p4324
aVROI
p4325
aVcompetitor
p4326
aVbroad
p4327
aVcytolytic
p4328
aVHowever
p4329
aVoverlap
p4330
aV3-deazaadenosine
p4331
aVParadoxical
p4332
aVinflammation
p4333
aVNF-kB
p4334
aVROS
p4335
aVdemonstrated
p4336
aV828
p4337
aVhinder
p4338
aVreaching
p4339
aVexpansion
p4340
aVPuB2
p4341
aVp38
p4342
aVtenfold
p4343
aVneutrophil
p4344
aVpulps
p4345
aVp35
p4346
aVembryos
p4347
aVUV
p4348
aVUP
p4349
aVrecognized
p4350
aVTat1-72
p4351
aVcompatible
p4352
aVkappaB-binding
p4353
aVmyeloid
p4354
aVcontext-specific
p4355
aVrecognizes
p4356
aVpromoter-reporter
p4357
aVequally
p4358
aVpreviously
p4359
aVlymphocyte-specific
p4360
aV-catalyzed
p4361
aVAbsence
p4362
aVh.
p4363
aVInflammation
p4364
aVutility
p4365
aVadditional
p4366
aVsynthesized
p4367
aVdown-regulated
p4368
aVLmo2
p4369
aVhemopoietic
p4370
aVOAP40
p4371
aVnoticed
p4372
aVPMA
p4373
aVJeannin
p4374
aVC5a-stimulated
p4375
aVPMN
p4376
aVrecruited
p4377
aVdown-regulates
p4378
aVhr
p4379
aVrotamase
p4380
aVDNasel
p4381
aVhi
p4382
aVgain
p4383
aVhighest
p4384
aVtruncation
p4385
aVp65-50
p4386
aVcells
p4387
aVcoengagement
p4388
aVpre-Talpha
p4389
aVphagocytic
p4390
aVexerts
p4391
aVlimit
p4392
aVTransformation
p4393
aV28,29
p4394
aVdisplay
p4395
aVCompounds
p4396
aVtissues
p4397
aVcrosslinking
p4398
aVexogenous
p4399
aVtriflusal-treated
p4400
aVlac-Z
p4401
aVproteinase
p4402
aVdithiocarbamate
p4403
aVFunction
p4404
aVfunctions
p4405
aVRCCs
p4406
aVlymphokine-activated
p4407
aVGenes
p4408
aVBesides
p4409
aVbeta-glucan
p4410
aV/beta
p4411
aVLike
p4412
aVstay
p4413
aVcrosslink
p4414
aVpathways
p4415
aVadditionally
p4416
aV-overexpressing
p4417
aVexocytosis
p4418
aVmacrophage
p4419
aVimmunoblotting
p4420
aVE-CM
p4421
aVpersistent
p4422
aVportion
p4423
aVdiagnosis
p4424
aVTax-response
p4425
aVindirectly
p4426
aVbcr
p4427
aVliver
p4428
aVAP1-binding
p4429
aVsaturating
p4430
aVdimaprit
p4431
aVPerforin
p4432
aVIg/EBP
p4433
aVmitogenesis
p4434
aVhalf-lives
p4435
aVobstruction
p4436
aVcoactivator
p4437
aVsegments
p4438
aVhyaluronan
p4439
aVResidual
p4440
aVCoincidentally
p4441
aVHost
p4442
aVmyeloid-specific
p4443
aVOCT
p4444
aVrescue
p4445
aVdownstream
p4446
aVactivation
p4447
aVgovern
p4448
aVaffect
p4449
aVBEAD-1
p4450
aVjuxtaposing
p4451
aVimmunized
p4452
aVB29
p4453
aVMspI
p4454
aVSensitivity
p4455
aVsolution
p4456
aVIFN-gamma
p4457
aVvector
p4458
aVcholesterol
p4459
aVenhance
p4460
aVpCMV-p300
p4461
aVlysosomal
p4462
aVsenescence
p4463
aVNegative
p4464
aVlikely
p4465
aVeven
p4466
aVTFIIDs
p4467
aVblastogenesis
p4468
aVpurine-box
p4469
aVIgG
p4470
aVIgE
p4471
aVIgD
p4472
aVIgA
p4473
aVnew
p4474
aVIgM
p4475
aValpha-Dihydroxicholecalciferol
p4476
aVharbors
p4477
aVparticulate
p4478
aVOct-2B
p4479
aVOct-2A
p4480
aVtransduction/transcription
p4481
aVnever
p4482
aV-Runx3
p4483
aVGreene
p4484
aV108
p4485
aVpossibility
p4486
aValpha-globin
p4487
aVactive
p4488
aV100
p4489
aV106
p4490
aV107
p4491
aV105
p4492
aVproviruses
p4493
aVG1
p4494
aVMn2
p4495
aVcyto-differentiating
p4496
aVMutations
p4497
aVPackaging
p4498
aVtransfected
p4499
aVpermit
p4500
aV-binding
p4501
aVsecond-site
p4502
aVmobility
p4503
aVantigen-bearing
p4504
aVbenzene-contaminated
p4505
aVAlso
p4506
aVInterferon-gamma
p4507
aVIFN-alpha-stimulated
p4508
aVHNF-1alpha
p4509
aVinductive
p4510
aVanti-CD15
p4511
aVsurvive
p4512
aVanti-CD19
p4513
aVtype
p4514
aVTemporal
p4515
aVcomposite
p4516
aVexpose
p4517
aVdisruption
p4518
aVtransiently
p4519
aVadult
p4520
aVV
aVradical
p4521
aVcoordinately
p4522
aVhIL-5
p4523
aVnonatopic
p4524
aVflora
p4525
aV53-kD
p4526
aVsuggestive
p4527
aV969-bp
p4528
aVTCR/CD3
p4529
aVfibrinogen-induced
p4530
aVcopurified
p4531
aVmelanoma
p4532
aVproteasomal
p4533
aV+655
p4534
aVNF-kappa
p4535
aV-286
p4536
aVWhereas
p4537
aVF2-reverse
p4538
aVdosing
p4539
aVp38delta
p4540
aVBLPs
p4541
aVrisk
p4542
aVaging
p4543
aVelicited
p4544
aVpro-apoptotic
p4545
aVhToll
p4546
aVluminometer
p4547
aVDimethyldithiocarbamate
p4548
aVPILOT
p4549
aVundergoing
p4550
aVtransdominant
p4551
aVabdomen
p4552
aVCastro
p4553
aVTGF-beta
p4554
aVN-acetyl-L-leucinyl-L-leucinyl-L-norleucinal
p4555
aVElastatinal
p4556
aVTINUR
p4557
aVcell-specific
p4558
aV-nonproducing
p4559
aVNFkappaB
p4560
aVthird
p4561
aVmutagenesis
p4562
aVmaintain
p4563
aVLTR-directed
p4564
aVevery
p4565
aVAlu
p4566
aVscintillation
p4567
aVcofactors
p4568
aVMoreau-Gachelin
p4569
aVrestriction-PCR-assay
p4570
aVCaM-AI
p4571
aVresponsive
p4572
aVUnderstanding
p4573
aVbefore
p4574
aVPRE
p4575
aVPRD
p4576
aVadhesivity
p4577
aVkappaB
p4578
aVPRL
p4579
aVcell-dependent
p4580
aVdifferently
p4581
aVdistal
p4582
aVweeks
p4583
aVanti-Eomes
p4584
aVmaximal
p4585
aVwidely
p4586
aVcombination
p4587
aVACLA
p4588
aVHLA-DQ
p4589
aVHLA-DR
p4590
aVatherosclerosis
p4591
aVPhosphorylation
p4592
aVester
p4593
aVtherapy
p4594
aVoxidant
p4595
aVJun/Fos
p4596
aVS-nitrosylation
p4597
aVCTLs
p4598
aVIndeed
p4599
aVarrested
p4600
aVrIL-2
p4601
aVventilation
p4602
aV43,44
p4603
aVtranscription-dependent
p4604
aVside
p4605
aVcJun
p4606
aVmean
p4607
aVinterruption
p4608
aVAccreditation
p4609
aVRNAs
p4610
aV-Fas
p4611
aVliterature
p4612
aV-retinoid
p4613
aVFactor
p4614
aVaurothioglucose
p4615
aVGPIIIa
p4616
aVextract
p4617
aVkappaB-like
p4618
aVSurfactant
p4619
aVNLS
p4620
aV/SS-B
p4621
aVgradient
p4622
aVrestricted
p4623
aVcrucial
p4624
aVcontent
p4625
aVadhesion
p4626
aVreader
p4627
aVHMG
p4628
aVlinear
p4629
aVSP-A
p4630
aVchromosomal
p4631
aVSP1element
p4632
aVISGF3
p4633
aVmessages
p4634
aVcolostrum
p4635
aVmu/kappa
p4636
aVionomycin
p4637
aVfeatures
p4638
aVDR3-type
p4639
aVcytoskeletal
p4640
aVMonochloramine
p4641
aVECs
p4642
aVplasmalemmal
p4643
aVneutralization
p4644
aVECL
p4645
aVrecruiting
p4646
aVNotch1
p4647
aVECS
p4648
aVsuppressive
p4649
aVexposures
p4650
aVB-lymphocytes
p4651
aVandrogen-binding
p4652
aVlower
p4653
aVabnormality
p4654
aVsomewhat
p4655
aVp54
p4656
aVp55
p4657
aVp56
p4658
aVp50
p4659
aVp52
p4660
aVp53
p4661
aVbegins
p4662
aVenabled
p4663
aVpreparation
p4664
aVbiochemical
p4665
aVlipopolysaccharide-mediated
p4666
aVpost-PMA
p4667
aVmodulating
p4668
aVmink
p4669
aVmembranes
p4670
aVbare
p4671
aVelevating
p4672
aVemphasizing
p4673
aVseen
p4674
aVseem
p4675
aVCYS
p4676
aVHNP-1
p4677
aVPutative
p4678
aVPOU
p4679
aVBsp143II
p4680
aVreactivity
p4681
aVmachinery
p4682
aVtrapoxin
p4683
aVDeregulates
p4684
aV-gene
p4685
aVM-TAT
p4686
aVPO2
p4687
aVimmunological
p4688
aVobservation
p4689
aV/STAT5B
p4690
aVkilodaltons
p4691
aVm
aVcompetitors
p4692
aVpoints
p4693
aVprinciple
p4694
aVsphingomyelinase
p4695
aVtal-1
p4696
aVOAF
p4697
aVprobe
p4698
aVManLAM-mediated
p4699
aVchemically-exposed
p4700
aVThiol
p4701
aVImmunohistochemistry
p4702
aVlipids
p4703
aVparalleling
p4704
aVexplain
p4705
aVsugar
p4706
aVhttp://www.ncbi.nlm.nih.gov/Genbank/
p4707
aVintegrate
p4708
aVImmunosuppressant
p4709
aVhigh-dose
p4710
aVstop
p4711
aV12
p4712
aVDQB
p4713
aVmetallothionein
p4714
aVnon-methylated
p4715
aVInterspecies
p4716
aVbax
p4717
aVbad
p4718
aVintervals
p4719
aVarchitecture
p4720
aVimmunosuppression-associated
p4721
aVFLCs
p4722
aVbak
p4723
aVGrpL
p4724
aVprotein-beta
p4725
aVpGL4-luc2
p4726
aVR-PK
p4727
aValterations
p4728
aVAMP-responsive
p4729
aVTissue-specific
p4730
aVLPS-Induced
p4731
aVprototypical
p4732
aVsubject
p4733
aVdeterminants
p4734
aVinappropriate
p4735
aVEGR2
p4736
aVEGR1
p4737
aVGreenwald
p4738
aVartificial
p4739
aVproband
p4740
aVkinase-deficient
p4741
aVpets
p4742
aVAP-1-DNA
p4743
aVtolerance
p4744
aVC
aVtriplet
p4745
aVCentral
p4746
aVInterferons
p4747
aVlymphocyte
p4748
aVrestricting
p4749
aVvitamin
p4750
aVtriplex
p4751
aVandrogen
p4752
aVHES-1
p4753
aVIL-1-mediated
p4754
aVsuggested
p4755
aVagonist
p4756
aVInclusion
p4757
aVresistant
p4758
aVderegulation
p4759
aVAbnormal
p4760
aVupregulate
p4761
aVcontribution
p4762
aVagonism
p4763
aVpresumably
p4764
aVappeared
p4765
aVloaded
p4766
aVElectrophoretic
p4767
aVtargeting
p4768
aVC.
p4769
aVbasis
p4770
aVlymphomagenesis
p4771
aVACLA-treated
p4772
aVthree
p4773
aVEarly
p4774
aVtrigger
p4775
aVreplicate
p4776
aVinterest
p4777
aVbasic
p4778
aVC3
p4779
aVC2
p4780
aVC1
p4781
aVC4
p4782
aVstresses
p4783
aVCN
p4784
aVefficacy
p4785
aVtrans-factors
p4786
aVsuppress
p4787
aVProlonged
p4788
aVoTAFII110
p4789
aV169
p4790
aVIndomethacin
p4791
aVbcl-x
p4792
aVexception
p4793
aVCREB-responsive
p4794
aVacetylation
p4795
aVCa
p4796
aVoriginate
p4797
aVspontaneously
p4798
aVbalance
p4799
aVdemethylation
p4800
aVCt
p4801
aValloantigens
p4802
aVseven
p4803
aVp39c-jun
p4804
aVconcomitant
p4805
aVis
p4806
aVit
p4807
aVii
p4808
aVinterleukin-beta
p4809
aVin
p4810
aVcurcumin
p4811
aVtype-specific
p4812
aVif
p4813
aVTCR/CD3-signaling
p4814
aVanti-CD30
p4815
aVoccupied
p4816
aVmake
p4817
aVV3
p4818
aVpotentially
p4819
aVcolonies
p4820
aVcapacities
p4821
aVSer-32
p4822
aVevolve
p4823
aVVD
p4824
aVDo
p4825
aVTbx-21
p4826
aVkit
p4827
aVpharmacological
p4828
aVi.
p4829
aVPD184352
p4830
aVweakly
p4831
aVleukocyte-type
p4832
aVprograms
p4833
aVstimuli
p4834
aV109203X
p4835
aVCdk
p4836
aVinterconversion
p4837
aVIL-1beta
p4838
aV33,34
p4839
aVprotocol
p4840
aVjust
p4841
aV225/EGR1
p4842
aVimmunohistochemically
p4843
aVEctopic
p4844
aV-260
p4845
aVOCT-1
p4846
aVc-Mpl
p4847
aVidentify
p4848
aVhuman
p4849
aVaugments
p4850
aVyet
p4851
aVcalmodulin
p4852
aVcatalytic
p4853
aVcandidate
p4854
aVmTOR
p4855
aVbiotinylated
p4856
aVinterleukin-2-receptor
p4857
aVeTh2
p4858
aVeTh1
p4859
aVdrug-induced
p4860
aVhypersensitive
p4861
aVinterior
p4862
aVbackground
p4863
aVantigen-dependent
p4864
aVocclusion
p4865
aVactivation-induced
p4866
aVAre
p4867
aVinsertions/deletions
p4868
aVsignal
p4869
aVBain
p4870
aVprotein-1
p4871
aVnonhematopoietic
p4872
aVMBPs
p4873
aVelderly
p4874
aVFcgamma
p4875
aVbeta-cells
p4876
aVshort-term
p4877
aVPTK
p4878
aV-301
p4879
aVPTF
p4880
aVreoxygenation
p4881
aVinterferon-responsive
p4882
aVpurine-box/nuclear
p4883
aVgenotypes
p4884
aVdownregulation
p4885
aVnovelties
p4886
aVtwo-component
p4887
aVmetastatic
p4888
aVc-erbA/TR-specific
p4889
aVsuper
p4890
aVTis-8
p4891
aVreexpression
p4892
aVARRE-1
p4893
aVEvidence
p4894
aVastrocyte
p4895
aVrNF-IL6
p4896
aVCyclosporin
p4897
aVtransactivation
p4898
aVNF-kappaB-inducing
p4899
aVnonexpressing
p4900
aVinv14
p4901
aVdown
p4902
aVlies
p4903
aVCritical
p4904
aVPrf1
p4905
aVIFN-alpha-activated
p4906
aVcascades
p4907
aVprolactin
p4908
aVNFAT-binding
p4909
aVinitial
p4910
aVE2F
p4911
aVinfluencing
p4912
aV-stimulated
p4913
aVoligomerized
p4914
aVredox
p4915
aVfork
p4916
aVDNA
p4917
aVform
p4918
aVlipoarabinomannan
p4919
aVretarget
p4920
aVfailure
p4921
aVBiochemical
p4922
aV225
p4923
aVZ
aVpost-transcriptionally
p4924
aVpro-oxidative
p4925
aVprevents
p4926
aVChloramphenicol
p4927
aVBSAP
p4928
aVmethylthiogliotoxin
p4929
aVmononitrosyl
p4930
aVY701
p4931
aVstages
p4932
aVoriginating
p4933
aVfractions
p4934
aVIFNalpha
p4935
aVNuclear
p4936
aVone-third
p4937
aVTCRG
p4938
aVp27kip1
p4939
aVgland
p4940
aVadversely
p4941
aVgenerally
p4942
aVGPIb-V-IX
p4943
aVTCRs
p4944
aVp75
p4945
aVp70
p4946
aVco-expression
p4947
aVdiet
p4948
aVglucocorticoids
p4949
aVexported
p4950
aVc-cerbA/thyroid
p4951
aVHOX
p4952
aVenhancers
p4953
aVConstant
p4954
aVDrosophila
p4955
aVD2
p4956
aVSecond
p4957
aV37,38
p4958
aVGTPases
p4959
aVprimed
p4960
aVskin
p4961
aVmorphology
p4962
aVprimer
p4963
aVretention
p4964
aVsuicide
p4965
aVdepend
p4966
aVdisorders
p4967
aVtechnique
p4968
aVneuropeptides
p4969
aVLTRs
p4970
aVkeratinocytes
p4971
aVstabilizing
p4972
aVanalogous
p4973
aVrhTNF-alpha
p4974
aVreconstitutes
p4975
aVPRE-I
p4976
aVhLH-2
p4977
aVCCAAT
p4978
aVyeast
p4979
aVnear-basal
p4980
aVglycemic
p4981
aVantiatherogenic
p4982
aVIFNA
p4983
aVhypercellularity
p4984
aVpromoter/luciferase
p4985
aVthen-unknown
p4986
aV/BCL6
p4987
aVdid
p4988
aVdie
p4989
aVbright
p4990
aVanti-diabetic
p4991
aVvasculopathy
p4992
aVIFNs
p4993
aVunexpected
p4994
aVT-ALL
p4995
aVdimeric
p4996
aVBFU-E-derived
p4997
aVSTAT5-containing
p4998
aVproto-enhancer
p4999
aVbacterial
p5000
aVtargets
p5001
aVadducts
p5002
aVH2O2
p5003
aVacidosis
p5004
aVFludarabine
p5005
aVP14
p5006
aVtemplate
p5007
aVRelB
p5008
aVRelA
p5009
aVisoforms
p5010
aVligand-dependent
p5011
aVFLAP
p5012
aVC-reactive
p5013
aV/RelA
p5014
aVcytokine-induced
p5015
aVkDA
p5016
aV-transduced
p5017
aVBcl-XL
p5018
aVChanges
p5019
aVbox
p5020
aVIC50s
p5021
aVexemplified
p5022
aVshift
p5023
aVdominantly
p5024
aVSupT
p5025
aVsomatic
p5026
aVsimultaneous
p5027
aVleukemias
p5028
aVsuggestion
p5029
aVJnk
p5030
aVmicromolar
p5031
aVuseful
p5032
aVIdentification
p5033
aVphosphorylation/degradation
p5034
aVWhen
p5035
aVBp65
p5036
aVc-maf
p5037
aVoctamer-DNA
p5038
aVcooperates
p5039
aVV-ATPase
p5040
aVsubset-specific
p5041
aVencode
p5042
aVselenium-deprived
p5043
aVoligonucleotide-directed
p5044
aVcooperated
p5045
aVaspirin
p5046
aVconformation
p5047
aVWp
p5048
aVantigens
p5049
aVtandem
p5050
aVphase-1
p5051
aVphase-2
p5052
aVeffort
p5053
aVhGATA-4
p5054
aVEGTA
p5055
aVage-associated
p5056
aVGC-mediated
p5057
aVhalf-life
p5058
aVNF-kappaB-mediated
p5059
aVRIC
p5060
aVCucurbitacin
p5061
aVMinimizing
p5062
aVNumbers
p5063
aVmaking
p5064
aVrepressing
p5065
aVsulfhydryl
p5066
aVAAGTGA
p5067
aVimmortalize
p5068
aVmultifactorial
p5069
aVpredict
p5070
aVagent
p5071
aVsample
p5072
aVcoincident
p5073
aVspanning
p5074
aVInduction
p5075
aVnormalize
p5076
aVrays
p5077
aVradiation
p5078
aVchemical
p5079
aVhypersensitivity
p5080
aVML-1a
p5081
aVpathway
p5082
aVmap
p5083
aV141
p5084
aVmay
p5085
aVvitro-translated
p5086
aVP0-compatible
p5087
aVaccessory
p5088
aVgelatin
p5089
aVFoxO1
p5090
aVvalue
p5091
aVdestructive
p5092
aV-1081
p5093
aVman
p5094
aVpurify
p5095
aVelongation
p5096
aV17,18
p5097
aVcascade
p5098
aVswitch
p5099
aVblock
p5100
aV40-kDa
p5101
aVtrichloroacetic
p5102
aVFlavonoids
p5103
aVesters
p5104
aVspi-B
p5105
aVmonoblasts
p5106
aVgradual
p5107
aVcysteine-rich
p5108
aVhydroxylamine
p5109
aVRemoval
p5110
aVstability
p5111
aVdiffers
p5112
aVNonpituitary
p5113
aVgroup
p5114
aVmonitor
p5115
aVinteresting
p5116
aVnitrofurantoin
p5117
aVmain
p5118
aVuptake
p5119
aVWT1
p5120
aVneoplasms
p5121
aVquantitate
p5122
aVkiller
p5123
aVShc
p5124
aVDeltaE
p5125
aVMKK3
p5126
aVLaboratories
p5127
aVeosinophil-activating
p5128
aVkilled
p5129
aVdevelopments
p5130
aVMKK6
p5131
aVCD45RA
p5132
aVSimple
p5133
aVtumor-draining
p5134
aVCD45RO
p5135
aVarrows
p5136
aVanti-microbial
p5137
aVMeasurement
p5138
aV/MEK1
p5139
aV/MEK2
p5140
aVcontransfection
p5141
aValpha-PPAR
p5142
aVStaurosporine
p5143
aVfasL
p5144
aVcAMP
p5145
aVabnormal
p5146
aVLuc
p5147
aVBrefeldinA
p5148
aValpha-tocopherol
p5149
aValpha2
p5150
aVtrifluoromethylketones
p5151
aValpha1
p5152
aVCalcium/calmodulin-dependent
p5153
aVAp1
p5154
aVinterference
p5155
aVCD45
p5156
aVFormation
p5157
aVEts-1
p5158
aVKey
p5159
aVB-induced
p5160
aVtransmigration
p5161
aVlag
p5162
aVc-Kit
p5163
aVG
aVmechanisms
p5164
aVTumor
p5165
aVuncover
p5166
aVSigma
p5167
aVApr
p5168
aVHSF2-alpha
p5169
aV-245
p5170
aVPBGD
p5171
aVsubstrates
p5172
aVfirst
p5173
aVphosphorylations
p5174
aVTranslocations
p5175
aVligand-induced
p5176
aV1A
p5177
aV1B
p5178
aV1D
p5179
aVspecificity
p5180
aVISG
p5181
aVlittle
p5182
aVgenotype
p5183
aV1x
p5184
aVglycosylase
p5185
aVparticipates
p5186
aVparallel
p5187
aV1a
p5188
aV1b
p5189
aVhydrophobicity
p5190
aVEomes-VP16
p5191
aVinefficient
p5192
aVcontinuous
p5193
aVaccurately
p5194
aVI-kappaBbeta
p5195
aVinfiltrate
p5196
aVReplacement
p5197
aV11
p5198
aV10
p5199
aV13
p5200
aVanalyze
p5201
aV15
p5202
aV14
p5203
aV17
p5204
aV16
p5205
aV19
p5206
aV18
p5207
aVprotected
p5208
aVwere
p5209
aVorder-dependent
p5210
aVDD
p5211
aVDC
p5212
aVRegulation
p5213
aVfactor-mediated
p5214
aVDR
p5215
aVGTP-bound
p5216
aVDP
p5217
aVelement-specific
p5218
aVSYBR
p5219
aVefficient
p5220
aVMurphy
p5221
aVisolate
p5222
aV+27
p5223
aVsubcytotoxic
p5224
aVpotential
p5225
aV65-kD
p5226
aVswitching
p5227
aVchromosomes
p5228
aVnormal
p5229
aVdecreasing
p5230
aVcatalase
p5231
aVDHA
p5232
aVbeta
p5233
aVtract
p5234
aVpair
p5235
aVDHS
p5236
aVauto-inhibitory
p5237
aVD.
p5238
aVoleate
p5239
aVespecially
p5240
aVdiversity
p5241
aVcompounds
p5242
aV-responsive
p5243
aVD3
p5244
aVapoptosis-mediating
p5245
aVprecise
p5246
aVdissecting
p5247
aVshow
p5248
aVaccession
p5249
aVmulticomponent
p5250
aVWT
p5251
aVthreshold
p5252
aVreceptor-associated
p5253
aVWe
p5254
aVPVDF-membrane
p5255
aVspi-1
p5256
aVSecondarily
p5257
aVRIP
p5258
aVgenistein
p5259
aVhelix
p5260
aVRII
p5261
aVsensitivities
p5262
aVextracellular
p5263
aVp98
p5264
aVKappa
p5265
aVhistone
p5266
aVp90
p5267
aVdesignated
p5268
aVAzadC-treatment
p5269
aVp96
p5270
aVLarge
p5271
aVnearly
p5272
aVlymphoid-specific
p5273
aVconjunction
p5274
aVsecondary
p5275
aVComparative
p5276
aVhRXR
p5277
aVMethods
p5278
aVTCL1
p5279
aVfibrinogen-derived
p5280
aVW.
p5281
aVcommunicates
p5282
aVligand-inducible
p5283
aV12.1
p5284
aVyield
p5285
aVsummary
p5286
aVhypomethylated
p5287
aVB-lymphocyte
p5288
aVdesulfonisation
p5289
aVEBV-associated
p5290
aV431-amino
p5291
aVnon-expressing
p5292
aVneuropathogenic
p5293
aVDTCs
p5294
aV5.47
p5295
aVZ-LLL-H
p5296
aVsyncytia-forming
p5297
aVrelative
p5298
aVunaltered
p5299
aVcerulein
p5300
aVanti-Itk
p5301
aVboundaries
p5302
aVmetabolites
p5303
aVSelective
p5304
aVDose-dependence
p5305
aV707-base
p5306
aVdeletions
p5307
aVFOS
p5308
aVProbucol
p5309
aVNFkB
p5310
aVlipopolysaccharide-stimulated
p5311
aVFOG
p5312
aVPax-5
p5313
aVEach
p5314
aVsignaled
p5315
aVstimulation-dependent
p5316
aVFoxj1
p5317
aVerythroblasts
p5318
aVcell-derived
p5319
aVLFA-1
p5320
aVaccording
p5321
aVblasts
p5322
aVdex-resistant
p5323
aVAtopy
p5324
aVstretches
p5325
aVcancer
p5326
aVsynovitis
p5327
aVSAF
p5328
aVuncouple
p5329
aVmaintained
p5330
aVchaperoning
p5331
aVexhibits
p5332
aV24-hydroxylase
p5333
aVIL1B
p5334
aVestrogen
p5335
aVconsidering
p5336
aVtumour
p5337
aVtuning
p5338
aVcapable
p5339
aVsubpopulation
p5340
aVHHV-6
p5341
aVaberrated
p5342
aVtransformants
p5343
aVT-cell-specific
p5344
aVenhancer/promoter
p5345
aVacetate-mediated
p5346
aVN-terminal
p5347
aVdramatic
p5348
aValpha-chemokine
p5349
aVvirus-induced
p5350
aVnon-IL-2
p5351
aVthose
p5352
aVhematopoiesis
p5353
aVapoptosis-associated
p5354
aVkappa
p5355
aVTo
p5356
aVIL10
p5357
aVIL13
p5358
aVIL15
p5359
aVprofiles
p5360
aVDetection
p5361
aVongoing
p5362
aVT-antigen
p5363
aVendothelial
p5364
aVcharacteristics
p5365
aVnomenclature
p5366
aVstrain
p5367
aVanti-CD2
p5368
aVanti-CD3
p5369
aVanti-CD4
p5370
aVproteic
p5371
aVanti-CD8
p5372
aVscavenger
p5373
aVprotein
p5374
aVdifferent
p5375
aVphosphorylating
p5376
aVnucleotidase
p5377
aVantigen-stimulated
p5378
aVV14Rho
p5379
aVsame
p5380
aVpag
p5381
aVintermediary
p5382
aVadipocytes
p5383
aV10-22
p5384
aVMCM6
p5385
aVMCM5
p5386
aVsarcoma-associated
p5387
aVdiscernable
p5388
aVtotally
p5389
aVband
p5390
aVmicrogram/ml
p5391
aVintima
p5392
aVmetalloproteinase-9
p5393
aVconsisted
p5394
aVsulindac
p5395
aVD-dependent
p5396
aV1G5
p5397
aVTcR/CD3
p5398
aVproximal
p5399
aVCo-expression
p5400
aVGermline
p5401
aVALD-treated
p5402
aVasthma
p5403
aV4
aVAlthough
p5404
aVDNA-bound
p5405
aVextensive
p5406
aVHPLC
p5407
aVgenome
p5408
aVpolymorphonuclear
p5409
aVmethylation-inhibitor
p5410
aVinhibition
p5411
aVTranscripts
p5412
aVimplicate
p5413
aVcAMP-responsive
p5414
aVNFATx1
p5415
aVidentifying
p5416
aVThymocytes
p5417
aV32,33
p5418
aVserves
p5419
aVIU/mL
p5420
aVeither
p5421
aVneuronal
p5422
aV7.5-fold
p5423
aVMoreover
p5424
aVtransgenesis
p5425
aVundifferentiated
p5426
aVVDR
p5427
aVthromboxane
p5428
aVNef
p5429
aVimmune-mediated
p5430
aVpathway-specific
p5431
aVspecified
p5432
aVgross
p5433
aVproIL-1beta
p5434
aVconfirm
p5435
aVHTLV-1-mediated
p5436
aVextensively
p5437
aVcritical
p5438
aVexpressing
p5439
aVDNMT/MBPs
p5440
aVmoderate
p5441
aVRA-induced
p5442
aVmeasuring
p5443
aVcandidiasis
p5444
aVInteraction
p5445
aVairways
p5446
aVpan-PKC
p5447
aVunusual
p5448
aVT3
p5449
aVnotably
p5450
aVAO
p5451
aVEfforts
p5452
aVmanufacturer
p5453
aVVD3
p5454
aVassayed
p5455
aVisland
p5456
aVCaMKIV/Gr
p5457
aVdevelops
p5458
aVPMA-inducible
p5459
aVmixed
p5460
aVdeprivation-induced
p5461
aVbeta-galactosidase
p5462
aVAngiotensin
p5463
aVerythropoietic
p5464
aVspreading
p5465
aVPOZ/zinc-finger
p5466
aVmalignancy-associated
p5467
aVDILs
p5468
aVtyrosine
p5469
aVgranules
p5470
aVimmunoreceptor
p5471
aVsophisticated
p5472
aVSTAT5b
p5473
aVSTAT5a
p5474
aVcorrelated
p5475
aVSignificantly
p5476
aVLTR-driven
p5477
aVgangliosides
p5478
aVdoxorubicin
p5479
aVSTAT5A
p5480
aV-226
p5481
aVpolymorphisms
p5482
aV-228
p5483
aVphyto
p5484
aVUSF
p5485
aVARRE/NF-AT
p5486
aVUSA
p5487
aVEfficient
p5488
aVconcentration-dependent
p5489
aVgeneral
p5490
aVimmunoprecipitation
p5491
aVexamine
p5492
aVhypercalcemia
p5493
aVanaphylaxis
p5494
aVfile
p5495
aVthymocyte-specific
p5496
aV-60
p5497
aVagain
p5498
aV-62
p5499
aV-64
p5500
aV-65
p5501
aVbeta-PPAR
p5502
aV-69
p5503
aVhybrid
p5504
aVEgr-1
p5505
aVEgr-2
p5506
aVEgr-3
p5507
aVsupplementing
p5508
aVMegakaryocyte/Platelet-specific
p5509
aVhTAFII130
p5510
aVvanadate
p5511
aVetoposide-treated
p5512
aVBamHI/BglII
p5513
aVderiving
p5514
aVPMA/ionomycin
p5515
aVimportant
p5516
aVresembled
p5517
aVremote
p5518
aVinhibited
p5519
aVincubating
p5520
aVresembles
p5521
aVpromotor
p5522
aVB-responsive
p5523
aVovary
p5524
aVstarting
p5525
aVrepresent
p5526
aVpigmentosum
p5527
aVoxidant-initiated
p5528
aVSIV
p5529
aVSIT
p5530
aVdefensins
p5531
aVactivation/translocation
p5532
aVcooperative
p5533
aVSecretion
p5534
aVexpressions
p5535
aVVav
p5536
aVduplicated
p5537
aVTAT
p5538
aVresponsiveness
p5539
aVTAR
p5540
aVLymphocyte
p5541
aVAU-rich
p5542
aVdiffuse
p5543
aVTAF
p5544
aVTAG
p5545
aVTAB
p5546
aVJCT6
p5547
aVTA1
p5548
aVreturning
p5549
aVJagged1
p5550
aVplausibility
p5551
aVhybridize
p5552
aVbcl-xL
p5553
aVdifference
p5554
aVPP-2A
p5555
aVwashing
p5556
aVAzadC
p5557
aVbcl-xs
p5558
aVretargeting
p5559
aVbcl-xl
p5560
aVbiological
p5561
aVperiodontal
p5562
aVPC2
p5563
aVCTCF
p5564
aVelution
p5565
aVisozymes
p5566
aVreactivation
p5567
aVgo
p5568
aVOnly
p5569
aVdiapedesis
p5570
aVfurther
p5571
aVmarginal
p5572
aVresidue
p5573
aVn't
p5574
aVdefence
p5575
aVmobilizing
p5576
aVKBF
p5577
aVNF1
p5578
aVactivations
p5579
aVendothelia
p5580
aVGPIbalpha
p5581
aVmalaria
p5582
aVK
aVcomponent
p5583
aVneutralized
p5584
aVCsA-treated
p5585
aVoperating
p5586
aVBLK
p5587
aVsearch
p5588
aVantagonizing
p5589
aVultrafiltration
p5590
aVGCS
p5591
aVNFs
p5592
aVuncharted
p5593
aVpublished
p5594
aVbeta-Catenin
p5595
aVtoxicity
p5596
aVAlpha-tocopherol
p5597
aVpathological
p5598
aVleukotriene
p5599
aVfactor-kappa
p5600
aVredox-dependent
p5601
aVextinction
p5602
aVestablish
p5603
aVpre-treatment
p5604
aVreadily
p5605
aVCore
p5606
aVelement-containing
p5607
aVdistinct
p5608
aVtwo
p5609
aVOTF2
p5610
aVOTF1
p5611
aVcultivation
p5612
aVprotein-1-responsive
p5613
aV0.005
p5614
aV0.001
p5615
aVLTR
p5616
aVMultifactor
p5617
aVconcomitantly
p5618
aVconstructs
p5619
aVFMS
p5620
aVcontrolling
p5621
aVimmunoreactive
p5622
aVvarying
p5623
aValpha-thrombin
p5624
aVThr-15
p5625
aVdex
p5626
aVnone
p5627
aVcalcineurin
p5628
aVhour
p5629
aVcluster
p5630
aVco-activation
p5631
aVOTFs
p5632
aVremain
p5633
aVPMA-dependent
p5634
aVstrategies
p5635
aVcompare
p5636
aVHUVEC
p5637
aVionizing
p5638
aV37degreesC
p5639
aVshare
p5640
aVconfirmation
p5641
aVchimera
p5642
aVnumbers
p5643
aVmolecularly
p5644
aVnarrowly
p5645
aVcooperativity
p5646
aVdrained
p5647
aVacts
p5648
aVP53
p5649
aVE-selectin
p5650
aVpEGFP-C2
p5651
aVagonist-induced
p5652
aVNF-kappaB/NFAT
p5653
aVminimum
p5654
aVblood
p5655
aVsurfactants
p5656
aVresponse
p5657
aVGAS-binding
p5658
aVEpstein-Barr
p5659
aVHemoglobin
p5660
aVinflammatory-type
p5661
aVdispensable
p5662
aV60-fold
p5663
aVchimeric
p5664
aVDMSO
p5665
aVStauro
p5666
aVsecreting
p5667
aVForced
p5668
aVLT-alpha1beta2
p5669
aVstains
p5670
aVcell-subset-specific
p5671
aVsFv
p5672
aVthrough
p5673
aVlipophilic
p5674
aVexistence
p5675
aVMAD-3
p5676
aVLMP2B
p5677
aV24
p5678
aV25
p5679
aV26
p5680
aV27
p5681
aV20
p5682
aV21
p5683
aV22
p5684
aV23
p5685
aVIfng
p5686
aV28
p5687
aVmicroenvironment
p5688
aVlate
p5689
aVdetected
p5690
aVdeltaspi-B
p5691
aVImmunofluorescence
p5692
aVsuperoxide
p5693
aVcounter-receptor
p5694
aVgood
p5695
aVsubclone
p5696
aVmales
p5697
aVmorphologically
p5698
aV2D
p5699
aV2E
p5700
aV2A
p5701
aV2B
p5702
aVcompound
p5703
aVisopropylidine
p5704
aVassociation
p5705
aV22,23
p5706
aVeasily
p5707
aVRA-inducible
p5708
aVLack
p5709
aVmol/L
p5710
aVsteroid-regulated
p5711
aVbasophils
p5712
aVUV-induced
p5713
aVBaL
p5714
aVharboring
p5715
aVmRNAs
p5716
aVbreakdown
p5717
aVPosttranscriptional
p5718
aVco-stimulation
p5719
aVsulfoximine
p5720
aVexons
p5721
aVenergy
p5722
aVcipro
p5723
aVidea
p5724
aVXLA
p5725
aVE2F-mediated
p5726
aVlysis
p5727
aVA-related
p5728
aVsuper-induced
p5729
aVacting
p5730
aVT-helper
p5731
aVE4
p5732
aVE1
p5733
aVGATA
p5734
aVE3
p5735
aVE2
p5736
aVEts-NF-kappaB/NFAT
p5737
aVexon1
p5738
aVcircumstance
p5739
aVinvivo
p5740
aV55-fold
p5741
aVHIV-enhancer
p5742
aVeosinophil
p5743
aVmembers
p5744
aVpalmitic
p5745
aVES
p5746
aVER
p5747
aVbenefits
p5748
aVconducted
p5749
aVEp
p5750
aVutilized
p5751
aVinhibits
p5752
aV22-bp
p5753
aV-Induced
p5754
aVoncoproteins
p5755
aV323-339
p5756
aVhomologues
p5757
aVconstruct
p5758
aVprotein-1alpha
p5759
aVobligatory
p5760
aVregulation
p5761
aVmethylated
p5762
aV186
p5763
aVCD336
p5764
aV13-acetate
p5765
aVmajority
p5766
aVcompartment
p5767
aVCArG
p5768
aVCytotoxicity
p5769
aVEKLF
p5770
aVfetal/neonatal
p5771
aVpost-translational
p5772
aVpart
p5773
aVfavorable
p5774
aVgranulopoiesis
p5775
aVpeaked
p5776
aVS9a
p5777
aVb
aVcyclic
p5778
aVVJ2
p5779
aVcyclin
p5780
aVlargely
p5781
aVVJ5
p5782
aVVJ4
p5783
aVlectin
p5784
aVtreated
p5785
aVinteractive
p5786
aVpre-existing
p5787
aVX1
p5788
aVPAO-sensitive
p5789
aVdendritic
p5790
aVorders
p5791
aVGal4-BD-c-Jun
p5792
aVATF-2
p5793
aVbuilt
p5794
aVOxidants
p5795
aVclonality
p5796
aVKit
p5797
aVonset
p5798
aVextracted
p5799
aVRPMI-8226
p5800
aVRP1
p5801
aVkB
p5802
aVN-acetylcysteine
p5803
aVkD
p5804
aVmost
p5805
aVtrans-activator
p5806
aVsecretable
p5807
aVextremely
p5808
aVinducibility/cell
p5809
aVkb
p5810
aVX1-specific
p5811
aVConsistent
p5812
aVmannose
p5813
aVtrans-activating
p5814
aVbcl-3
p5815
aVbcl-2
p5816
aVorganism
p5817
aVheterodimerization
p5818
aV-206
p5819
aVparticularly
p5820
aVSignals
p5821
aVrelation
p5822
aVmalignant
p5823
aV-mRNA
p5824
aVfind
p5825
aVdepended
p5826
aVintermediate-dependent
p5827
aV-42
p5828
aVnervous
p5829
aV-40
p5830
aVtranslocates
p5831
aVdistributed
p5832
aV-44
p5833
aVhToll-induced
p5834
aV8
aVtranslocated
p5835
aVCNS-derived
p5836
aVC26
p5837
aVexpress
p5838
aVBCR-induced
p5839
aVguamerin-derived
p5840
aV/CD40L
p5841
aVComparing
p5842
aVlymphokine
p5843
aVcommon
p5844
aVCortivazol
p5845
aVaspect
p5846
aVHTLV-I-infected
p5847
aVelectroporation
p5848
aVT-cells
p5849
aVindividual
p5850
aVgenomic
p5851
aVpreformed
p5852
aVoriP
p5853
aVPI3K-mediated
p5854
aVStat1
p5855
aVMFI
p5856
aVTCR
p5857
aVpromoter-mediated
p5858
aVTCP
p5859
aVLPS-stimulated
p5860
aVvascular
p5861
aVTCE
p5862
aVPPAR
p5863
aVresponses
p5864
aVcomplement
p5865
aVPhosphorylated
p5866
aVbi-directional
p5867
aVTransgene
p5868
aValters
p5869
aVHIV-mediated
p5870
aVUnexpected
p5871
aVHIV-LTR/tat
p5872
aVB/Rel/NFAT
p5873
aVfocused
p5874
aVYet
p5875
aVpoint
p5876
aVsimple
p5877
aVmyristate-induced
p5878
aVdownregulated
p5879
aVsimply
p5880
aVMutation
p5881
aVzeta
p5882
aVthroughout
p5883
aVsuppressing
p5884
aVensures
p5885
aVfused
p5886
aVraise
p5887
aVintracellular
p5888
aVvertebrate
p5889
aVscreened
p5890
aVATRA
p5891
aV72-kDa
p5892
aVrepertoire
p5893
aVPDTC-insensitive
p5894
aVautoinduced
p5895
aVHEB
p5896
aVHEL
p5897
aVProtein-DNA
p5898
aVubiquitination
p5899
aVnormoxia
p5900
aVICRF-193
p5901
aVnormoxic
p5902
aV5.1-fold
p5903
aVtolerate
p5904
aVCobalt
p5905
aVpathogenetic
p5906
aVreplaced
p5907
aVforkhead/winged-helix
p5908
aVBB-94
p5909
aVcis-dominant
p5910
aVNeutralizing
p5911
aVencountered
p5912
aVdestabilization
p5913
aVIgkappa
p5914
aVitself
p5915
aVTranslocation
p5916
aVaround
p5917
aVunaffected
p5918
aVAffinity-driven
p5919
aVdiscourse
p5920
aVemphasize
p5921
aVheptamer
p5922
aVfibrosis
p5923
aVco-immunoprecipitation
p5924
aVdevelopment
p5925
aVlatency
p5926
aVappreciably
p5927
aVPromoter
p5928
aVchain-specific
p5929
aVOCA-B
p5930
aVpurpose
p5931
aVneuraminidase
p5932
aVActivity
p5933
aVspecies-mediated
p5934
aVself-replenishing
p5935
aVhomologies
p5936
aVAugmented
p5937
aVFigure
p5938
aVpercentages
p5939
aVPDBu
p5940
aVGeneral
p5941
aVentry
p5942
aVprevention
p5943
aVnucleoprotein
p5944
aVJNK1
p5945
aVcells/ml
p5946
aVprofoundly
p5947
aVcell-independent
p5948
aVKlug
p5949
aVfaster-migrating
p5950
aValternative
p5951
aVintranuclear
p5952
aValignment
p5953
aVAspirin
p5954
aVcyclin-like
p5955
aVtranscriptase
p5956
aVthymuses
p5957
aVp27Kip1
p5958
aVsource
p5959
aVMicroBeads
p5960
aVp21ras
p5961
aVhybridization
p5962
aV+170
p5963
aVCells
p5964
aVReversions
p5965
aVprecipitation
p5966
aVfollows
p5967
aVflux
p5968
aVWild-type
p5969
aVErbB
p5970
aVNIMR
p5971
aVrheumatoid
p5972
aVoften
p5973
aVDefective
p5974
aVmetabolic
p5975
aVabsolutely
p5976
aVabundantly
p5977
aVback
p5978
aVSingle-stranded
p5979
aVimmunologic
p5980
aVtyrosyl
p5981
aVaccelerate
p5982
aVMeCP
p5983
aVpronounced
p5984
aVendotoxic
p5985
aVcontacts
p5986
aVaffects
p5987
aVdecision
p5988
aVintegration
p5989
aV-inducible
p5990
aVendotoxin
p5991
aVconnecting
p5992
aVeliminate
p5993
aVionophore
p5994
aVaugmenting
p5995
aVpatient
p5996
aV300
p5997
aVimmunoprecipitated
p5998
aVTGF-beta1
p5999
aVGlucocorticoid-induced
p6000
aVEnhancer
p6001
aVGATA-binding
p6002
aVUSA-derived
p6003
aVSIVmac
p6004
aVEnhanced
p6005
aVsequence-specific
p6006
aVconsequently
p6007
aVcoculture
p6008
aVPP-2A-opposing
p6009
aVNeo
p6010
aVIncrease
p6011
aVframes
p6012
aVnon-canonical
p6013
aVrelapses
p6014
aVpathologic
p6015
aVC-mediated
p6016
aVsubcellular
p6017
aVIV/Gr
p6018
aVv-Myb
p6019
aVvirions
p6020
aVstage-specific
p6021
aVinfected
p6022
aVcell-initiated
p6023
aVNF-kappaB-like
p6024
aVsignal-transducing
p6025
aVtranfection
p6026
aVSteel
p6027
aVjuxtaposed
p6028
aVmechanistic
p6029
aVunderlined
p6030
aVquiescent
p6031
aVunstimulated
p6032
aVbreakpoint
p6033
aVmigrating
p6034
aV-activated
p6035
aVItk
p6036
aVdirected
p6037
aVcocultures
p6038
aVrejection
p6039
aVblockage
p6040
aVketone
p6041
aVcocultured
p6042
aVanti-oxidative
p6043
aVrecognition
p6044
aVepisome
p6045
aVconstant
p6046
aV/CD18
p6047
aVsingle
p6048
aVorganizational
p6049
aVformally
p6050
aV%
aVTAL1
p6051
aVMax
p6052
aVetiologies
p6053
aVthalassaemia
p6054
aVMac
p6055
aVfunctionality
p6056
aVMaf
p6057
aVdes-Arg
p6058
aVexplaining
p6059
aVendocrine
p6060
aVprepared
p6061
aVTh17
p6062
aVaggregated
p6063
aVteceptor
p6064
aVsilencing
p6065
aV2003
p6066
aV2006
p6067
aVpresenting
p6068
aV2005
p6069
aVuterus
p6070
aVfailures
p6071
aVpDelta-kappaB-HIV-CAT
p6072
aVsynovium
p6073
aVapocynin
p6074
aVinitiating
p6075
aVpneumoniae
p6076
aVamplifies
p6077
aVerythropoiesis
p6078
aVamplified
p6079
aVpurine-box/ARRE/NF-AT
p6080
aVRetroviral
p6081
aVHT93A
p6082
aVanergic
p6083
aVreductions
p6084
aVeffectors
p6085
aVIRAK2
p6086
aVCD33
p6087
aVassay
p6088
aVreinfusion
p6089
aVpromoter-proximal
p6090
aVRegion
p6091
aVGATA3
p6092
aVGATA1
p6093
aVmolar
p6094
aVentire
p6095
aVmuE3-binding
p6096
aVTcf-responsive
p6097
aVshock
p6098
aVantigen-driven
p6099
aVmobilize
p6100
aVRemarkably
p6101
aVHNFs
p6102
aVdimer
p6103
aVrel-related
p6104
aVantigen
p6105
aVreplicates
p6106
aVone-tenth
p6107
aVP/I-inducible
p6108
aVsynergism
p6109
aV3C
p6110
aV3B
p6111
aV3A
p6112
aV70-kDa
p6113
aVXIST
p6114
aVBioactivation
p6115
aV-24
p6116
aV-20
p6117
aVcotransfecting
p6118
aVFasL
p6119
aVpp70S6K
p6120
aVPAO
p6121
aV47-kDa
p6122
aVCNI-1493
p6123
aVdissection
p6124
aVc-abl
p6125
aVexchange
p6126
aVProteins
p6127
aVspacing
p6128
aVhealing
p6129
aVIEF-1
p6130
aVothers
p6131
aVoxidative
p6132
aV300-bp
p6133
aVsafer
p6134
aVMeyaard
p6135
aV38
p6136
aVChinese
p6137
aV33
p6138
aV32
p6139
aV31
p6140
aV30
p6141
aV36
p6142
aV35
p6143
aVtranslation-dependent
p6144
aVprincipally
p6145
aVelastatinal
p6146
aVcomposed
p6147
aVfourfold
p6148
aVnamed
p6149
aVcyclotetrapeptide
p6150
aVSMX
p6151
aVFcR
p6152
aVnontuberculous
p6153
aVdecrease
p6154
aVTreatment
p6155
aVadministration
p6156
aVgamma-specific
p6157
aVFN
p6158
aVdermatitis
p6159
aVFv
p6160
aVanoxia/reoxygenation
p6161
aVFc
p6162
aVAnalyzed
p6163
aVthemselves
p6164
aVGGGGGCTTTCCC
p6165
aVDFX
p6166
aV0.5
p6167
aVPyrrolidinedithiocarbamate
p6168
aVemigration
p6169
aVtransient
p6170
aVnormalized
p6171
aVsteroid-induced
p6172
aVF1
p6173
aVaccount
p6174
aVNFIL-2A
p6175
aVpost-transcription
p6176
aVdesferrioxamine
p6177
aVNREs
p6178
aVobvious
p6179
aVEBNA-2
p6180
aVF.
p6181
aVNF-AT-1
p6182
aVlong-terminal
p6183
aVcalcium-signaling
p6184
aVe.g.
p6185
aVMobilization
p6186
aVproportions
p6187
aVrepeat-KB
p6188
aVeffectively
p6189
aVGlucocorticoid
p6190
aVnative
p6191
aVvaried
p6192
aVMethylation-sensitive
p6193
aVc-rel-specific
p6194
aVActivation
p6195
aVregions
p6196
aVvaries
p6197
aVattachment
p6198
aVprofile
p6199
aVflanking
p6200
aVABI
p6201
aVleukemia
p6202
aVgammac
p6203
aVmultiplication
p6204
aVastrocyte-derived
p6205
aV1beta
p6206
aVJhan
p6207
aVHIV
p6208
aVoverexpression
p6209
aVAttenuated
p6210
aVBHA
p6211
aVbind
p6212
aVlines
p6213
aVcorrespond
p6214
aVsynthase
p6215
aVinhibitable
p6216
aVlive-HIV-1
p6217
aVsubsequently
p6218
aVoctamerlike
p6219
aVtranscripts
p6220
aVerythropoietin
p6221
aVPEBP2
p6222
aVchemotherapeutic
p6223
aVFK506
p6224
aVsubclones
p6225
aVage
p6226
aVlp
p6227
aVimmunoblot
p6228
aVglobins
p6229
aVgreater
p6230
aVankyrin-rich
p6231
aVLPS
p6232
aVphagocytes
p6233
aVAntibody
p6234
aVday
p6235
aVserpentine
p6236
aVidentified
p6237
aVcorrelative
p6238
aVmodulations
p6239
aVvirulent
p6240
aVV.B.
p6241
aVgp120-anti-gp120
p6242
aVCorticosteroids
p6243
aVAP-1-regulated
p6244
aVmelanomas
p6245
aVPrevious
p6246
aVactivate
p6247
aVproliferating
p6248
aVabrogation
p6249
aV2-4-fold
p6250
aVNitric
p6251
aVautoimmunity
p6252
aVphosphoryl
p6253
aVrepress
p6254
aVChing
p6255
aVmessenger
p6256
aVrel
p6257
aVM-TAT/GM-CSF
p6258
aVCSF
p6259
aVclarify
p6260
aVapproaches
p6261
aVNK
p6262
aVCysteine
p6263
aVIL-1ra
p6264
aV-deficient
p6265
aVEnforced
p6266
aVinteraction
p6267
aVoff-rate
p6268
aVhomodimers
p6269
aVFold
p6270
aVAlcohol-induced
p6271
aVInvitrogen
p6272
aVfacilitate
p6273
aVdown-regulatory
p6274
aVCD71
p6275
aV-BD
p6276
aVAdministration
p6277
aVreached
p6278
aVmoiety
p6279
aVxanthine
p6280
aVPAFR
p6281
aVintermediate
p6282
aVc-mim
p6283
aVA-treated
p6284
aVHIV-1-encoded
p6285
aVintegrins
p6286
aVtetrahexamer
p6287
aVexplanation
p6288
aVB-mediated
p6289
aVheterodimeric
p6290
aVsporadically
p6291
aVphorbol
p6292
aVoxidant-induced
p6293
aVtat-I
p6294
aVtransduced
p6295
aVubiquitously
p6296
aVDouble-stranded
p6297
aVabolishes
p6298
aVinversely
p6299
aVcompensation
p6300
aVelectrostatic
p6301
aVtransduces
p6302
aVtransducer
p6303
aVassays
p6304
aVmuA
p6305
aVabolished
p6306
aVLastly
p6307
aVcytoplasm
p6308
aVcurves
p6309
aVunlikely
p6310
aVhave
p6311
aVClusters
p6312
aVapparently
p6313
aVX-linked
p6314
aVimmobilization
p6315
aVminimally
p6316
aVmin
p6317
aVdegranulate
p6318
aVISG54
p6319
aVCCACC/Sp1
p6320
aVserine
p6321
aVunless
p6322
aVxenobiotic
p6323
aVproinflammatory
p6324
aVmimics
p6325
aVSuperantigens
p6326
aVpreliminary
p6327
aVcloned
p6328
aVtranscript
p6329
aVMEK1S218/222A
p6330
aVHS1-5
p6331
aVSome
p6332
aVdisease
p6333
aVPotent
p6334
aVproline-rich
p6335
aVartificially
p6336
aVnormally
p6337
aVDMSO-induced
p6338
aVselection
p6339
aVagammaglobulinemia
p6340
aVsupported
p6341
aVactinomycin-D
p6342
aVphagocytosis
p6343
aVHeLa
p6344
aVpZVB70
p6345
aVantiserum
p6346
aVknowledge
p6347
aVKitani
p6348
aVmug
p6349
aVcontrols
p6350
aVprolong
p6351
aVmicrobially
p6352
aVecto-5
p6353
aVregularly
p6354
aVpeptide
p6355
aVMechanical
p6356
aVanti-lambda
p6357
aVRaf/MEK
p6358
aVareas
p6359
aVsubstrata
p6360
aVsubstrate
p6361
aVSMX-NHOH
p6362
aViNOS
p6363
aVhGR
p6364
aVbeta-casein
p6365
aVgranurocytes
p6366
aVfixed
p6367
aVattenuate
p6368
aVenhancer
p6369
aVenhances
p6370
aVGABPalpha
p6371
aVexists
p6372
aVintensity
p6373
aVVarious
p6374
aVenhanced
p6375
aVphases
p6376
aVSTAT5B
p6377
aVpattern
p6378
aVChIP
p6379
aVcalcium-independent
p6380
aVproof
p6381
aVphased
p6382
aVguanylhydrazone
p6383
aVelement-like
p6384
aVprogress
p6385
aVboundary
p6386
aValveolar
p6387
aVGM-CSF
p6388
aVsuperior
p6389
aVdeliver
p6390
aVbiosynthesis
p6391
aVS
aV-response
p6392
aVets-related
p6393
aVMultiple
p6394
aVimpairments
p6395
aVtriptolide
p6396
aVtaking
p6397
aVequal
p6398
aVmorphologic
p6399
aVNF-kappaB-driven
p6400
aVtransplantation
p6401
aVotherwise
p6402
aVrevert
p6403
aVinflammatory
p6404
aVabortive
p6405
aVX-box
p6406
aVerythrocyte
p6407
aVcopies
p6408
aVIKB
p6409
aVmafK
p6410
aVALF1
p6411
aV-defective
p6412
aVIKK
p6413
aVdefine
p6414
aVComparison
p6415
aVtype-specificity
p6416
aVTbx21
p6417
aVTFIIIB90
p6418
aVIRES
p6419
aVMitogen
p6420
aVanti-Runx3
p6421
aVacetate
p6422
aVCTCAGGA-3
p6423
aVresultant
p6424
aVdivisions
p6425
aVpre-B
p6426
aVappearance
p6427
aVfluorophosphate-thrombin
p6428
aVpromoter
p6429
aVpromotes
p6430
aVagar
p6431
aV69-bp
p6432
aVpromoted
p6433
aVensuing
p6434
aVbiologically
p6435
aVbiphasic
p6436
aVCDH13
p6437
aVhelper
p6438
aVinterleukin-12
p6439
aVinterleukin-13
p6440
aVinterleukin-10
p6441
aVhelped
p6442
aV-Elf-1
p6443
aVpartner
p6444
aVregression
p6445
aVsequentially
p6446
aVSOD
p6447
aV-directed
p6448
aVindistinguishable
p6449
aVanti-C/EBPbeta
p6450
aVkinase-dependent
p6451
aVpost-receptor
p6452
aVMBP
p6453
aVserum-free
p6454
aVSDS-PAGE
p6455
aV-61
p6456
aVintravascular
p6457
aVDeletional
p6458
aVAims
p6459
aVion
p6460
aVimmunocytochemistry
p6461
aVFLRE
p6462
aVtighter
p6463
aVanti-NF-ATp
p6464
aVcenter
p6465
aVConversely
p6466
aVthought
p6467
aVanti-NF-ATc
p6468
aVsets
p6469
aVposition
p6470
aVTotal
p6471
aVdephosphorylate
p6472
aVfetal
p6473
aVcarcinoma-derived
p6474
aVWillebrand
p6475
aVstores
p6476
aVgranulomonocytic
p6477
aVcytokine-activated
p6478
aVunderlying
p6479
aVFourth
p6480
aVTRE1
p6481
aVprotecting
p6482
aVTeflon
p6483
aVTCDD
p6484
aVectopic
p6485
aVcharacteristically
p6486
aVtests
p6487
aVdimers
p6488
aVRpd3p
p6489
aVapoptosis-resistant
p6490
aVEL-4
p6491
aVinsert
p6492
aVdisplaced
p6493
aVlike
p6494
aVexcluding
p6495
aVpromoter-enhancer
p6496
aVGDSP
p6497
aV1-binding
p6498
aVclassical
p6499
aVSL3-3
p6500
aVMZF-1
p6501
aVmetalloproteinases
p6502
aVRunx1
p6503
aVhyperproduction
p6504
aVproper
p6505
aVGal4
p6506
aVcaspases
p6507
aVimmunomodulator
p6508
aV-protein
p6509
aVcoregulation
p6510
aVhyperphosphorylated
p6511
aVOSM
p6512
aVestradiol
p6513
aVassuming
p6514
aVup-regulate
p6515
aVchains
p6516
aVCyclin
p6517
aVlipid
p6518
aVslight
p6519
aVremedies
p6520
aVhost
p6521
aValthough
p6522
aVionomycin/cyclosporin
p6523
aVpanel
p6524
aVabout
p6525
aVGeneration
p6526
aVneurons
p6527
aVJapan
p6528
aVintroduced
p6529
aV9-cis-RA
p6530
aVPit-1
p6531
aVCoCl2
p6532
aVTwo
p6533
aVchronic
p6534
aVtermini
p6535
aVfemale
p6536
aVPan-2
p6537
aVproteolysis
p6538
aV3.3-fold
p6539
aV1986
p6540
aVTCR-initiated
p6541
aVnonresponsiveness
p6542
aV97-kDa
p6543
aVimmunotherapy
p6544
aV1988
p6545
aVp-FoxO1
p6546
aVDex
p6547
aVRel/NF-kappaB
p6548
aV105-kD
p6549
aVglia
p6550
aVCalcineurin
p6551
aVestrogen-dependent
p6552
aVlymphopoiesis
p6553
aV20,21
p6554
aV/NFATc3
p6555
aVpreparations
p6556
aVrepeated
p6557
aVHsN3
p6558
aVDec
p6559
aVversatile
p6560
aVpartially
p6561
aVNF-kappaB/NF-AT
p6562
aVsterol
p6563
aV8/8
p6564
aVsecrete
p6565
aV89
p6566
aVN-Oct-factors
p6567
aVminutes
p6568
aVreticulocytes
p6569
aVImmunocytochemistry
p6570
aVIL2Rbeta
p6571
aVCD54
p6572
aV-p65
p6573
aVcytokines/LPS
p6574
aVwell-defined
p6575
aVperiods
p6576
aVhypo-acetylation
p6577
aVecotropic
p6578
aVproceeds
p6579
aV48
p6580
aV46
p6581
aV47
p6582
aV45
p6583
aVcoexpression
p6584
aV43
p6585
aV40
p6586
aVGy/min
p6587
aVmast
p6588
aVCellular
p6589
aVAltogether
p6590
aV85
p6591
aVtransfection
p6592
aVvariation
p6593
aVaugmentation
p6594
aV4D
p6595
aV4B
p6596
aV4C
p6597
aV4A
p6598
aVSKF525a
p6599
aVderegulates
p6600
aVprevalent
p6601
aVresolution
p6602
aVThus
p6603
aV3,4-dichloroisocoumarin
p6604
aVderegulated
p6605
aVDual
p6606
aVaugmented
p6607
aVLPS-binding
p6608
aVlimited
p6609
aVTargeting
p6610
aVcytosol
p6611
aVMi-2-HDAC
p6612
aVadherence-dependent
p6613
aVfacilities
p6614
aVRedox
p6615
aV110-kDa
p6616
aV40-fold
p6617
aVassembled
p6618
aVcytokines
p6619
aVpoorly
p6620
aVtherapeutics
p6621
aVSos2
p6622
aVSos1
p6623
aVmNFATc
p6624
aVresynthesized
p6625
aVintron
p6626
aVVD-responsive
p6627
aVAdditionally
p6628
aVG.
p6629
aVleukocytes
p6630
aVdivergent
p6631
aVnonresident
p6632
aVGR
p6633
aVGP
p6634
aV1p21-22
p6635
aVrise
p6636
aVGF
p6637
aVGC
p6638
aVupstream
p6639
aVmonkeys
p6640
aVencounter
p6641
aVGH
p6642
aV5-lipoxygenase
p6643
aVbelieved
p6644
aVGr
p6645
aVtransduce
p6646
aVinduction
p6647
aVinterleukin-1alpha
p6648
aVGy
p6649
aVAzeptin
p6650
aVtoxin-insensitive
p6651
aVGi
p6652
aVRo
p6653
aVzinc
p6654
aVconsistent
p6655
aVguidelines
p6656
aVdirect
p6657
aVheterozygotic
p6658
aVsurrounding
p6659
aVinfiltration
p6660
aVcovalent
p6661
aVneonate
p6662
aVmutational
p6663
aVclinicians
p6664
aVorganisms
p6665
aVselected
p6666
aVsupplied
p6667
aVStat3gamma
p6668
aVCREB-dependent
p6669
aVinjections
p6670
aVegr-1
p6671
aVTepoxalin
p6672
aVmicrosequencing
p6673
aVCML-T1
p6674
aVethanol
p6675
aVrepresented
p6676
aVleaves
p6677
aVchanged
p6678
aVSurprisingly
p6679
aVCpG
p6680
aVchanges
p6681
aVhydrophobic
p6682
aVmonocyte-mediated
p6683
aV-containing
p6684
aVJunB
p6685
aVJunD
p6686
aVperpetuated
p6687
aVBAY11-7085
p6688
aVprotein-2
p6689
aVPBMC
p6690
aVSRE/CArG
p6691
aVconvertase
p6692
aVwould
p6693
aVA-resistant
p6694
aVHut102
p6695
aVherbimycin
p6696
aVmediate
p6697
aVxenografts
p6698
aVE2A
p6699
aVRecombinant
p6700
aVPECAM-1
p6701
aVmM
p6702
aVcorrespondingly
p6703
aVfeed-forward
p6704
aVradical-generating
p6705
aVreal-time
p6706
aVleukemia-specific
p6707
aVmust
p6708
aVabundance
p6709
aVmg
p6710
aVml
p6711
aVmo
p6712
aVI-kappaBalpha
p6713
aVsubvolumes
p6714
aVmu
p6715
aVtritiated
p6716
aVroute
p6717
aV6-8-fold
p6718
aVCD95
p6719
aVhemoglobin
p6720
aVpreserving
p6721
aVof/or
p6722
aVfludarabine
p6723
aVIIb
p6724
aVpathology
p6725
aVend
p6726
aVtopographical
p6727
aVtransendothelial
p6728
aV-3059
p6729
aVimplicating
p6730
aVlesions
p6731
aVfoliosa
p6732
aVtoxin
p6733
aVadjacent
p6734
aVtoxic
p6735
aVdPRL
p6736
aVIII
p6737
aVHCMV
p6738
aVarthritis
p6739
aVsubfragment
p6740
aVpolymerase
p6741
aVEpo-R
p6742
aV1,25
p6743
aVFludarabine-induced
p6744
aVTNFalpha
p6745
aVcrossreactive
p6746
aVhypotheses
p6747
aVoligomer
p6748
aVcomplexity
p6749
aV/tal
p6750
aVcorrelation
p6751
aVbase-pair
p6752
aVinterpretation
p6753
aVMn-SOD
p6754
aVembryogenesis
p6755
aVover
p6756
aVSelected
p6757
aVIkaros
p6758
aVapoptosis-inducing
p6759
aVstaining
p6760
aVdigest
p6761
aVSAC
p6762
aVSAA
p6763
aVPRRIII
p6764
aVHere
p6765
aV66-68
p6766
aVcompensatory
p6767
aVcondition
p6768
aV400
p6769
aVcalcineurin-binding
p6770
aVAclacinomycin
p6771
aVTax-responsive
p6772
aVphenotype
p6773
aVdeoxy-3
p6774
aVblots
p6775
aVdiseases
p6776
aVchromatography
p6777
aVprevented
p6778
aVCHO
p6779
aVColinear
p6780
aVIkappaB
p6781
aVInterleukin-12
p6782
aVInterleukin-13
p6783
aVInterleukin-10
p6784
aVDBF
p6785
aVFour
p6786
aVeach
p6787
aVGenomic
p6788
aVAdding
p6789
aVGGAA-3
p6790
aVG2/M
p6791
aVisotype-specific
p6792
aVcombining
p6793
aVprogesterone
p6794
aVphosphatases
p6795
aVposttransfection
p6796
aVFcR-mediated
p6797
aVdriving
p6798
aVwashed
p6799
aVvimentin
p6800
aVnewly
p6801
aVindependence
p6802
aVGCA
p6803
aVdown-regulation
p6804
aVTCF1
p6805
aVassociate
p6806
aV/ERK1
p6807
aVfree
p6808
aVStrains
p6809
aVoncogenesis
p6810
aVformation
p6811
aVcyclophilin
p6812
aVconalbumin
p6813
aVStudies
p6814
aVAFR
p6815
aVwidespread
p6816
aVHiscott
p6817
aVTIMP
p6818
aVTACI
p6819
aVdays
p6820
aVmegakaryocyte
p6821
aVGCs
p6822
aVIkappaBalpha
p6823
aVsmokers
p6824
aVCaM-K
p6825
aVseparable
p6826
aValready
p6827
aVJorritsma
p6828
aVcoding
p6829
aVprimary
p6830
aVrank
p6831
aVAREs
p6832
aVLEF1/BCF1
p6833
aVwild-type
p6834
aVAU-DD
p6835
aVdysfunction
p6836
aVtheir
p6837
aV-expression
p6838
aVactivators
p6839
aVneutralizing
p6840
aVTRADD
p6841
aV0.05
p6842
aVconfirming
p6843
aVROI-NF-kappa
p6844
aVpercentage
p6845
aV-1,056
p6846
aVTime-course
p6847
aVtool
p6848
aVserve
p6849
aVfunction-related
p6850
aVTGACGTCA
p6851
aVinjected
p6852
aVInhibitor
p6853
aVG2
p6854
aV48,49
p6855
aVintegrin-dependent
p6856
aV-181
p6857
aVroles
p6858
aV-187
p6859
aVclasses
p6860
aVplasmid
p6861
aVmodulatory
p6862
aVfashion
p6863
aV23,49
p6864
aVGerm
p6865
aVnucleoproteins
p6866
aVrat
p6867
aVras
p6868
aVregulate
p6869
aVaureus
p6870
aVrelatively
p6871
aVSyk
p6872
aVthoroughly
p6873
aVisolated
p6874
aVpredominantly
p6875
aVDisruption
p6876
aVretinoblastoma
p6877
aVCAML
p6878
aVisolates
p6879
aVeffectiveness
p6880
aVdermal
p6881
aVthough
p6882
aVKo
p6883
aVcomplexes
p6884
aVcarcinoma
p6885
aVinterleukin-5
p6886
aVpotency
p6887
aVWang
p6888
aVpartition
p6889
aVflow
p6890
aVcalcineurin/NFAT
p6891
aVLT-betaR
p6892
aVIts
p6893
aVNF-kappaB-DNA
p6894
aVCD30
p6895
aV90-kDa
p6896
aVmanipulation
p6897
aVCD34
p6898
aVCD35
p6899
aVCD36
p6900
aVcarotid
p6901
aVanalogue
p6902
aVavailability
p6903
aVproposed
p6904
aVThereby
p6905
aVsituations
p6906
aVDNMT1
p6907
aVSubstitution
p6908
aV2D3-responsive
p6909
aVBis
p6910
aVCDNA
p6911
aVWEB
p6912
aVmixture
p6913
aVfluid
p6914
aVCo-immunoprecipitation
p6915
aVtuberculosis
p6916
aVreport
p6917
aVPtdIns-mCD14
p6918
aV8p12
p6919
aV15-lipoxygenase
p6920
aVbeads
p6921
aVMoore
p6922
aVdelta-globin
p6923
aVDNMTs
p6924
aV-2987
p6925
aVperoxide
p6926
aVinterspersed
p6927
aVester-induced
p6928
aVNF-kappaB-dependent
p6929
aV11-14
p6930
aVMacrophage-differentiation
p6931
aVdetection
p6932
aVcontext-dependent
p6933
aVPI3K-dependent
p6934
aVovalbumin
p6935
aVmuB
p6936
aVmuM
p6937
aVcofactor
p6938
aVmut
p6939
aVcapacity
p6940
aVD-mediated
p6941
aVHIV-2
p6942
aVHIV-1
p6943
aVfinger
p6944
aVN-acetyl-cysteine
p6945
aVapproach
p6946
aVcross-linked
p6947
aVdiscovery
p6948
aVcolony-stimulating
p6949
aVoxidation
p6950
aVweak
p6951
aVhowever
p6952
aVTreg
p6953
aV36A
p6954
aVcontamination
p6955
aVoxidase
p6956
aVlipase
p6957
aVimprove
p6958
aVprotect
p6959
aVextracts
p6960
aVkinase-1
p6961
aVparticipating
p6962
aVIkBalpha
p6963
aVmildly
p6964
aVp300
p6965
aVhomozygotic
p6966
aVviruses
p6967
aVSamples
p6968
aVGAL4
p6969
aVpcDNA3
p6970
aVSouthern
p6971
aVbeen
p6972
aVquickly
p6973
aVHypoxic
p6974
aVHypoxia
p6975
aVretinoids
p6976
aVexpected
p6977
aVv-rel
p6978
aVL753F
p6979
aVdrugs
p6980
aVmaximally
p6981
aVphosphatidylinositol
p6982
aVn
aVCytokine-stimulated
p6983
aVGudmundsson
p6984
aVdifferentiation-specific
p6985
aVprocedure
p6986
aVR2
p6987
aVarachidonate
p6988
aVglycation
p6989
aVtumorigenesis
p6990
aVpreincubation
p6991
aVinteracts
p6992
aVcontaining
p6993
aVHNF-3alpha
p6994
aVmethyl-CpG-binding
p6995
aVsuggest
p6996
aVLDL-receptor
p6997
aVChemicon
p6998
aVcomplex
p6999
aVunrecognized
p7000
aVseveral
p7001
aVpeaks
p7002
aVaction
p7003
aVimmunohistochemical
p7004
aVHPC
p7005
aVcycle
p7006
aVshortly
p7007
aV-193
p7008
aVATTTGCAT
p7009
aVboxes
p7010
aVantiapoptotic
p7011
aVgreatest
p7012
aVmoieties
p7013
aVCoactivator
p7014
aVLEF/TCF
p7015
aVpossesses
p7016
aV5X
p7017
aVImmortalization
p7018
aVMethyl-CpG-binding
p7019
aVlysophosphatidylcholine
p7020
aVBio-Rad
p7021
aVMTBE
p7022
aVdopamine
p7023
aVHsp70
p7024
aVTNF-alpha
p7025
aV5A
p7026
aVmodulate
p7027
aVfunctionally
p7028
aV5B
p7029
aVmonitored
p7030
aV-3079
p7031
aVnon-erythroid
p7032
aVNFAT-like
p7033
aV-2010
p7034
aV5b
p7035
aVSP-A-dependent
p7036
aVD
aVFluorescence
p7037
aVbands
p7038
aVbreaks
p7039
aVdehydroepiandrosterone
p7040
aVIL-1-RA
p7041
aV-392
p7042
aVRXR
p7043
aVappearing
p7044
aVlymphoproliferation
p7045
aV50
p7046
aV53
p7047
aVspecific
p7048
aV-137
p7049
aVAgain
p7050
aV-135
p7051
aV-131
p7052
aV-130
p7053
aVHS
p7054
aVsuccessfully
p7055
aVHIV1-infected
p7056
aVHU
p7057
aVselectivity
p7058
aVMuch
p7059
aVescape
p7060
aVHF
p7061
aVPathway
p7062
aVHD
p7063
aVSCL
p7064
aVTSC2
p7065
aVReversible
p7066
aVHb
p7067
aVMNC
p7068
aVBlocking
p7069
aVcord
p7070
aVcore
p7071
aVhastens
p7072
aVPBS
p7073
aVdeleted
p7074
aV-signaling
p7075
aVFosB
p7076
aVpaclitaxel-induced
p7077
aVPBM
p7078
aVPBL
p7079
aVH9
p7080
aVepisomal
p7081
aVH2
p7082
aVH1
p7083
aVfenofibrate
p7084
aVVitro
p7085
aVH4
p7086
aVH5
p7087
aVmontana
p7088
aVensure
p7089
aVStill
p7090
aVGo-6976
p7091
aVpresence
p7092
aVreceptor/CD3
p7093
aVBR3
p7094
aVReceptors
p7095
aVup-regulating
p7096
aVTCR-stimulated
p7097
aVrelB
p7098
aVrelA
p7099
aVmultifunctional
p7100
aVcomparing
p7101
aVindispensable
p7102
aVtransform
p7103
aVsunlight
p7104
aVclass
p7105
aVB/I
p7106
aVneutrophil-specific
p7107
aVGM2
p7108
aVmetabolism
p7109
aVsynthesis
p7110
aVADT
p7111
aVmedium
p7112
aVattempted
p7113
aVdifferences
p7114
aVBRs
p7115
aVheat
p7116
aVsustained
p7117
aVTNFR-associated
p7118
aVremoved
p7119
aVLCLs
p7120
aVMitogen-mediated
p7121
aVportions
p7122
aVversions
p7123
aVvivo
p7124
aVphosphate
p7125
aV5-hydroxyeicosatetraenoic
p7126
aVco-opted
p7127
aVprematurely
p7128
aVVisceral
p7129
aVTRAFs
p7130
aVnM
p7131
aVIntroduction
p7132
aVMolt4
p7133
aVHM
p7134
aV768-bp
p7135
aVimmunopathology
p7136
aVmutagenized
p7137
aVActivator
p7138
aVcheck
p7139
aVbcr/abl
p7140
aVHigh
p7141
aVno
p7142
aVwhereas
p7143
aVwhen
p7144
aVSN-50
p7145
aVng
p7146
aVmetaphases
p7147
aVrapidity
p7148
aVtie
p7149
aVnt
p7150
aVVLA-4
p7151
aVnode
p7152
aVpicture
p7153
aVTRAF2
p7154
aVpermitting
p7155
aVInterferon-alpha
p7156
aVTRAF6
p7157
aVPaclitaxel
p7158
aVpreceding
p7159
aVsteroid/thyroid
p7160
aVimportin
p7161
aVNF-YA
p7162
aVlonger
p7163
aVinitiates
p7164
aVuncovered
p7165
aVSCD
p7166
aVTAFII250
p7167
aVnuclei
p7168
aVwinged-helix
p7169
aVIkappaB-alpha
p7170
aVanaphylatoxins
p7171
aVparticular
p7172
aVco-treatment
p7173
aVleads
p7174
aViNO
p7175
aV.05
p7176
aVfunctioned
p7177
aVremarkably
p7178
aVdisplaying
p7179
aVdiscern
p7180
aVinverse
p7181
aVantigen/APC
p7182
aVproliferation-associated
p7183
aVnonrandomly
p7184
aVenvironment
p7185
aVcharge
p7186
aVsequestered
p7187
aVpromoting
p7188
aVHePTP
p7189
aV3.2-fold
p7190
aVLPS-free
p7191
aVmethyl
p7192
aVadvantage
p7193
aVoligodeoxynucleotides
p7194
aVco-transfected
p7195
aVMyD88
p7196
aVAnaphylatoxins
p7197
aVHIV-1-LTR-driven
p7198
aVlevel
p7199
aVculminating
p7200
aVhomeostatic
p7201
aVLEF-1
p7202
aVTransient-transfection
p7203
aVaccumulation
p7204
aV6-h
p7205
aVPPARgamma
p7206
aVsuffices
p7207
aVRel
p7208
aVbacteria
p7209
aVRed
p7210
aVmolecule-mediated
p7211
aVstressful
p7212
aVp95vav
p7213
aVheat-inactivated
p7214
aVJAK2
p7215
aVphosphatase
p7216
aVSite-directed
p7217
aVretroviral
p7218
aV14,63-65
p7219
aVNF-E2
p7220
aV-L2
p7221
aV-L3
p7222
aV8-fold
p7223
aVgroups
p7224
aVTNF-induced
p7225
aV[
aVAgs
p7226
aVmacrophage-competent
p7227
aVunidentified
p7228
aVmale
p7229
aVhealthy
p7230
aV-LBD
p7231
aVCD16
p7232
aVCD14
p7233
aVCD15
p7234
aVCD13
p7235
aVthioredoxin
p7236
aVCD18
p7237
aVCD19
p7238
aVmimicked
p7239
aVsevenfold
p7240
aVinducing
p7241
aVdioxin
p7242
aVmodifying
p7243
aVrestimulation
p7244
aVTherefore
p7245
aVadenovirus-mediated
p7246
aVislet
p7247
aVtyrosines
p7248
aVOctamer
p7249
aVDifferences
p7250
aVmacrophage-CSF
p7251
aVherpes
p7252
aVmemory
p7253
aVstress-dependent
p7254
aVPI3K
p7255
aVThese
p7256
aVcytokine-producing
p7257
aVTime
p7258
aVNF-X2
p7259
aVcases
p7260
aVExpression
p7261
aVinsights
p7262
aVmodified
p7263
aVelectrochemistry
p7264
aVB/Rel
p7265
aVL32
p7266
aVisomer
p7267
aVrecultured
p7268
aVphosphorylate
p7269
aVperformed
p7270
aVtherapeutical
p7271
aVlipoproteins
p7272
aVrequirements
p7273
aVinheritance
p7274
aVproerythroblasts
p7275
aVheat-labile
p7276
aVS32
p7277
aV1
aVvital
p7278
aVH.
p7279
aVinterferon-stimulated
p7280
aVX-rays-induced
p7281
aVcocktail
p7282
aVquantified
p7283
aVclone
p7284
aVEMSAs
p7285
aVTHR
p7286
aVneutrophil-endothelial
p7287
aVCTLL-2
p7288
aVSP-B21
p7289
aVligated
p7290
aVpurification
p7291
aVTriciribine
p7292
aVJeang
p7293
aVuninduced
p7294
aVSmu/Sepsilon
p7295
aVFra-1
p7296
aVexclusive
p7297
aVconstituents
p7298
aVmainly
p7299
aVRARs
p7300
aVE2F-like
p7301
aV3H-PGG-Glucan
p7302
aVpurine-box/antigen
p7303
aVblocked
p7304
aVprocedures
p7305
aVsuboptimal
p7306
aVEffects
p7307
aVTP1
p7308
aVcoordinated
p7309
aVactivation-deficient
p7310
aVrapamycin
p7311
aVA/C
p7312
aVTPA
p7313
aVNIK
p7314
aVTPO
p7315
aVCD62L
p7316
aVevolution
p7317
aVSMX-NO
p7318
aVautosome
p7319
aVA/R
p7320
aVAdherence
p7321
aV26.4
p7322
aVHRF
p7323
aVDO11
p7324
aVTriggering
p7325
aVname
p7326
aVIL-18
p7327
aVeicosanoid
p7328
aVpaclitaxel
p7329
aVIL-15
p7330
aVIL-12
p7331
aVIL-13
p7332
aVIL-10
p7333
aVFibrin
p7334
aVanti-CD2-mediated
p7335
aVStat5a
p7336
aVmb-1
p7337
aVself-renewal
p7338
aVemTGACATCAem
p7339
aVmembrane-bound
p7340
aVerythrocytes
p7341
aVautoregulation
p7342
aVgaps
p7343
aVprotein-binding
p7344
aVSIVmac251
p7345
aVultimately
p7346
aVfactors
p7347
aVplasmids
p7348
aVcontradiction
p7349
aVoxidative-stress
p7350
aVimmuno-deficiency
p7351
aVU0126
p7352
aVpathogenic
p7353
aVRFX
p7354
aVtreatments
p7355
aVFACSCalibur
p7356
aVwell-recognized
p7357
aVMAD3
p7358
aVNF-kappaB/IkappaB
p7359
aVG1/S
p7360
aVSV40
p7361
aVmethylation
p7362
aVgranule
p7363
aVturn
p7364
aVplace
p7365
aVELK-1
p7366
aVorigin
p7367
aV-118
p7368
aV-116
p7369
aVrequirement
p7370
aVETS-like
p7371
aVreintroduction
p7372
aVcytokine-stimulated
p7373
aVantirheumatic
p7374
aVarray
p7375
aVgiven
p7376
aVGSK3beta
p7377
aVBiotec
p7378
aVfibrinogen
p7379
aVsnRNA-encoding
p7380
aVubiquitin-proteasome
p7381
aVplastic
p7382
aVstimulation
p7383
aVcarboxyl-terminus
p7384
aVreturns
p7385
aVconservation
p7386
aV.c-rel
p7387
aVSEA
p7388
aVSuch
p7389
aVSEM
p7390
aVData
p7391
aVexploring
p7392
aVreleases
p7393
aVorphan
p7394
aVreleased
p7395
aVpathogens
p7396
aVcopy
p7397
aVintrinsically
p7398
aVpopulation
p7399
aVROI-dependent
p7400
aVrequire
p7401
aVoligonucleotides
p7402
aVr
aVfunction/recruitment
p7403
aVoutcome
p7404
aVand
p7405
aVPMA/PHA
p7406
aVhead
p7407
aVdynamically
p7408
aVtrimer
p7409
aVHSP70B
p7410
aVmotif-specific
p7411
aVany
p7412
aVconversion
p7413
aV8.5-fold
p7414
aVCNI
p7415
aVtranscription
p7416
aVdesArg
p7417
aVFigureS1A
p7418
aVepsilon
p7419
aVSB202190
p7420
aVmicrog/ml
p7421
aVmultiple
p7422
aVinterferons
p7423
aVprecluded
p7424
aVGangliosides
p7425
aVMLR
p7426
aVMLV
p7427
aV17-bp
p7428
aVcleared
p7429
aVprobes
p7430
aVconsidered
p7431
aVlater
p7432
aVNF-kappaB-binding
p7433
aVNRE
p7434
aVplaying
p7435
aVBP1
p7436
aVPKC-dependent
p7437
aVpeptides
p7438
aVBP2
p7439
aVcortex
p7440
aV2.6-fold
p7441
aVparacrine
p7442
aV1:100
p7443
aVpermeable
p7444
aVdrastically
p7445
aVMutational
p7446
aVH-89
p7447
aV-163
p7448
aVResearch
p7449
aVcyclosporin
p7450
aVAllelic
p7451
aVhomology
p7452
aVmyristylation
p7453
aVco-repressor
p7454
aVB-2
p7455
aVp62c-fos
p7456
aVB-1
p7457
aVUT-7
p7458
aV-associated
p7459
aVC-independent
p7460
aVTCR-directed
p7461
aVLTB4
p7462
aVbypassing
p7463
aVH
aVssp
p7464
aVchamissonolid
p7465
aVresponding
p7466
aVSimilar
p7467
aVreveal
p7468
aVeosinophils
p7469
aVadhesion-dependent
p7470
aVdifferentiation-associated
p7471
aVpredicted
p7472
aVmapped
p7473
aVIL-1RI
p7474
aVubiquitinated
p7475
aVreveals
p7476
aVIL-12p40
p7477
aVLY294002
p7478
aValkaloids
p7479
aVT-cell
p7480
aV-FITC
p7481
aVCaMKIV
p7482
aVdA-dT
p7483
aVsurfaces
p7484
aVwortmannin
p7485
aVfails
p7486
aVdetect
p7487
aVreproducibly
p7488
aVinhibitory
p7489
aVways
p7490
aVsubsequent
p7491
aVreview
p7492
aVcirculating
p7493
aVinhibitors
p7494
aVITF-1
p7495
aVITF-2
p7496
aVspermatogonia
p7497
aVreproducible
p7498
aVglucocorticoid-repressible
p7499
aV-positive
p7500
aVhypophosphorylated
p7501
aVTrapoxin
p7502
aVarteries
p7503
aVTcells
p7504
aVI-kB
p7505
aVHemin
p7506
aVreaction
p7507
aVLSP-1
p7508
aVC3H-gld/gld
p7509
aVregion
p7510
aVtermed
p7511
aVpropagation
p7512
aVearly-induced
p7513
aVRIIIA
p7514
aVoligodeoxyribonucleotides
p7515
aVhepatotoxicity
p7516
aVFISH
p7517
aVcolony
p7518
aVperiod
p7519
aVpoly
p7520
aV60
p7521
aV62
p7522
aVc-Rel
p7523
aVCSFs
p7524
aVbox-specific
p7525
aVBut
p7526
aVIL-1alpha
p7527
aVExcess
p7528
aVhardly
p7529
aVpeaking
p7530
aVTogether
p7531
aVCAAX
p7532
aVEndotoxin
p7533
aV-interacting
p7534
aVprotocols
p7535
aVcase
p7536
aV6A
p7537
aV6B
p7538
aV6C
p7539
aVpredominately
p7540
aVhemin-mediated
p7541
aVpromoter-driven
p7542
aVrefractory
p7543
aVsuboptimally
p7544
aVirrespective
p7545
aVprocoagulant
p7546
aVcoupled
p7547
aVIl10
p7548
aVHTLV-1-associated
p7549
aVdiscrepancy
p7550
aVheteromers
p7551
aVontogeny
p7552
aVconverts
p7553
aVALD-induced
p7554
aVprooxidants
p7555
aVparticipant
p7556
aVdistributions
p7557
aV95-kDa
p7558
aVCV3988
p7559
aVCACCC
p7560
aVGrb2
p7561
aVturnover-degradation
p7562
aVevents
p7563
aVstatus
p7564
aVEts
p7565
aVlymphomas
p7566
aVMVEC
p7567
aVpyruvate
p7568
aVSignal
p7569
aVIV
p7570
aVII
p7571
aVdevoid
p7572
aVIK
p7573
aVIL
p7574
aVp-mTOR
p7575
aVfootprint
p7576
aVchanging
p7577
aVIE
p7578
aVNFAT
p7579
aVantibodies
p7580
aVPhosphatidylinositides
p7581
aVmodes
p7582
aVcytosolic
p7583
aVAbundant
p7584
aVIs
p7585
aVIt
p7586
aVnon-lineage-specific
p7587
aVwithout
p7588
aVcomponents
p7589
aVIn
p7590
aVinability
p7591
aVmodel
p7592
aVIg
p7593
aVIf
p7594
aVtransactivate
p7595
aVtip
p7596
aV2C
p7597
aVactions
p7598
aVstroma
p7599
aVGIRE
p7600
aVkill
p7601
aVdifferentiation
p7602
aVepithelia
p7603
aVC-terminus
p7604
aVForkhead
p7605
aVblot
p7606
aVearly-lytic-cycle
p7607
aVseems
p7608
aVextracellular-signal
p7609
aVsamples
p7610
aVdisrupt
p7611
aVantitumour
p7612
aVester-inducible
p7613
aVHMG-I
p7614
aVMany
p7615
aVCTG-motif
p7616
aVCompetent
p7617
aVconfined
p7618
aVReagents
p7619
aVCD4
p7620
aVIFN-regulated
p7621
aVErythropoietin
p7622
aVparticle
p7623
aVNF-AT-driven
p7624
aVreduces
p7625
aVIFNalpha-induced
p7626
aVhormone-responsive
p7627
aVEnhancement
p7628
aVInsertion
p7629
aVAntigen
p7630
aVhormone-inducible
p7631
aVBCA-method
p7632
aVdifferentially
p7633
aVreduced
p7634
aValpha-tcp
p7635
aVsequencer
p7636
aVTRAF1
p7637
aVinjury/activation
p7638
aVSince
p7639
aVphosphatidylethanolamine
p7640
aVcompetition
p7641
aVlabeling
p7642
aVlow-density
p7643
aVintact
p7644
aVFGFs
p7645
aVprovided
p7646
aVup-regulates
p7647
aV34-fold
p7648
aVup-regulated
p7649
aVinterleukin-1beta
p7650
aVIFN-alpha5
p7651
aVprovides
p7652
aVA/protein
p7653
aVIntranuclear
p7654
aVTR2
p7655
aVyielded
p7656
aVDexamethasone
p7657
aVmulti-organ
p7658
aVA-C
p7659
aV2c
p7660
aVTRE
p7661
aVTRX
p7662
aVG-50
p7663
aVF1-reverse
p7664
aVATCC
p7665
aVabsorbance
p7666
aVTRP
p7667
aVon
p7668
aVHTB
p7669
aVof
p7670
aVparalysis
p7671
aVdiscussed
p7672
aVmutually
p7673
aVconcentrations
p7674
aVor
p7675
aVproto-oncogene
p7676
aVMODY
p7677
aV-88
p7678
aVinterfacing
p7679
aV-87
p7680
aV-81
p7681
aVStimulation
p7682
aVaccounts
p7683
aVdetermine
p7684
aVabrogate
p7685
aVferric
p7686
aVAssay
p7687
aVstrictly
p7688
aVthere
p7689
aVhumoral
p7690
aVcultured
p7691
aV7TD1
p7692
aVdetectable
p7693
aVcalcium-signal
p7694
aVcultures
p7695
aVhemoglobinization
p7696
aVEL4
p7697
aVTrans-activation
p7698
aVCoupling
p7699
aVjun
p7700
aVanti-apoptosis
p7701
aVTh2-specific
p7702
aVCotransfection
p7703
aVmolecule-1
p7704
aVrelate
p7705
aVpromote
p7706
aVFBS
p7707
aVterminus
p7708
aVTruncated
p7709
aVlysozyme
p7710
aVesterase
p7711
aVgranzymes
p7712
aVCoordination
p7713
aVcomplexing
p7714
aVstrongly
p7715
aVPOS-1
p7716
aVautoimmune
p7717
aV-173
p7718
aV-172
p7719
aVmeasurement
p7720
aVmetastasis
p7721
aV-176
p7722
aVtogether
p7723
aVcontrolled
p7724
aVencompass
p7725
aVcollagenase-1
p7726
aV4.5
p7727
aVManLAM
p7728
aV4.3
p7729
aVautocrine
p7730
aVhomodimerization
p7731
aV5
aVPGE2-mediated
p7732
aVB-site
p7733
aVMEK-dependent
p7734
aVmegakaryopoiesis
p7735
aVinterrupts
p7736
aVimmunity
p7737
aVaberrancies
p7738
aVproliferate
p7739
aVCNS
p7740
aVseparate
p7741
aVplasmacytomas
p7742
aVincludes
p7743
aVpicogram
p7744
aVnucleus
p7745
aVICS
p7746
aV5-day
p7747
aVstocks
p7748
aVCD3-mediated
p7749
aVhigh-antigen-dose-induced
p7750
aVcytotoxicity
p7751
aVclinically
p7752
aVCTLA-4
p7753
aVprotein/activation
p7754
aVcurve
p7755
aVlyse
p7756
aVinternalized
p7757
aVmigrated
p7758
aVall
p7759
aVplasmacytoma
p7760
aVlack
p7761
aVc-ErbB
p7762
aVmigrates
p7763
aVfollow
p7764
aVcell-mediated
p7765
aVP-selectin
p7766
aVsynthetic
p7767
aVG0/G1
p7768
aVdifferentiation/activation
p7769
aVsubjected
p7770
aVremoval
p7771
aVmatrix
p7772
aVprogram
p7773
aVvWf
p7774
aVactivities
p7775
aVbelonging
p7776
aVvirtue
p7777
aVfar
p7778
aVfas
p7779
aVinduce
p7780
aVheme
p7781
aVmuteins
p7782
aVtreating
p7783
aVimmunosuppressant
p7784
aVunlike
p7785
aVinducibility
p7786
aVstimulus
p7787
aVevaluation
p7788
aVDOX-treated
p7789
aVTesting
p7790
aVBinding
p7791
aVprolonged
p7792
aVNPC
p7793
aVD-responsive
p7794
aVNK-derived
p7795
aVintegrin
p7796
aVrats
p7797
aVGRO-alpha
p7798
aVmonomorphic
p7799
aVOct-2a
p7800
aVaberrantly
p7801
aVsynergy
p7802
aVrate
p7803
aVdesign
p7804
aV8,45
p7805
aVdeoxyribonuclease
p7806
aVfunctioning
p7807
aVwhat
p7808
aVimported
p7809
aVfusing
p7810
aV2A-sensitive
p7811
aVversion
p7812
aVMice
p7813
aVU/ml
p7814
aVproteasome-mediated
p7815
aVcoimmunoprecipitation
p7816
aVNFAT-containing
p7817
aVEC
p7818
aVobserving
p7819
aVpathway-dependent
p7820
aVCommunication
p7821
aVallows
p7822
aVCREB-1
p7823
aVextremes
p7824
aVsaimiri
p7825
aVrepressor
p7826
aVlysates
p7827
aVDecreased
p7828
aVNF-IL-2B
p7829
aVaberrant
p7830
aVOverall
p7831
aVICRF-193-treated
p7832
aVDCFH-DA
p7833
aVratio-dependent
p7834
aVminor
p7835
aVimmunophilin
p7836
aVdefinition
p7837
aVantibiotics
p7838
aVknown
p7839
aVS-adenosylhomocysteine
p7840
aVserines
p7841
aVpostinduction
p7842
aVtrapping
p7843
aVHD1
p7844
aVerratum
p7845
aVendocytosis
p7846
aVmonospecific
p7847
aVDifferent
p7848
aVionophores
p7849
aVEGFP
p7850
aVIncubation
p7851
aVcytokine-specific
p7852
aVtransduction
p7853
aVinfluenced
p7854
aVHLA-DRA
p7855
aVintegrin-ligand
p7856
aVgoal
p7857
aVperforin
p7858
aVrather
p7859
aV-HA
p7860
aVinfluences
p7861
aVactivator
p7862
aVexplains
p7863
aVTufts
p7864
aVubiquitous
p7865
aVAkv
p7866
aVAkt
p7867
aVreflect
p7868
aVcis-regulatory
p7869
aVinfects
p7870
aVcell-type-independent
p7871
aVTcf-1
p7872
aVconstitutively
p7873
aVshort
p7874
aVSplitting
p7875
aVmedia-stimulated
p7876
aVspecifying
p7877
aVTNFRI
p7878
aVturnover
p7879
aVTLR-dependent
p7880
aVimmunofluorescent
p7881
aVdeveloped
p7882
aVmilliliter
p7883
aVanti-inflammatory
p7884
aV-540
p7885
aVOct
p7886
aVnGRE
p7887
aVFull
p7888
aVsusceptible
p7889
aVinterleukin-1
p7890
aVinterleukin-2
p7891
aVtrans-acting
p7892
aVinterleukin-4
p7893
aVbryostatin
p7894
aVinterleukin-6
p7895
aVinterleukin-7
p7896
aVinterleukin-8
p7897
aVsynthesize
p7898
aVmight
p7899
aValter
p7900
aVgenerously
p7901
aVpim-1
p7902
aVL
aVframework
p7903
aVErk
p7904
aVRaf
p7905
aVRac
p7906
aVcharacterizes
p7907
aVpresented
p7908
aVsequester
p7909
aVRas
p7910
aVinherent
p7911
aVcharacterized
p7912
aVweight
p7913
aVgeneration
p7914
aVmonocyte/B-cell-specific
p7915
aV40,000
p7916
aVdouble-transgenic
p7917
aVMore
p7918
aVMurine
p7919
aVFCS-containing
p7920
aVdiscrete
p7921
aVkappaB-alpha
p7922
aVinduces
p7923
aVinducer
p7924
aVTNF-mediated
p7925
aVadhere
p7926
aVc-Myc
p7927
aVhormone-mediated
p7928
aVanti-viral
p7929
aVCombinations
p7930
aVFigure1B
p7931
aVFigure1A
p7932
aVinduced
p7933
aVremodeling
p7934
aVdysregulation
p7935
aVstop-codons
p7936
aVothersignaling
p7937
aVMutagenesis
p7938
aVsolvent/media
p7939
aVciprofloxacin
p7940
aV1-7
p7941
aV-1609
p7942
aVgenerate
p7943
aVdexamethasone
p7944
aVpreincubated
p7945
aVantigenic
p7946
aVPartial
p7947
aVNF-kappaB-luciferase
p7948
aVconcatamers
p7949
aV/G0S3
p7950
aVSoluble
p7951
aVN-Oct
p7952
aVconsequence
p7953
aVanti-CD3-stimulated
p7954
aVTF-ELISA
p7955
aVWigdahl
p7956
aVabrogates
p7957
aVmCD14
p7958
aVmonolayers
p7959
aVwell-known
p7960
aVdefects
p7961
aVabrogated
p7962
aVimpairing
p7963
aVtemperature
p7964
aVleading
p7965
aVinteract
p7966
aVpronouncedly
p7967
aVdownregulate
p7968
aVrecovered
p7969
aVTLR
p7970
aVAntibodies
p7971
aVoption
p7972
aVrelieved
p7973
aVuncommonly
p7974
aVimprinted
p7975
aV5-fold
p7976
aVprototypic
p7977
aValbeit
p7978
aVHA-1004
p7979
aVpigmentation
p7980
aVamebiasis
p7981
aVdouble
p7982
aVNH2Cl-treated
p7983
aVExogenous
p7984
aVTSH-R
p7985
aVpairwise
p7986
aVdoubly
p7987
aVMAPK
p7988
aVIFN-alpha/beta
p7989
aVv-abl
p7990
aVexert
p7991
aVmultimerizing
p7992
aVdepleted
p7993
aVremodel
p7994
aVnucleosome
p7995
aVARRE
p7996
aV7C
p7997
aV7B
p7998
aVImmunochemical
p7999
aVunprocessed
p8000
aVinterferes
p8001
aVtheses
p8002
aVEts1
p8003
aVGermany
p8004
aVsubstitute
p8005
aV13q14
p8006
aVfinding
p8007
aVElk-1
p8008
aVTcR-derived
p8009
aVPtdIns
p8010
aVadded
p8011
aVmeasures
p8012
aVreach
p8013
aVsteady-state
p8014
aVColigation
p8015
aV73
p8016
aV72
p8017
aV71
p8018
aV70
p8019
aVmeasured
p8020
aV79
p8021
aVstringency
p8022
aVBacterially
p8023
aVUnexpectedly
p8024
aV3/CRE
p8025
aVhindrance
p8026
aV3-kinase
p8027
aVcoincided
p8028
aVEBV-induced
p8029
aVnon-cell-type-specific
p8030
aVdifferentiate
p8031
aVDZA
p8032
aVoctanucleotide
p8033
aVcdc
p8034
aVmyelopoiesis
p8035
aVcdk
p8036
aVantiperforin
p8037
aVPTF-Oct-1-DNA
p8038
aVisogenic
p8039
aV-transcribing
p8040
aVvaso-occlusion
p8041
aVincreasingly
p8042
aVmonochloramine
p8043
aVBM
p8044
aVBV-173
p8045
aVBS-I
p8046
aVJAK3
p8047
aVproteasome
p8048
aVanti-Pol-II
p8049
aVTIS
p8050
aVcontinuum
p8051
aVPHA
p8052
aV-150
p8053
aVinvestigate
p8054
aV-152
p8055
aV-155
p8056
aVactivity
p8057
aVBP
p8058
aVradiation-induced
p8059
aVintergenic
p8060
aVcase-control
p8061
aValanine
p8062
aVachieved
p8063
aVdeclines
p8064
aV2-3-fold
p8065
aVdefense
p8066
aV2-fold
p8067
aVare
p8068
aV2.3
p8069
aV2.0
p8070
aVarm
p8071
aVone-sixth
p8072
aVTNF-stimulated
p8073
aVefficacious
p8074
aVTregs
p8075
aVdistinctive
p8076
aVlibraries
p8077
aVHsp
p8078
aVvarious
p8079
aVco-immobilized
p8080
aVCD3-TCR
p8081
aVinterferon-gamma
p8082
aVhistones
p8083
aVnumerous
p8084
aV-109
p8085
aVrecently
p8086
aVSTAT-dependent
p8087
aVcalcium-calmodulin-dependent
p8088
aVinitially
p8089
aVTransgenic
p8090
aVsole
p8091
aVMHC
p8092
aVJanus
p8093
aVrapid
p8094
aVremaining
p8095
aVwater
p8096
aVc
aVANG
p8097
aVdown-modulation
p8098
aVCollectively
p8099
aVbecame
p8100
aVcontext
p8101
aVProteolysis
p8102
aVregulates
p8103
aVreasons
p8104
aVsepsis
p8105
aVpX
p8106
aVharbour
p8107
aVkey
p8108
aVregulated
p8109
aVpentoxifylline
p8110
aVpH
p8111
aVlivers
p8112
aVdecline
p8113
aVubiquination
p8114
aVcross-talking
p8115
aVdue
p8116
aVstrategy
p8117
aVreduction
p8118
aVmcl-1
p8119
aVLMP1
p8120
aVLMP2
p8121
aVpi
p8122
aVtepoxalin
p8123
aVEosinophils
p8124
aVN-formyl-methionyl-leucyl-phenylalanine
p8125
aVexplants
p8126
aVBs
p8127
aVFigureS5A
p8128
aVFigureS5B
p8129
aVConcomitant
p8130
aVevaluated
p8131
aVprecursor
p8132
aVbehavior
p8133
aVidentical
p8134
aVconcurrently
p8135
aVgel
p8136
aVTip
p8137
aVdisappointing
p8138
aVIl4
p8139
aVobstacle
p8140
aVeight-fold
p8141
aVimmunosuppression
p8142
aVtwofold
p8143
aVstimulates
p8144
aVlengths
p8145
aVcytometry
p8146
aVstimulated
p8147
aVdermis
p8148
aVdeletion
p8149
aV9
aVprerequisite
p8150
aVhigher
p8151
aVtransrepressive
p8152
aVcosignaling
p8153
aV20-kDa
p8154
aVrobust
p8155
aVRaf1
p8156
aVimmunofluorescence
p8157
aVCon
p8158
aVNO-induced
p8159
aVDNAs
p8160
aVAiolos
p8161
aVnonstimulated
p8162
aVchickens
p8163
aVanalysis
p8164
aVOX-40
p8165
aVExamples
p8166
aVhyporesponsiveness
p8167
aVmitogens
p8168
aVabilities
p8169
aVmobilized
p8170
aVDelta19
p8171
aVcompetitive
p8172
aVinactive
p8173
aVIFP53
p8174
aVTaken
p8175
aVmove
p8176
aVloading
p8177
aVi.e.
p8178
aVdyn/cm2
p8179
aVexclusively
p8180
aVDanazol
p8181
aVimpairs
p8182
aVheme-responsive
p8183
aVInjection
p8184
aVbcl2
p8185
aVsub-unit
p8186
aVSialoadhesin
p8187
aV2Ct
p8188
aVaggregation
p8189
aVpreexist
p8190
aVetoposide
p8191
aVimmediate-early
p8192
aVEts-family
p8193
aV20-base
p8194
aVimmunology
p8195
aVCyclinD2
p8196
aVsubfamily
p8197
aVmodifications
p8198
aVsequesters
p8199
aVG28-5
p8200
aVMODY3
p8201
aVdeleterious
p8202
aVMODY1
p8203
aVrearrangement
p8204
aVCRE-mediated
p8205
aVessential
p8206
aVIEXC29S
p8207
aVhallmark
p8208
aVLigand
p8209
aVneuro-immuno
p8210
aVcytopathic
p8211
aVeBioscience
p8212
aVunderstood
p8213
aVDNA-protein
p8214
aVtemperature-sensitive
p8215
aVgradually
p8216
aVplatelet
p8217
aV5.7-fold
p8218
aVadoptive
p8219
aVVirus
p8220
aVCMAT
p8221
aVfragments
p8222
aVmitotic
p8223
aVcontrasting
p8224
aVTreg-specific
p8225
aVnonfunctional
p8226
aVEpo
p8227
aVleukostasis
p8228
aV7-fold
p8229
aVintense
p8230
aVvaccine
p8231
aVacetyl-transferase
p8232
aVphytohemagglutin
p8233
aVICAM
p8234
aVleukaemia
p8235
aVglucocorticoid-induced
p8236
aVrange
p8237
aV48-hr
p8238
aVgamma
p8239
aVthrombospondin
p8240
aVsignificant
p8241
aVunnoticed
p8242
aVcdk6
p8243
aVoxidized
p8244
aVkappaB-dependent
p8245
aVPTPase
p8246
aVquestion
p8247
aVfast
p8248
aVhepatocyte
p8249
aVFACS-isolated
p8250
aVEvery
p8251
aVsubregions
p8252
aVtrifluoromethylketone
p8253
aVankyrin
p8254
aVsections
p8255
aVRNAzol-kit
p8256
aVU1
p8257
aVfootprinting
p8258
aVsupershifts
p8259
aVdelta
p8260
aVContribution
p8261
aVsite-mediated
p8262
aVraising
p8263
aVLoad
p8264
aVconsist
p8265
aVcharacteristic
p8266
aVBfl-1
p8267
aVIL-12-induced
p8268
aVvisible
p8269
aVexport
p8270
aVcalled
p8271
aVassociated
p8272
aVantiatherosclerotic
p8273
aVquantification
p8274
aVassociates
p8275
aVcalcium-mediated
p8276
aVIL-4STAT
p8277
aVgre
p8278
aVdictating
p8279
aVgenerates
p8280
aVSer184
p8281
aVgenerated
p8282
aVTNF
p8283
aVallowing
p8284
aVdelineation
p8285
aVfluorescence
p8286
aVSequence
p8287
aVB-directed
p8288
aVweights
p8289
aVintentional
p8290
aVRetinoid-like
p8291
aVonce
p8292
aVCCK-8-induced
p8293
aVB-cell
p8294
aVHpaII
p8295
aVresistance
p8296
aVtumours
p8297
aVAPC-driven
p8298
aVcontributions
p8299
aVhormone-dependent
p8300
aVmonomer
p8301
aVIntegrin-mediated
p8302
aVimmortalization
p8303
aVsupershift
p8304
aVstably
p8305
aVHSF/Hsp70-mediated
p8306
aVstable
p8307
aVinclude
p8308
aVdramatically
p8309
aVmutation
p8310
aVoverlaps
p8311
aVadenoviral
p8312
aVIC50
p8313
aVgliotoxin-inhibitable
p8314
aVProgression
p8315
aVGSSG/GSH
p8316
aVengineered
p8317
aVreadout
p8318
aV-specific
p8319
aVP
aVCD28RE
p8320
aVLPS-inducible
p8321
aVpromoter-bound
p8322
aVLAI
p8323
aVLAK
p8324
aVCompetition
p8325
aVLAP
p8326
aVredox-regulated
p8327
aVconcluded
p8328
aVlimitations
p8329
aVFunctions
p8330
aVsmaller
p8331
aVDTC
p8332
aVOKM5
p8333
aVfold
p8334
aVdysregulated
p8335
aVco-transfections
p8336
aVacid
p8337
aVstaurosporine
p8338
aVmononuclear
p8339
aVreceptor-mediated
p8340
aVStatG
p8341
aV-treated
p8342
aVintermediate-release
p8343
aVStat6
p8344
aVStat5
p8345
aVStat3
p8346
aVchose
p8347
aVdegree
p8348
aVMG132
p8349
aVexplore
p8350
aVseparation
p8351
aVfermentans
p8352
aVtwentyfold
p8353
aVCBF
p8354
aVlectins
p8355
aVdegradative
p8356
aVPuB1
p8357
aVleaving
p8358
aVsuggests
p8359
aVCBP
p8360
aVROR-gammat
p8361
aVdefinitively
p8362
aVHigh-level
p8363
aVMOPC
p8364
aVexaminations
p8365
aVRetinoic
p8366
aVDMDTC
p8367
aVRetinoid
p8368
aVN-acetyl-L-cysteine
p8369
aVmessengers
p8370
aVSurvanta
p8371
aVRAG-1
p8372
aVRAG-2
p8373
aVbindings
p8374
aV2,3
p8375
aVsegregating
p8376
aVuse
p8377
aVfrom
p8378
aVhypoxia-induced
p8379
aVtransformation-related
p8380
aVfew
p8381
aVdepicted
p8382
aVexamination
p8383
aVsialoadhesin
p8384
aVantioxidants
p8385
aVpZVB10
p8386
aVdetail
p8387
aVinfection
p8388
aVcooperate
p8389
aVvirulence
p8390
aV/anti-CD
p8391
aVGliotoxin
p8392
aVwomen
p8393
aVparalleled
p8394
aVALL
p8395
aVaugment
p8396
aVCharacterization
p8397
aVALD
p8398
aVendotoxin-mediated
p8399
aVPMA/Iono-stimulated
p8400
aVstabilizes
p8401
aVtrophoblasts
p8402
aVmetastases
p8403
aVNTF
p8404
aVtat
p8405
aVlipid-soluble
p8406
aVimpedes
p8407
aVNorthern
p8408
aVIRAK
p8409
aV0.1
p8410
aV0.3
p8411
aV0.2
p8412
aVtax
p8413
aVfas-ligand
p8414
aV0.6
p8415
aVOct-1
p8416
aVOct-2
p8417
aVOct-4
p8418
aVarchetypal
p8419
aVOct-6
p8420
aVV3-BH10
p8421
aVserial
p8422
aVmade
p8423
aVsyndrome
p8424
aVbcr-abl
p8425
aVsix
p8426
aVoccur
p8427
aVunquestionably
p8428
aVinstead
p8429
aVTAR-deleted
p8430
aVPMA-mediated
p8431
aVlesion
p8432
aVhelenalin
p8433
aVHence
p8434
aVAltered
p8435
aVoncogenicity
p8436
aVdegranulation
p8437
aVlight
p8438
aVpromoter-binding
p8439
aVTenen
p8440
aViono
p8441
aVnonendocrine
p8442
aVallergen
p8443
aVCa2
p8444
aVchimeras
p8445
aV133
p8446
aVwhilst
p8447
aV130
p8448
aVpombe
p8449
aVnoncytoxic
p8450
aV-1011
p8451
aVself-tolerance
p8452
aVIkappaBbeta
p8453
aV,4
p8454
aVtransferase
p8455
aVpermanent
p8456
aV1-reverse
p8457
aVinconsistencies
p8458
aVclusters
p8459
aVdefining
p8460
aVRXR-specific
p8461
aVChemoattractants
p8462
aV14q11
p8463
aVimpaired
p8464
aVprofound
p8465
aVreceptor
p8466
aV/LFA
p8467
aVCytolytic
p8468
aVrelated
p8469
aVNext
p8470
aVfraction
p8471
aVinterplay
p8472
aVour
p8473
aV80
p8474
aVbioinactivation
p8475
aVout
p8476
aVrestimulated
p8477
aVDAPK
p8478
aVXISTE
p8479
aVCTCACCCTAAACTCAAAACTAAAAAC-3
p8480
aVpentoxifylline-mediated
p8481
aVsupports
p8482
aVimmunohistochemistry
p8483
aVThis
p8484
aVmaintains
p8485
aVAnti-CD40
p8486
aVtransrepression
p8487
aVPhoQ
p8488
aVPhoP
p8489
aVpancreatic
p8490
aVT-cell-receptor-mediated
p8491
aVsegregated
p8492
aVZhang
p8493
aVfeasible
p8494
aVLPS-treated
p8495
aVNFkappaB-site
p8496
aVhence
p8497
aVembryo
p8498
aVacid-reactive
p8499
aV-500
p8500
aVKSHV
p8501
aVMartin
p8502
aVK.
p8503
aVstimulus-induced
p8504
aVAccordingly
p8505
aVShoemaker
p8506
aVRasN17
p8507
aVIncreased
p8508
aVTNFR
p8509
aVunknown
p8510
aVHSF2-beta
p8511
aVantiinflammatory
p8512
aVimmunoassay
p8513
aVIncreases
p8514
aVvirus-host
p8515
aVanaemia
p8516
aVchemotherapy
p8517
aVstaphylococci
p8518
aVKd
p8519
aVFox
p8520
aVreversed
p8521
aVKinetics
p8522
aV65K
p8523
aVE2F-dependent
p8524
aVslides
p8525
aVreflecting
p8526
aV315
p8527
aVconstituent
p8528
aVreceptor-induced
p8529
aVreverses
p8530
aVstimulus-dependent
p8531
aVKB
p8532
aVbHLH-PAS
p8533
aVBLUC
p8534
aVisolation
p8535
aVlimiting
p8536
aVpatients
p8537
aVhypoxia-evoked
p8538
aVGal/ER
p8539
aV1.5
p8540
aVrapamycin-mediated
p8541
aV1.7
p8542
aV1.0
p8543
aV1.1
p8544
aV1.3
p8545
aV1.8
p8546
aV1.9
p8547
aVJNK/SAPK
p8548
aVlinked
p8549
aVallergies
p8550
aVligation-mediated
p8551
aVacid-responsive
p8552
aVpolarization
p8553
aVFigure5D
p8554
aVFigure5C
p8555
aVwhich
p8556
aVfactor-induced
p8557
aVdiacylglycerol
p8558
aV=
aVIL-12-mediated
p8559
aV/OCA-B
p8560
aVbiologic
p8561
aVeukaryotes
p8562
aVnucleotide
p8563
aVwhy
p8564
aVGIG18
p8565
aVCo-stimulation
p8566
aVneighboring
p8567
aVensues
p8568
aVimmunophenotype
p8569
aVPNU156804
p8570
aVAgonistic
p8571
aVdecidual/lymphoid
p8572
aVLef/Tcf
p8573
aVGSSG
p8574
aVA-sensitive
p8575
aV1-mediated
p8576
aVneurotoxin
p8577
aVmicroM
p8578
aVmicroB
p8579
aVchicken
p8580
aVcortivazol
p8581
aVnanomolar
p8582
aVchloride-induced
p8583
aVYY-1
p8584
aVderepress
p8585
aVmaturation/differentiation
p8586
aVfactor-B
p8587
aVmicrol
p8588
aVpostulated
p8589
aVmenadione
p8590
aVmicrog
p8591
aVproviral
p8592
aVfactor-1
p8593
aVACT-1
p8594
aVdisplayed
p8595
aVPKC-induced
p8596
aVGPA
p8597
aVTHP
p8598
aVones
p8599
aVGPX
p8600
aVpre-culture
p8601
aVLIM-only
p8602
aVdifferential
p8603
aVoptimally
p8604
aVascertain
p8605
aVcleavage
p8606
aVNIP
p8607
aVview
p8608
aV-3090
p8609
aVbactericidal/permeability-increasing
p8610
aVnitrogen
p8611
aVacquired
p8612
aVClonality
p8613
aVmodule
p8614
aVp24
p8615
aVp27
p8616
aVpseudo-tumor
p8617
aVDelineation
p8618
aVserine/threonine
p8619
aV293T
p8620
aVvariably
p8621
aVdiverge
p8622
aVfavor
p8623
aV4494
p8624
aVidentification
p8625
aV4490
p8626
aVHTLV-I
p8627
aVHigher
p8628
aVCycle
p8629
aVRT
p8630
aVHTLV-1
p8631
aVlipopolysaccharide-induced
p8632
aVability
p8633
aVopening
p8634
aVanalogues
p8635
aVDifferential
p8636
aVneonatal
p8637
aVhypothesis
p8638
aVprobing
p8639
aV2.5-kilobase
p8640
aVLCR
p8641
aVRNA
p8642
aVLCL
p8643
aVmutating
p8644
aVsequenced
p8645
aVunclear
p8646
aVstructure-activity
p8647
aVwall
p8648
aVantioxidant
p8649
aVorientation-independent
p8650
aVCD5
p8651
aVFinally
p8652
aVCD7
p8653
aVCD2
p8654
aVCD3
p8655
aVpulmonary
p8656
aVCD8
p8657
aVSTAT6
p8658
aVSTAT5
p8659
aVSTAT4
p8660
aVSTAT3
p8661
aVSTAT2
p8662
aVSTAT1
p8663
aVVP16
p8664
aVU-937
p8665
aVcross-linking
p8666
aVJun
p8667
aVresponds
p8668
aVActive
p8669
aVhigh-affinity
p8670
aVlipopolysacharide
p8671
aVmonoclonal
p8672
aVArg-Gly-Asp
p8673
aVprotein-protein
p8674
aVdeterminant
p8675
aVtruncations
p8676
aVOBF
p8677
aVsufficient
p8678
aVensuring
p8679
aVconfers
p8680
aVUsing
p8681
aVVCAM
p8682
aVpresent
p8683
aVreverse
p8684
aV-195
p8685
aVSTATs
p8686
aVsubsets
p8687
aVherpesvirus
p8688
aVwill
p8689
aVdisulfide-linked
p8690
aVphagocyte
p8691
aVMRNA
p8692
aVphenotypic
p8693
aV~
aVpleiotropic
p8694
aVmutant
p8695
aVmotif
p8696
aVthiobarbituric
p8697
aVthus
p8698
aVepitopes
p8699
aVdual
p8700
aVdisparate
p8701
aVperhaps
p8702
aVribosome
p8703
aVtransmembrane
p8704
aVcross
p8705
aVmember
p8706
aVFibroblast
p8707
aVfactor-beta
p8708
aVchromosome
p8709
aVSuppression
p8710
aVBrdU
p8711
aVdifficult
p8712
aVThird
p8713
aVMTS
p8714
aVBiphasic
p8715
aVStates
p8716
aVperi-kappa
p8717
aVundertaken
p8718
aVload
p8719
aVexcessive
p8720
aVhalf
p8721
aVcytoplasmic-to-nuclear
p8722
aVreplenish
p8723
aVfibric
p8724
aVcycloheximide-sensitive
p8725
aVmitogen-inducible
p8726
aVp55TNF-R
p8727
aVModulation
p8728
aVFas
p8729
aVsupply
p8730
aVattractive
p8731
aVlymphocytes
p8732
aVphosphatidylinositides
p8733
aV/E2A
p8734
aVproIL-1
p8735
aVmurine
p8736
aVputative
p8737
aVnuclear-activating
p8738
aVantigen-specific
p8739
aVT
aVvariants
p8740
aVstabilize
p8741
aVrepresses
p8742
aVGATA-associated
p8743
aVhaptenation
p8744
aVrepressed
p8745
aVcis-activation
p8746
aVbecause
p8747
aVsequence
p8748
aVCipro
p8749
aVP-glycoprotein
p8750
aV21-bp
p8751
aVCp
p8752
aVgrowth
p8753
aVE-box
p8754
aV110
p8755
aVCooperation
p8756
aV119
p8757
aVglucocorticosteroid
p8758
aVdisrupting
p8759
aVFoxp3
p8760
aVdownregulates
p8761
aVlead
p8762
aVmarkers
p8763
aVmanipulations
p8764
aVleader
p8765
aVatherosclerotic
p8766
aV/Egr
p8767
aVTBP-1
p8768
aVdeacetylases
p8769
aVanalyses
p8770
aVtrisubstituted
p8771
aVafter
p8772
aVperspectives
p8773
aVcarried
p8774
aVActivated
p8775
aVdependence
p8776
aVAnnexin
p8777
aVDNMT
p8778
aVActivates
p8779
aVconverging
p8780
aVindividually
p8781
aVown
p8782
aV13,48
p8783
aVhomogenates
p8784
aVamylase
p8785
aVetal.
p8786
aVtranscription-independent
p8787
aVtransfer
p8788
aV-3134
p8789
aV-294
p8790
aV-295
p8791
aVtriggered
p8792
aV-291
p8793
aVScience
p8794
aVOCT-1p
p8795
aVvolume
p8796
aVautomated
p8797
aVNFAT-P0
p8798
aVauxiliary
p8799
aVgranzyme
p8800
aVTen
p8801
aVwhether
p8802
aVWIN
p8803
aVTATA
p8804
aVCACCC-binding
p8805
aVdemonstrate
p8806
aVTer
p8807
aVc-Myb
p8808
aVmyeloid-cell-specific
p8809
aVSite
p8810
aVresumption
p8811
aVpermeability
p8812
aVplaques
p8813
aVsubendothelium
p8814
aVBALL1
p8815
aVcaspase-3
p8816
aVtransacting
p8817
aVpercent
p8818
aVimmobilized
p8819
aVother
p8820
aVFive
p8821
aVconclusion
p8822
aVfibrinogen/Mn2
p8823
aVsustains
p8824
aVmetabolized
p8825
aVstreptavidin/biotin
p8826
aVFuture
p8827
aVblood-derived
p8828
aVforskolin-induced
p8829
aVguanylate
p8830
aVhomolog
p8831
aVradiolabeled
p8832
aVserum-inducible
p8833
aVcoupling
p8834
aVc-myc
p8835
aVc-myb
p8836
aVnecrosis
p8837
aVjunB
p8838
aVjunD
p8839
aVtransfectants
p8840
aVproliferator-activated
p8841
aVunderstand
p8842
aVrepresentative
p8843
a.