(lp1
VLTR-dependent
p2
aVOKT3
p3
aVhost-cell
p4
aVEC50
p5
aVlocalizes
p6
aV/Jun
p7
aVPI3K/PKB
p8
aVElevated
p9
aVfour
p10
aVSCID-passaged
p11
aVKit225
p12
aV3-kinase-linked
p13
aVfactor-IL-6beta
p14
aVAnalogous
p15
aVlocalized
p16
aVsimilarity
p17
aV6q26-27
p18
aVlist
p19
aV-beta-catenin
p20
aVimmature
p21
aVdeoxycytidine
p22
aVdexamethasone-induced
p23
aVSPF
p24
aVhormone
p25
aVSP1
p26
aVpreceeded
p27
aVNFAT-directed
p28
aVreplaces
p29
aVGSK-3beta
p30
aVPhosphatidylserine
p31
aVdifferentiated
p32
aVlineage-determining
p33
aVpersisted
p34
aVdifferentiates
p35
aVBcl-xL
p36
aVdephosphorylation
p37
aVJNK
p38
aVrepeat-driven
p39
aVn-acetyl-L-cysteine
p40
aVTh1cells
p41
aVIEXL320G
p42
aVrepeat-directed
p43
aVcytomegalovirus
p44
aVantioncogenic
p45
aVpulse
p46
aVfeasibility
p47
aVconsists
p48
aVsecond
p49
aVelegans
p50
aVsustaining
p51
aV60-kDa
p52
aVperiodontitis
p53
aVPoly-HRP
p54
aVcell-type-specific
p55
aVGR6
p56
aVdimerizes
p57
aVrelieving
p58
aVmultimers
p59
aVfingers
p60
aVA-insensitive
p61
aVdimerized
p62
aVpolyubiquitinated
p63
aVreceptor-initiated
p64
aVincreasing
p65
aV/Tal1
p66
aVLiposomal
p67
aVreporter
p68
aVinterrupting
p69
aVinterdependent
p70
aVhere
p71
aVreported
p72
aVGRE
p73
aVpancreas
p74
aVPrecise
p75
aVelaborate
p76
aVreports
p77
aVcontroversy
p78
aVetiology
p79
aVsymmetrical
p80
aVNOS
p81
aVinterferon
p82
aVappropriately
p83
aVtopography
p84
aVexplained
p85
aVThree
p86
aVbrought
p87
aVdegreesC
p88
aVparasite-induced
p89
aVp49
p90
aVGH-induced
p91
aVp45
p92
aVunit
p93
aVp40
p94
aVderivatives
p95
aV42
p96
aVLevels
p97
aVtherefore
p98
aVhematopoietic-specific
p99
aVpinpoints
p100
aVRecent
p101
aVTh1-type
p102
aVfemales
p103
aVLipinski
p104
aVpopulations
p105
aVsuccessful
p106
aVcomigrated
p107
aVreversibly
p108
aVreversible
p109
aVCHO/CD14
p110
aVCoordinate
p111
aVserially
p112
aVvirus-encoded
p113
aVcircumstances
p114
aVLMP
p115
aVTcf-mediated
p116
aVdCTP-labeled
p117
aVRU38486
p118
aVLMO
p119
aVICAM-1
p120
aVexample
p121
aVbisindolylmaleimide
p122
aVLa
p123
aVPositive
p124
aVunderphosphorylated
p125
aVReactive
p126
aVcytosols
p127
aVATF/CREB
p128
aVC/EBPs
p129
aVabsolute
p130
aVparasite-mediated
p131
aVcytometer
p132
aVLN
p133
aVunmasked
p134
aVdamage
p135
aVhow
p136
aVmethodology
p137
aVchaffeensis
p138
aVsignificance
p139
aVSequencing
p140
aVtranslocation
p141
aVA
aVmodulation
p142
aVdiagram
p143
aVmodest
p144
aVhypergammaglobulinemia
p145
aVL2
p146
aVL1
p147
aVtypes
p148
aV2D3-mediated
p149
aVeffective
p150
aVrecombination
p151
aVorally
p152
aVAnother
p153
aVSequences
p154
aVCFP
p155
aVrestriction
p156
aVfeedback
p157
aVAP2
p158
aVbufalin
p159
aVAP1
p160
aVvary
p161
aVmicroglia
p162
aVmethylation-resistant
p163
aVactivating
p164
aVligand
p165
aVAct-1
p166
aVmatured
p167
aVOverexpression
p168
aVdisturb
p169
aVhypoxia
p170
aVeffects
p171
aVmimicking
p172
aVstructural
p173
aVBglII
p174
aVrepresents
p175
aVRFX5
p176
aVFunctional
p177
aVtuberculin
p178
aVlosartan
p179
aVAPC
p180
aVinterfering
p181
aVmIL-2rE
p182
aVpreceded
p183
aVHNF-4alpha
p184
aVPMA/ionomycin-inducible
p185
aVseries
p186
aVplatelets
p187
aVdouble-stranded
p188
aVdisplacement
p189
aVparasites
p190
aVinvitro
p191
aVTCR-induced
p192
aVsubstantially
p193
aVlaboratory
p194
aVfactor-kappaB
p195
aVBCL-2
p196
aVring
p197
aVBZLF1
p198
aVBCL-6
p199
aVDominant
p200
aVPart
p201
aVthrombin
p202
aVkinase-specific
p203
aVLMP-1
p204
aVcombinatorial
p205
aVunrelated
p206
aVfoundation
p207
aVlymphoblasts
p208
aVEgr
p209
aVUniversity
p210
aV30,31
p211
aVnucleoli
p212
aVchemotactic
p213
aVCEM-C7
p214
aVTriflusal
p215
aVHuman
p216
aVbeta-gal
p217
aVappreciable
p218
aVgamma-radiation
p219
aVpneumoniae-mediated
p220
aVH2O2-induced
p221
aVvitro
p222
aV/c-jun
p223
aVoncogenic
p224
aVlineage-restricted
p225
aVdismutase
p226
aVB-independent
p227
aVsimilarly
p228
aVengagement
p229
aVAggregation
p230
aV-280
p231
aVneeded
p232
aVanti-LMP1
p233
aVFcRFgamma
p234
aVglucocorticoid
p235
aVunderlie
p236
aVmyelomonocytic
p237
aVpostulate
p238
aVcalyculin
p239
aVranging
p240
aVoctamer-dependent
p241
aVmicrograms/ml
p242
aVintegrally
p243
aVIRF-1
p244
aVpositively
p245
aVIRF-4
p246
aV270
p247
aVshowed
p248
aVmitogen
p249
aVmultimerized
p250
aVregulator
p251
aVanti-CD25
p252
aVmicroglial
p253
aV5-bromo-2
p254
aVacquisition
p255
aVanti-CD28
p256
aVcore-binding
p257
aVspectrum
p258
aVhypermethylation
p259
aVsuperinduction
p260
aV-3110
p261
aVsite-dependent
p262
aVhT86
p263
aVdownmodulated
p264
aVresponsible
p265
aVAIDS-associated
p266
aVBand
p267
aVrecommended
p268
aVInhibition
p269
aVThey
p270
aVsteroid-treated
p271
aVdownmodulates
p272
aV+646
p273
aV-275
p274
aV-276
p275
aVdiminishing
p276
aVADP-activated
p277
aVretroviruses
p278
aVimmune-modulating
p279
aVcycloheximide
p280
aVorganization
p281
aVretaining
p282
aVStat3beta
p283
aV/delta
p284
aVinitiator
p285
aVBCL6
p286
aVLTR-mediated
p287
aVcamp
p288
aVlpr
p289
aVintrons
p290
aVimmunoreactivity
p291
aVI-hypersensitive
p292
aV/pp36/38
p293
aVFACS
p294
aVRU486
p295
aVCalpha
p296
aVAG490
p297
aVhAEC
p298
aVC-to-A
p299
aVheterologous
p300
aVparticipate
p301
aVsuper-induction
p302
aVtrans-active
p303
aVinducers
p304
aVRT-PCR
p305
aVACT-1-activating
p306
aVshuffling
p307
aVvirus-infected
p308
aVRALDH2
p309
aVkinase
p310
aVthan
p311
aVmaturation
p312
aVpost-inductive
p313
aVgamma-Interferon
p314
aVRp-cAMP
p315
aVL-N-monomethyl-arginine
p316
aV50-kDa
p317
aVester-responsive
p318
aV7-11
p319
aVreversal
p320
aVX
aVNeutrophils
p321
aVsegregate
p322
aVsuperfamily
p323
aVcontributes
p324
aVhematoxylin
p325
aVr-hTBP-1
p326
aVcalcineurin-NFAT
p327
aVdeletions/insertions
p328
aVElf-1
p329
aVflanked
p330
aVrelease
p331
aVPurified
p332
aVIgH
p333
aVSIVsmmPBj14
p334
aVrespond
p335
aVmandatory
p336
aVMIBP1
p337
aVhybridomas
p338
aVsensitivity
p339
aVtransferred
p340
aVunexpectedly
p341
aVAnderson
p342
aVcloning
p343
aVfail
p344
aVGGGGAATCTCCC
p345
aVbest
p346
aVoncogene
p347
aVpressures
p348
aVRXRs
p349
aVphosphatase-1
p350
aVmonocyte-macrophages
p351
aVC/EBP-epsilon
p352
aVlymphoma/leukemia
p353
aVnature
p354
aVsera
p355
aVeukaryotic
p356
aVreconstitute
p357
aVextent
p358
aV+13
p359
aVtriggers
p360
aVAntisense
p361
aVPatients
p362
aVGABP
p363
aVPSE
p364
aVDeltaSpi-B
p365
aVML-9-induced
p366
aVeradicate
p367
aVCo-ligation
p368
aV,158
p369
aVB-beta
p370
aVBCR
p371
aVBCS
p372
aVpAT
p373
aVDependent
p374
aVInterleukin-2
p375
aVInfection
p376
aVeliciting
p377
aVmuch
p378
aVbeta1
p379
aVprogenitor
p380
aVpAkt
p381
aVallelic
p382
aVSRE
p383
aVSTAT-3
p384
aVSTAT-6
p385
aVSTAT-4
p386
aVdisulfide
p387
aVfibroblast
p388
aVantagonization
p389
aVdissect
p390
aVCulture
p391
aVLMO-dependent
p392
aVLPMC
p393
aVTDS
p394
aV368-389
p395
aVpolysaccharide
p396
aVp65
p397
aVplayed
p398
aVpolyadenylation
p399
aVupregulates
p400
aVconditioned
p401
aVU937
p402
aVcharacterize
p403
aVelicit
p404
aVreceptor-2
p405
aVcoexpressed
p406
aVupregulated
p407
aVAssessment
p408
aVTCR-controlled
p409
aVPMA-activated
p410
aVseverity
p411
aVImportantly
p412
aVtemplates
p413
aVEA/S-directed
p414
aVMIP-1beta
p415
aVRunx
p416
aVphoP-activated
p417
aVhomodimeric
p418
aVEBF
p419
aVEBV
p420
aVEBS
p421
aVTable
p422
aVplaque
p423
aVRapid
p424
aVE2F-binding
p425
aVSubsequent
p426
aVhomogeneity
p427
aV/NF-AT
p428
aV3kb
p429
aVanabolism
p430
aVfactor-DNA
p431
aVDRA
p432
aVprevious
p433
aVnuclease-hypersensitive
p434
aVhad
p435
aVzVAD-fmk
p436
aVRather
p437
aVEVI1
p438
aVcations
p439
aV-induced
p440
aVML-9
p441
aVhas
p442
aV1-beta
p443
aVelevation
p444
aVantiestrogens
p445
aVsurvival
p446
aVpossible
p447
aVpossibly
p448
aVindicative
p449
aVpertinent
p450
aVunique
p451
aVoccurring
p452
aVThromboxane
p453
aVimmunoregulatory
p454
aVTRE-like
p455
aVsteps
p456
aVProtein-1
p457
aVhTLR2
p458
aVFurther
p459
aV-35
p460
aVCongruous
p461
aVbeneficial
p462
aVanions
p463
aVunrearranged
p464
aVtruncated
p465
aVpredominance
p466
aVSystem
p467
aVproportionally
p468
aV-487
p469
aVhaemopoietic
p470
aV48-kDa
p471
aVkappaB-responsive
p472
aV-30
p473
aVconsensus
p474
aVfor
p475
aVfos
p476
aVkilling
p477
aVrepression
p478
aVindividuals
p479
aVperiphery
p480
aVmethylation-sensitive
p481
aVAccompanying
p482
aV3T3
p483
aVsquelching
p484
aVFirst
p485
aVpredisposition
p486
aVanomalous
p487
aVo
aVlacked
p488
aVslightly
p489
aVO-side
p490
aVFK506-sensitive
p491
aVUse
p492
aVStrength
p493
aVc-Maf
p494
aVcell-free
p495
aVphysiologic
p496
aVlive-attenuated
p497
aVcucurbitacin
p498
aVNF-KB
p499
aVreducing
p500
aVThrombopoietin
p501
aVnovo
p502
aVfactor/nerve
p503
aVsupport
p504
aVconstantly
p505
aVJankovic
p506
aVNF-microB
p507
aVmAb
p508
aVresulted
p509
aVTip-associated
p510
aVtherapeutically
p511
aVforming
p512
aVPI3-kinase
p513
aVincorporation
p514
aVglucan
p515
aVInterferon
p516
aVarrays
p517
aVstrongest
p518
aVspecificities
p519
aVmegakaryocytic
p520
aV151
p521
aV150
p522
aVsemiquantitate
p523
aVaminotriazole
p524
aVsteady
p525
aVBamHI
p526
aVId3
p527
aVcoincubation
p528
aVId1
p529
aVexist
p530
aVNeg-1
p531
aVhiCD25
p532
aVTumor-derived
p533
aVeventual
p534
aVPossible
p535
aVInduce
p536
aVrole
p537
aVconferring
p538
aVxenobiotics
p539
aVsuperantigens
p540
aVE
aVmodels
p541
aVcleaved
p542
aVrolling
p543
aVreorganization
p544
aVleucocytes
p545
aVsystem-enriched
p546
aVanti-CD44
p547
aVanti-CD40
p548
aVfibrinogen-binding
p549
aVB-dependent-genes
p550
aVserum-containing
p551
aVenhancer-mediated
p552
aVtime
p553
aVcRel
p554
aVquantity
p555
aVRE/AP
p556
aVNRE-2a
p557
aVpolypeptides
p558
aVchain
p559
aVactivated
p560
aVvirus-1
p561
aVP450IA1
p562
aVGC-box
p563
aVspaced
p564
aVactivates
p565
aVamplification
p566
aVN-Oct-3
p567
aVlaminin
p568
aVTcf-dependent
p569
aVthiol
p570
aV96
p571
aVTBARS
p572
aV-253
p573
aV-256
p574
aV-257
p575
aVnephropathy
p576
aVkB-like
p577
aVgranulocyte-macrophage
p578
aVexact
p579
aVTat
p580
aVTap
p581
aVGM2/GC-box
p582
aVimmune/inflammatory
p583
aVTax
p584
aVeosinophilia
p585
aVloads
p586
aVhTAFII105
p587
aVprevent
p588
aVoccurrence
p589
aVfindings
p590
aVAbcam
p591
aVprediction
p592
aVfootprinted
p593
aVM7
p594
aVagonists
p595
aVthyroglobulin
p596
aVcurrent
p597
aVoverexpressed
p598
aVng/mL
p599
aVP-like
p600
aVMn
p601
aVunderstanding
p602
aVlyso-platelet-activating
p603
aVaddress
p604
aValone
p605
aVHSF
p606
aValong
p607
aVegr-3
p608
aVinterferon-induced
p609
aVMM
p610
aVphosphorylation-dependent
p611
aVvectors
p612
aVcommonly
p613
aVaccomplished
p614
aVineffective
p615
aVstudies
p616
aVinflux
p617
aVMCP-1
p618
aVParadoxically
p619
aVmacromolecule
p620
aVPRDII
p621
aVtwo-hybrid
p622
aVgamma-activated
p623
aVDOX
p624
aV2.6-kilobase
p625
aVIL-1R-associated
p626
aVkilobases
p627
aVp38alpha
p628
aVtoxoplasmosis
p629
aVpositive
p630
aVonly
p631
aVlymphoctyes
p632
aVopposed
p633
aVenriched
p634
aVThose
p635
aVintroducing
p636
aVheterodimers
p637
aVIsolation
p638
aV101bp
p639
aVImplications
p640
aVdegrade
p641
aV70-base-pair
p642
aVTal-1
p643
aVinvolve
p644
aVpolypeptide
p645
aVpreponderance
p646
aVhydrochloride
p647
aVoriginally
p648
aVGGGATTTCACC
p649
aVvalues
p650
aVfollowing
p651
aVOur
p652
aVzippers
p653
aVhemoglobins
p654
aVDPA
p655
aVendonuclease
p656
aVallowed
p657
aVflavonoids
p658
aVLymphomas
p659
aVimmune
p660
aVSignificant
p661
aVoptimal
p662
aV2C11
p663
aVNFATp/c-binding
p664
aVRORgammat
p665
aVsalicylates
p666
aV12-fold
p667
aVGLRP
p668
aVPMA-treated
p669
aVnonexpression
p670
aVtransactivating
p671
aVPlatelet/endothelium
p672
aVapplications
p673
aVJun-Fos
p674
aVPFP9a20
p675
aVdate
p676
aVsuch
p677
aVdata
p678
aV-SLP-76
p679
aVstress
p680
aVnatural
p681
aVFGF-1
p682
aVHS3
p683
aVNP-1
p684
aValpha,25-dihydroxyvitamin
p685
aVsclerosis
p686
aVyielding
p687
aVC-terminal
p688
aVquadrant
p689
aVso
p690
aVse
p691
aVLIF
p692
aVDisturbance
p693
aVacid-response
p694
aVp85
p695
aVfeature
p696
aVcourse
p697
aVexperiments
p698
aVLIP
p699
aVre-expression
p700
aVJun/AP
p701
aVdecreases
p702
aVlethality
p703
aVdecreased
p704
aVdecades
p705
aVconveying
p706
aVchromatin
p707
aVRho
p708
aVthereby
p709
aVDBF-sites
p710
aVthyroids
p711
aVsorter
p712
aVchemokines
p713
aVexon
p714
aVPol-II
p715
aVcellsis
p716
aVmaintaining
p717
aVendonucleases
p718
aVestablishing
p719
aVHosken
p720
aVcoagulation
p721
aVclassify
p722
aVHSF-1
p723
aV1-kappa
p724
aVprimarily
p725
aVTranscription
p726
aVbovine
p727
aVSIVmac239
p728
aVexogenously
p729
aVkaryotype
p730
aVcoreceptors
p731
aVthymoma
p732
aVtwo-fold
p733
aVPML-RAR
p734
aV798
p735
aVL.
p736
aVcontained
p737
aVinvestigation
p738
aVblk
p739
aVsuggesting
p740
aVhck
p741
aVsignal-induced
p742
aVcooperatively
p743
aVInvariably
p744
aVgoverning
p745
aVquite
p746
aVamino-terminal
p747
aV-driven
p748
aVintensely
p749
aVmitogenic
p750
aVNF-IL6beta
p751
aVinteracted
p752
aVprogramming
p753
aVinitiate
p754
aVundesirable
p755
aVroutes
p756
aV/CREB2
p757
aVATF
p758
aVATG
p759
aVsymmetry
p760
aVATA
p761
aVThrombin
p762
aVone
p763
aVnonspecifically
p764
aVhGATA-1
p765
aVhGATA-3
p766
aVgamma-globin
p767
aVReplication
p768
aVindicate
p769
aV2
aVconstants
p770
aVstructures
p771
aVnucleocytoplasmic
p772
aVtransgene
p773
aVapoptotic
p774
aVGata-3
p775
aVperpetuation
p776
aVAll
p777
aVartifact
p778
aVHB-EGF
p779
aVnon-syntenic
p780
aVrepresenting
p781
aVCD8-positive
p782
aVDP1
p783
aVdepressed
p784
aVfavors
p785
aVaP2
p786
aVprotease/phosphatase
p787
aVAT1
p788
aVfragmented
p789
aVastrocytes
p790
aVinsensitivity
p791
aVinhibiting
p792
aVsaw
p793
aVZAP-70
p794
aVReceptor/Stat
p795
aVdilutions
p796
aVinstructed
p797
aVnote
p798
aV50-fold
p799
aVtranscribed
p800
aVHalf
p801
aVpostreceptor
p802
aVPBMCs
p803
aVVDRE
p804
aValtered
p805
aVopposite
p806
aVbuffer
p807
aVc-sis
p808
aVmolecule
p809
aVtransfection-cocultivation
p810
aVRho-induced
p811
aVcarboxy-terminal
p812
aVinserted
p813
aVv-src
p814
aVpromoter/enhancer
p815
aVAP-2-like
p816
aVinfections
p817
aVdrive
p818
aVAP-1-like
p819
aVmanaging
p820
aVNH2-terminal
p821
aVPAF-stimulated
p822
aVsalt
p823
aVTPA-induced
p824
aVstimulator
p825
aVoncogenes
p826
aV65-kDa
p827
aVreprogramme
p828
aVCyA
p829
aVP/I
p830
aVfra-1
p831
aVfibre
p832
aVslow
p833
aVDNA-PK
p834
aVgammaRI
p835
aVcalcium-dependent
p836
aVliberation
p837
aVphospholipids
p838
aVactin
p839
aVvirion
p840
aVfilarial
p841
aVamplifying
p842
aVantisense
p843
aVdecidual
p844
aVKruppel-like
p845
aVNF-chi
p846
aVrecombinant
p847
aVprime
p848
aVself-perpetuation
p849
aVneutrophilia
p850
aVneutrophilic
p851
aVIL-beta
p852
aVwhere
p853
aVattenuated
p854
aV-sensitive
p855
aVSpecifically
p856
aVattenuates
p857
aVMEK
p858
aV2-phase
p859
aVbisdioxopiperazine
p860
aVVitD3-treated
p861
aVThat
p862
aVsites
p863
aVIL-2R
p864
aVaffecting
p865
aVrecruitment/function
p866
aVreceptor/toll-like
p867
aVaberration
p868
aVscreen
p869
aVsuppresses
p870
aVTcR
p871
aVcontinuously
p872
aVsteroid
p873
aVEo-VP16
p874
aVsuppressed
p875
aVBase-pair
p876
aVconcentrated
p877
aVc-kit
p878
aVDNA-receptor
p879
aVmany
p880
aVMoAb
p881
aVStability
p882
aVs
aVJAK/STAT
p883
aVTcf
p884
aVexpression
p885
aVAPAF-1
p886
aV47-bp
p887
aVVirol
p888
aVanalyzed
p889
aVanti
p890
aVHIV-gene
p891
aVGGTAGTTCCC
p892
aVreconcile
p893
aVbetter
p894
aV0.4-fold
p895
aVtrypsin-resistant
p896
aVstretch
p897
aVincubation
p898
aV-233
p899
aVcombined
p900
aVsignal-dependent
p901
aVtyrosine-protein
p902
aVlymphocyte-activating
p903
aVenable
p904
aVformed
p905
aVobserve
p906
aVformer
p907
aVGF109203X
p908
aV-73
p909
aV-72
p910
aV-70
p911
aV-76
p912
aV-75
p913
aV-79
p914
aVintimately
p915
aVLPS-specific
p916
aV/P50
p917
aVDIL
p918
aVLKLF
p919
aVmethyltransferases
p920
aVengaged
p921
aVAccumulation
p922
aV-236
p923
aVproteolytic
p924
aVcold-shock-induced
p925
aVbinary
p926
aVtetrazolium
p927
aVsubunit
p928
aVpeptide-mediated
p929
aVlineage-specific
p930
aVI
aVstructurally
p931
aVTFIID-dependent
p932
aVUTR
p933
aVp59fyn
p934
aVIRF
p935
aVtracking
p936
aVundefined
p937
aVPermanent
p938
aVanti-IL-2
p939
aVdownmodulation
p940
aVentered
p941
aVpersistently
p942
aVNAC
p943
aVNAF
p944
aVu.v.
p945
aVbeing
p946
aVzinc-finger
p947
aVprooxidant
p948
aVsemiquantitative
p949
aVBOB
p950
aVHBV
p951
aVhypermethylated
p952
aVCore-specific
p953
aVgranulocyte/macrophage
p954
aVPathways
p955
aVprominently
p956
aVThy-tax
p957
aVmetalloproteinase
p958
aVphorbol-myristate-acetate
p959
aVaspects
p960
aVcounteracting
p961
aVdetrimental
p962
aVtissue-type
p963
aVEM-2
p964
aVbreakage
p965
aVcycle-dependent
p966
aVthiazolidinediones
p967
aVmalignancy
p968
aVGal4-resposive
p969
aVcolon
p970
aVMyc
p971
aVMyb
p972
aVintestinal
p973
aVPGG-glucan
p974
aVFli-1
p975
aVconditional
p976
aVExpressed
p977
aVRFX1
p978
aVPDGF
p979
aVinterleukin
p980
aVcavity
p981
aVtoto
p982
aVpathogenesis
p983
aV1-dependent
p984
aVdestroys
p985
aVantibody-mediated
p986
aVKCl
p987
aVretinoic
p988
aVretinoid
p989
aVAnti-TNF-alpha
p990
aVratios
p991
aVRestriction
p992
aVbimodal
p993
aVco-transfection
p994
aVII-induced
p995
aVomega-monomethyl-L-arginine
p996
aVtumor
p997
aVbone
p998
aVact
p999
aVage-related
p1000
aVperturbed
p1001
aVAssays
p1002
aVlytic
p1003
aVNo
p1004
aVpotentiate
p1005
aVdisrupts
p1006
aVimmunodeficiency
p1007
aVaccumulated
p1008
aVphosphotyrosine-containing
p1009
aVDown-regulation
p1010
aVsalicylate
p1011
aVNO
p1012
aVso-far-unrecognized
p1013
aVNF
p1014
aVNF-IL2A
p1015
aVsecretion
p1016
aVCis-acting
p1017
aVNT
p1018
aVICOS
p1019
aVcomplete
p1020
aVoctamer
p1021
aVsecreted
p1022
aVmammals
p1023
aVets
p1024
aVM-CSF
p1025
aVsecretes
p1026
aVfollicular
p1027
aVDNase-I
p1028
aVclones
p1029
aVmice
p1030
aVNF-kappaB-directed
p1031
aVwith
p1032
aVFox01
p1033
aVSMX-NHOH
p1034
aVanti-infective
p1035
aV-linked
p1036
aVkappaB-driven
p1037
aVPKC-mediated
p1038
aVP45
p1039
aVpulp
p1040
aVdetailed
p1041
aVab
p1042
aVsubclinically
p1043
aVcertain
p1044
aVhistocompatibility
p1045
aVan
p1046
aVas
p1047
aVProduction
p1048
aVassociating
p1049
aVat
p1050
aVlymphokines
p1051
aVAZT
p1052
aVHox
p1053
aVA-MYB
p1054
aVT1/2
p1055
aVabolish
p1056
aVtight
p1057
aVTandem
p1058
aVspatial
p1059
aVetiologically
p1060
aV2007
p1061
aVsite-forming
p1062
aVDNMT3A
p1063
aVsite-like
p1064
aVmonocyte
p1065
aVAlteration
p1066
aVFKBP
p1067
aVanthracyclines
p1068
aVNonspecific
p1069
aVlocus-activating
p1070
aVcpm
p1071
aVacids
p1072
aVDirect
p1073
aVhaving
p1074
aVmimic
p1075
aVimmunoglobulin
p1076
aVmass
p1077
aVcell-to-cell
p1078
aVsplicing
p1079
aVcentered
p1080
aVcaused
p1081
aVnucleotide-dependent
p1082
aVFig
p1083
aVcauses
p1084
aVparticles
p1085
aVoct-2A
p1086
aVCAAT
p1087
aVCytokine
p1088
aVTIMP-2
p1089
aVTIMP-1
p1090
aVCostimulation
p1091
aVGSSG/GSH-induced
p1092
aVto
p1093
aVGGGGCTGTCCC
p1094
aVendogenous
p1095
aVreturned
p1096
aVAuTG
p1097
aVSP-1
p1098
aV/PDGF-B
p1099
aVsubunits
p1100
aVblockade
p1101
aVmyeloperoxidase
p1102
aVTFG-beta
p1103
aVHL60R
p1104
aVstrand
p1105
aVco-stimulatory
p1106
aVpotentiation
p1107
aVaccompanying
p1108
aVRel-related
p1109
aV-negative
p1110
aVSIVmacMER
p1111
aVphosphorylation
p1112
aVlarge
p1113
aVthese
p1114
aVmurine-specific
p1115
aVsmall
p1116
aVpostnatally
p1117
aVreactvation
p1118
aVantibiotic
p1119
aVpast
p1120
aVdisplays
p1121
aVco-repressors
p1122
aVhormone-binding
p1123
aVsituated
p1124
aV21-base
p1125
aVhormonal
p1126
aVantiallergic
p1127
aVEomesodermin
p1128
aVtransactivator
p1129
aVmethod
p1130
aVcontrast
p1131
aVIL3
p1132
aVrevealing
p1133
aV11-14
p1134
aVfull
p1135
aVhours
p1136
aVVCAM-1
p1137
aVOKT3/PMA
p1138
aVdifferentiate/mature
p1139
aVthymidine
p1140
aVprior
p1141
aVhamster
p1142
aVDifferentiation
p1143
aVallografts
p1144
aVsuccinate
p1145
aVbisulfite
p1146
aVfollowed
p1147
aVpHIV-CAT
p1148
aVsuperantigen
p1149
aVselect
p1150
aVElements
p1151
aVobjectives
p1152
aV6
aVc-erbA/thyroid
p1153
aVmore
p1154
aVproliferative
p1155
aVinitiated
p1156
aVsubstances
p1157
aVrelevant
p1158
aVcorrected
p1159
aVemission
p1160
aVtested
p1161
aVRaji
p1162
aVkeeping
p1163
aVhemin-induced
p1164
aVpGL4-TKhRluc2
p1165
aVT-bet
p1166
aVRel/kappaB
p1167
aVViral
p1168
aVaxin
p1169
aVantagonists
p1170
aVmyristate
p1171
aVstates
p1172
aVregulators/adapters
p1173
aVsense
p1174
aVsalts
p1175
aVIRBP
p1176
aVinformation
p1177
aVrespective
p1178
aVDownstream
p1179
aV-enriched
p1180
aVFusion
p1181
aVfreshly
p1182
aVv-Fos
p1183
aVOTF-2
p1184
aVOTF-1
p1185
aVvariant
p1186
aVmapping
p1187
aVphenotypes
p1188
aVcotransfected
p1189
aVthymopoiesis
p1190
aVauthentic
p1191
aV-55
p1192
aV-54
p1193
aV-57
p1194
aV-51
p1195
aV-50
p1196
aVE2F1
p1197
aVresemble
p1198
aV3q21
p1199
aV-59
p1200
aVTissue
p1201
aVfundamental
p1202
aVtyrosine-phosphorylated
p1203
aVlow-ionic-strength
p1204
aVImmunoResearch
p1205
aVGPIX
p1206
aVpaper
p1207
aVp130
p1208
aVIL-1RA
p1209
aVits
p1210
aVP-450
p1211
aVrapidly
p1212
aVEBV-positive
p1213
aVpolymerases
p1214
aVGPIIb-IIIa
p1215
aVnonviable
p1216
aVconjugation
p1217
aVsymptoms
p1218
aVburst-forming
p1219
aVbypass
p1220
aVsu
p1221
aVdominant-negative
p1222
aVOleate
p1223
aVokadaic
p1224
aVseverely
p1225
aVC3a
p1226
aVreciprocally
p1227
aV3.4-fold
p1228
aVURS
p1229
aVspeculate
p1230
aVheparin-binding
p1231
aVchannels
p1232
aValways
p1233
aVResistance
p1234
aVGA-binding
p1235
aV627-bp
p1236
aVDoses
p1237
aVfound
p1238
aVreactions
p1239
aVNGF
p1240
aVbends
p1241
aVIX
p1242
aVreduce
p1243
aVdoses
p1244
aVAntioxidants
p1245
aVrepressive
p1246
aVPRDI
p1247
aVresearch
p1248
aVBMT
p1249
aVdenoted
p1250
aVoccurs
p1251
aVsecretory/transport
p1252
aVlocalization
p1253
aVantisera
p1254
aVabnormally
p1255
aVChang
p1256
aVdriven
p1257
aVpairs
p1258
aVretained
p1259
aV-TRAF2
p1260
aVpersons
p1261
aVTBP
p1262
aVsubtoxic
p1263
aVCp
p1264
aVexhibited
p1265
aVmajor
p1266
aVhyper-sensitivity
p1267
aVthereafter
p1268
aVnumber
p1269
aVRepression
p1270
aVoctamer-binding
p1271
aVOCTA
p1272
aVphysico-chemical
p1273
aVdiffer
p1274
aVPGG-Glucan
p1275
aVintroduction
p1276
aVcheckpoint
p1277
aVadenovirus
p1278
aVdeletional
p1279
aVmaster
p1280
aVmolecular
p1281
aVglucocorticosteroids
p1282
aVPPARalpha
p1283
aVtwo-phase
p1284
aVKrox-24
p1285
aVelaboration
p1286
aVrelationship
p1287
aVimmediate
p1288
aVCDR2-loop
p1289
aVfocusing
p1290
aVspacings
p1291
aVionophore-induced
p1292
aVcritically
p1293
aV591/EGR2
p1294
aV2.5-fold
p1295
aVmultimer
p1296
aVdetermined
p1297
aV/CBF
p1298
aVSlVmac239
p1299
aVPD98059
p1300
aVinsertion
p1301
aVFuGene
p1302
aVMOLT
p1303
aVdefect
p1304
aVA23187
p1305
aVPlatelet-induced
p1306
aVPRISM
p1307
aVconjugate
p1308
aVresynthesis
p1309
aVzileuton
p1310
aVantagonizes
p1311
aVIFNgamma
p1312
aVself
p1313
aVHIV-protease
p1314
aVEomes
p1315
aValso
p1316
aVrecognizing
p1317
aVinternal
p1318
aVanalogy
p1319
aVanalogs
p1320
aVplay
p1321
aVM
aVMIP-1alpha
p1322
aVphosphoprotein
p1323
aVvirus
p1324
aV4-trifluoromethyl
p1325
aVds-oligonucleotides
p1326
aVlaboratories
p1327
aVP65
p1328
aVbeta-mecaptoethanol
p1329
aVXP-B
p1330
aVOTF
p1331
aVXP-D
p1332
aVproliferated
p1333
aVIg
p1334
aVPhysical
p1335
aVPMA/A23187
p1336
aVCytokines
p1337
aVambiguities
p1338
aVpCMV4-Tax
p1339
aVgold
p1340
aVnondetectable
p1341
aVTal1
p1342
aVdegraded
p1343
aV/c-Rel
p1344
aVoccupation
p1345
aVimpact
p1346
aVindicator
p1347
aVconsistently
p1348
aVHAEC
p1349
aVLabs
p1350
aVfailed
p1351
aVenzyme
p1352
aVcassette
p1353
aVdamage-induced
p1354
aVfactor
p1355
aVBRCA1
p1356
aVinducibly
p1357
aVdependent
p1358
aVHIV-LTR
p1359
aVNF-kappaB-independent
p1360
aVAF-2
p1361
aVT-lymphocytes
p1362
aVAF-1
p1363
aVclosely
p1364
aVreporters
p1365
aVuntreated
p1366
aVinducible
p1367
aVprogressive
p1368
aVEPO
p1369
aVtumors
p1370
aVspliced
p1371
aVHela
p1372
aVimmunosuppressants
p1373
aVrCTLA4Ig
p1374
aVapproaching
p1375
aVset
p1376
aVacid-sensitive
p1377
aVFos
p1378
aV317
p1379
aVanti-Fas
p1380
aVpotent
p1381
aVantiproliferative
p1382
aVcollectively
p1383
aVsee
p1384
aVmigration
p1385
aV-p50
p1386
aVprotein-DNA
p1387
aVanalog
p1388
aVTyrosine
p1389
aVsequences
p1390
aV#
aVcurrently
p1391
aVrejecting
p1392
aV61058
p1393
aVacidic
p1394
aVEMSA
p1395
aVacutely
p1396
aVavailable
p1397
aVkilobase
p1398
aVtargeted
p1399
aVCTG-dimer
p1400
aVVivo
p1401
aVpolymerized
p1402
aVselectively
p1403
aVNFATc.beta
p1404
aVC/EBP
p1405
aVcryptic
p1406
aVPrior
p1407
aVbarely
p1408
aVIgG1
p1409
aVconnection
p1410
aVimproves
p1411
aVTLCK
p1412
aVretarded
p1413
aVlong-term
p1414
aVwhole
p1415
aVhomologue
p1416
aVYY1
p1417
aVacted
p1418
aVtrolox
p1419
aVcorresponds
p1420
aVagents
p1421
aVinitiation
p1422
aVprotooncogenes
p1423
aVCross-competition
p1424
aVdopamine-induced
p1425
aVCare
p1426
aVresting
p1427
aVinfect
p1428
aV-phoQ
p1429
aVsilencer
p1430
aVsignal-regulated
p1431
aVStarting
p1432
aVligands
p1433
aVRel/NF-kappaB-responsive
p1434
aVChinese
p1435
aVreliable
p1436
aVexpanded
p1437
aVnucleotides
p1438
aVvol
p1439
aVPretreatment
p1440
aVvon
p1441
aVgamma-herpesvirus
p1442
aVbinding
p1443
aVTPA-treated
p1444
aVimmunomodulatory
p1445
aVPGE2-dependent
p1446
aVanti-thrombin
p1447
aVtriple
p1448
aVCCl4-induced
p1449
aVGerosa
p1450
aVmediating
p1451
aVelevated
p1452
aVtrans-activation
p1453
aVvirtually
p1454
aVRAW264
p1455
aVBettelli
p1456
aVrevertants
p1457
aVmegakaryocytes
p1458
aVkinetics
p1459
aV-CD16
p1460
aVcomprehensive
p1461
aVBAY11
p1462
aVlevels
p1463
aVnecessity
p1464
aVrecent
p1465
aVLimited
p1466
aVSAP-1
p1467
aVimmunohistological
p1468
aV52,53
p1469
aVpolyclonal
p1470
aVregulating
p1471
aVPurity
p1472
aVclearance
p1473
aV5-azacytidine
p1474
aVc-fos
p1475
aVProlactin
p1476
aVhypothesized
p1477
aVtriflusal
p1478
aVE74
p1479
aVglobin
p1480
aVdissociation
p1481
aVconclusions
p1482
aVhsp90
p1483
aVdeclined
p1484
aVsignals
p1485
aVCCK-8
p1486
aVcausing
p1487
aV-controlled
p1488
aVlocation
p1489
aVE-boxes
p1490
aVrelevance
p1491
aVinput
p1492
aVBoth
p1493
aVsyndrome-associated
p1494
aVdysfunctions
p1495
aVacute
p1496
aVcouple
p1497
aVemanating
p1498
aVemergence
p1499
aVtranscription-enhancer
p1500
aVnNOS
p1501
aV9.3
p1502
aVimposed
p1503
aVd
aVOH
p1504
aV-36
p1505
aVanti-rabbit
p1506
aVretrovirus
p1507
aVHighly
p1508
aVfibroblasts
p1509
aVcontinue
p1510
aVyields
p1511
aVin-vitro-translated
p1512
aVehrlichial
p1513
aVdisorder
p1514
aVpertaining
p1515
aVpermeabilized
p1516
aVmethods
p1517
aVdose-dependent
p1518
aVtransactivators
p1519
aVDEN
p1520
aVNF-M
p1521
aV-1954
p1522
aVHUVECs
p1523
aVbe
p1524
aVbb
p1525
aVfollicles
p1526
aVagreement
p1527
aVegr-2
p1528
aVTaxol
p1529
aVDeficiencies
p1530
aVbp
p1531
aVC5a
p1532
aVNF-IL-6
p1533
aVby
p1534
aVanti-IL10
p1535
aVDomain
p1536
aVanything
p1537
aVLocus
p1538
aVcotransfection
p1539
aVchi
p1540
aVNP-5
p1541
aVAPC-independent
p1542
aVrepair
p1543
aVACH
p1544
aVintegral
p1545
aVDefensin
p1546
aVlocus
p1547
aVappropriate
p1548
aVmitochondrial
p1549
aVRetinoblastoma
p1550
aVNER
p1551
aVpathogenicity
p1552
aVepidermal
p1553
aVTH-dependent
p1554
aVspecifically
p1555
aVACs
p1556
aVIFN-gamma-activated
p1557
aVEts-related
p1558
aVcDNAs
p1559
aVlipopolysaccharide
p1560
aVconsiderably
p1561
aVFibrinogen
p1562
aVligation
p1563
aVgrowth-regulated
p1564
aVlink
p1565
aVSJO
p1566
aVATPase
p1567
aVprotooncogene
p1568
aVline
p1569
aVResolution
p1570
aVconsiderable
p1571
aVcounterstained
p1572
aVOffice
p1573
aVstem-loop
p1574
aVAfrica
p1575
aVup
p1576
aVus
p1577
aVcis
p1578
aVpaired
p1579
aVmatrix-associated
p1580
aVmature
p1581
aVCTL-specific
p1582
aVGGAAAA
p1583
aVtranscriptional
p1584
aVattenuating
p1585
aVphytohemaglutinin
p1586
aVdefined
p1587
aVinfluence
p1588
aVR-3-hydroxymyristate
p1589
aVUCSD-AML1
p1590
aVPKCalpha
p1591
aVdiverse
p1592
aVHydroxyurea
p1593
aVFcgammaRI
p1594
aVTCF-1
p1595
aVtranslocations
p1596
aVprofibrotic
p1597
aVvirus-specific
p1598
aVpreventing
p1599
aV-triggered
p1600
aVelements
p1601
aVanti-onco-genic
p1602
aVdevelopmental
p1603
aVfaintly
p1604
aVlong-lasting
p1605
aVPMA-induced
p1606
aVsuppression
p1607
aVGATA-factor
p1608
aVlane
p1609
aVcalmodulin-binding
p1610
aVc-Fos
p1611
aValgorithm
p1612
aVrescued
p1613
aVthrombosis
p1614
aVDithiocarbamates
p1615
aVopposing
p1616
aVanti-E
p1617
aV10-fold
p1618
aVretardation
p1619
aVfresh
p1620
aVrescues
p1621
aVpartial
p1622
aVresults
p1623
aVillustrated
p1624
aV.2.5
p1625
aVdepletion
p1626
aViii
p1627
aVyoung
p1628
aVendogenously
p1629
aVRo5-3335
p1630
aVtissue-specific
p1631
aVindicating
p1632
aVcyclooxygenase
p1633
aVF2
p1634
aVdevelopmentally
p1635
aVcontinued
p1636
aVcategories
p1637
aVsoluble
p1638
aVtransmission
p1639
aVSurface
p1640
aV35-fold
p1641
aVIPEX
p1642
aVOVA
p1643
aVPreincubation
p1644
aVPrimer
p1645
aVbasic-helix-loop-helix
p1646
aVplatelet-activating
p1647
aVGATA/ER
p1648
aVprogenitors
p1649
aVrecruitment
p1650
aVpStat6
p1651
aVpStat3
p1652
aVdynamics
p1653
aVweek
p1654
aVapparatus
p1655
aVNRE-II
p1656
aVexpressed
p1657
aVBlockade
p1658
aVISG15
p1659
aVexpresses
p1660
aVIL-1R
p1661
aV-p56
p1662
aVproliferation
p1663
aVled
p1664
aVNaOH
p1665
aVrespectively
p1666
aVheme-treated
p1667
aVmonocyte/macrophage
p1668
aVphysiology
p1669
aVgreat
p1670
aVengage
p1671
aVHIV-associated
p1672
aVinvolved
p1673
aVacetyltransferase
p1674
aVresulting
p1675
aVinsulin
p1676
aVdyad
p1677
aVinvolves
p1678
aVIKAROS/LYF
p1679
aVfactor-binding
p1680
aVpp125FAK
p1681
aVLTR-modified
p1682
aVadherence/contact
p1683
aVlymphocytic
p1684
aVoligomerization
p1685
aVGGGGACTTTCCG
p1686
aVTNF-dependent
p1687
aVcausal
p1688
aVets-binding
p1689
aVnext
p1690
aV21-base-pair
p1691
aVduplicate
p1692
aVmulti-protein
p1693
aVchloride
p1694
aVkaryophilic
p1695
aVjudged
p1696
aVphoQ
p1697
aVphoP
p1698
aVchloroquine
p1699
aVcalcium-mobilizing
p1700
aVAML1
p1701
aVoccurred
p1702
aVbodily
p1703
aVcarrying
p1704
aVderegulate
p1705
aVanimals
p1706
aVthis
p1707
aVphox
p1708
aVchallenge
p1709
aVerythroid
p1710
aVNeg-2
p1711
aVhydrolysis
p1712
aVPU-box
p1713
aVPentoxifylline
p1714
aVweaker
p1715
aVIL-2rE
p1716
aVprocess
p1717
aVloci
p1718
aVpurposes
p1719
aVCATGTGGC
p1720
aVhigh
p1721
aVbend
p1722
aVAPCs
p1723
aVHSP70
p1724
aVSeveral
p1725
aVdocking
p1726
aVdelay
p1727
aVNevertheless
p1728
aVhormones
p1729
aVestablishment
p1730
aVblocks
p1731
aV/CD69
p1732
aVDose-response
p1733
aVGal4-BD-CREB-1
p1734
aVLdb-1
p1735
aVdemonstrating
p1736
aVmarrow
p1737
aVefficiently
p1738
aVviremia
p1739
aVrealized
p1740
aVderanged
p1741
aVOct2
p1742
aVmicrobial
p1743
aVelement
p1744
aVMBD4
p1745
aVNFAT-DNA
p1746
aVMBD1
p1747
aVallow
p1748
aVMBD2
p1749
aVEdelta
p1750
aVproduces
p1751
aVinsight
p1752
aVtranscriptionally
p1753
aVproduced
p1754
aV100-fold
p1755
aV/TAN
p1756
aVdirects
p1757
aVcAMP-response
p1758
aVligand-receptor
p1759
aVperfect
p1760
aVdecay
p1761
aVchosen
p1762
aVprogeny
p1763
aVhypothesize
p1764
aVmellitus
p1765
aV53071
p1766
aVcommunication
p1767
aVderivative
p1768
aVsuppressor
p1769
aVfMLP
p1770
aVIFN-beta
p1771
aVIgLMP1
p1772
aVdisrupted
p1773
aVmitigated
p1774
aVJurkat
p1775
aVfunction-associated
p1776
aVaccompanies
p1777
aVNFAT-family
p1778
aVaccompanied
p1779
aVdifferentiation-promoting
p1780
aVinverting
p1781
aVsubset
p1782
aVSTAT
p1783
aVId-3
p1784
aVBCR-derived
p1785
aVc-fms
p1786
aVdeficiency
p1787
aVfibronectin
p1788
aVfrequency
p1789
aVmicroscopy
p1790
aVIRFs
p1791
aVmediates
p1792
aVfundamentally
p1793
aVthyrocyte
p1794
aVmediated
p1795
aVmotifs
p1796
aVshut
p1797
aVdelineate
p1798
aVinteractions
p1799
aV-11
p1800
aVadherence
p1801
aVregulators
p1802
aV-12
p1803
aVstaurosporin
p1804
aVregulatory
p1805
aVMHC/superantigen
p1806
aVcould
p1807
aVGRO-alpha
p1808
aVpro-inflammatory
p1809
aVactivation-inducible
p1810
aVlength
p1811
aVBsh1236I
p1812
aVassumed
p1813
aVrepeats
p1814
aVdistinguish
p1815
aVstimulate
p1816
aVEBV-mediated
p1817
aVAntiserum
p1818
aVrhIL-2
p1819
aVZif-268
p1820
aVClinicians
p1821
aVCostimulatory
p1822
aVcollagen
p1823
aVbacterially
p1824
aVpg/mL
p1825
aVProgram
p1826
aVB-alpha
p1827
aVmicromol/L
p1828
aVextrinsic
p1829
aVhistograms
p1830
aVtranscriptionally-active
p1831
aVpg/ml
p1832
aVmembrane-proximal
p1833
aVperipheral
p1834
aVRel/STAT
p1835
aVTRE-DNA
p1836
aVsib-pair
p1837
aVtesting
p1838
aVadaptor
p1839
aVindomethacin
p1840
aVcalcineurin-stimulated
p1841
aVCalcium
p1842
aVprimers
p1843
aV-1.7
p1844
aVAnergy
p1845
aVdithiocarbamates
p1846
aVcolleagues
p1847
aVinterferon-alpha
p1848
aVkappaB-Sp1
p1849
aVreacted
p1850
aV-producing
p1851
aVnegatively
p1852
aVallergic
p1853
aVresult
p1854
aVGal4-BD-Tax
p1855
aVprotease-treated
p1856
aVResults
p1857
aVoctamer-bound
p1858
aVaffinities
p1859
aVOne
p1860
aVclearly
p1861
aVbasal-level
p1862
aVstudying
p1863
aVReversed
p1864
aVmechanism
p1865
aVadjunct
p1866
aVimmunmodulatory
p1867
aVX2-box
p1868
aVperoxidase
p1869
aVreproducing
p1870
aVcompetence
p1871
aVpersistence
p1872
aVPierce
p1873
aVMethylation
p1874
aVmultimeric
p1875
aVMac-1
p1876
aVM-TAT/EPO
p1877
aVcomparison
p1878
aVsegment
p1879
aVeicosanoids
p1880
aVso-called
p1881
aVMCM
p1882
aVvolunteers
p1883
aVplacement
p1884
aVERK5
p1885
aVCys2-Xaa12-His2
p1886
aVGFP
p1887
aVbred
p1888
aVstronger
p1889
aVNOTCH1
p1890
aVRelative
p1891
aVAg-3
p1892
aVAgonistic
p1893
aVmechanical
p1894
aVfact
p1895
aVHSF1
p1896
aVHSF2
p1897
aVcharacterisation
p1898
aVterminate
p1899
aVbring
p1900
aVcyclase
p1901
aVMDMs
p1902
aVprincipal
p1903
aVH-8
p1904
aVH-7
p1905
aVshould
p1906
aVterminal
p1907
aVmolecules
p1908
aVFoxo3a
p1909
aVStrong
p1910
aVConstitutively
p1911
aVC-235
p1912
aVantagonism
p1913
aVTCEd
p1914
aVpathophysiology
p1915
aVexchanges
p1916
aVantagonist
p1917
aVBecause
p1918
aVchemically-reactive
p1919
aVlittermate
p1920
aVcomprising
p1921
aVHSFE
p1922
aVdelta418
p1923
aVPu
p1924
aVexerted
p1925
aVOBF-1
p1926
aVCRE
p1927
aV-1,065
p1928
aVparallels
p1929
aVPR
p1930
aVPS
p1931
aVinteracting
p1932
aVPU
p1933
aVnuclear
p1934
aVcarcinomas
p1935
aVstearic
p1936
aVDeltaFKH
p1937
aVRestoration
p1938
aVPF
p1939
aVPE
p1940
aVPI
p1941
aVP2
p1942
aVP3
p1943
aVP0
p1944
aVP1
p1945
aV3q21-24
p1946
aVP4
p1947
aVP5
p1948
aVnotion
p1949
aVconfiguration
p1950
aVLysates
p1951
aVmug/ml
p1952
aVCR1
p1953
aVfive-fold
p1954
aVisopropanol
p1955
aVAstrocytes
p1956
aVdrug
p1957
aVfigures
p1958
aVIono
p1959
aVleishmaniasis
p1960
aVconclude
p1961
aVadeno-associated
p1962
aVprostaglandin
p1963
aVca
p1964
aVregulon
p1965
aVreconstitution
p1966
aVenhancer-zeta
p1967
aVdimerizing
p1968
aVcells/mm2
p1969
aVFactor-1
p1970
aVElevation
p1971
aVPAF-induced
p1972
aVchronicity
p1973
aVgenetic
p1974
aVLightfoote
p1975
aVAMP-dependent
p1976
aVutilizing
p1977
aVGen
p1978
aV>
aVlymphoid
p1979
aVCD69
p1980
aVCD68
p1981
aVng/ml
p1982
aVIgM-secreting
p1983
aVFragmentation
p1984
aVFlowJo
p1985
aVlipid-associated
p1986
aVPU.1
p1987
aVExogenously
p1988
aVHTLV-II
p1989
aVStepwise
p1990
aVconcerted
p1991
aVdiversification
p1992
aVsite
p1993
aVStrict
p1994
aVhSIE
p1995
aVRBP-Jkappa
p1996
aVsitu
p1997
aVnegative-acting
p1998
aVflasks
p1999
aVall-trans
p2000
aVinfarction
p2001
aVEBNA
p2002
aVNF-AT
p2003
aVconflicting
p2004
aVGranzyme
p2005
aV24-29
p2006
aVcomplemented
p2007
aVPercentages
p2008
aV24-26
p2009
aVpolyA
p2010
aVidentity
p2011
aVNF-kappaB-responsive
p2012
aVDifferentiation-dependent
p2013
aVC/EBP-beta
p2014
aVpulse-treatment
p2015
aVchemokine
p2016
aVpatterns
p2017
aVCD11b
p2018
aVsubgroup
p2019
aVtrophic
p2020
aVless
p2021
aVmonocytes-macrophages
p2022
aVhormone-activated
p2023
aVGiven
p2024
aVkinases/extracellular
p2025
aVresuspended
p2026
aVpredicts
p2027
aV-CD30L
p2028
aVgranulocytic
p2029
aVluciferase
p2030
aVtransactivated
p2031
aVCK-1
p2032
aVcotreatment
p2033
aVCK-2
p2034
aVB-binding
p2035
aVincreased
p2036
aVI/Y
p2037
aVoctamer-like
p2038
aVB-specific
p2039
aVcell-type
p2040
aVincreases
p2041
aVfive
p2042
aVGlimcher
p2043
aVcerevisiae
p2044
aVplacenta
p2045
aVphenomena
p2046
aVcostimulate
p2047
aVparasite
p2048
aVTFIIIB
p2049
aVCD2-activated
p2050
aVbecome
p2051
aVneutrophils
p2052
aVreplacement
p2053
aVcarcinogens
p2054
aVAddition
p2055
aVunderwent
p2056
aVshuttling
p2057
aVsubset-restricted
p2058
aVtransport
p2059
aVICN
p2060
aVLymphoid
p2061
aVICSBP
p2062
aVdeacetylase
p2063
aVdoes
p2064
aV130-kD
p2065
aVchelating
p2066
aVtransactivator-induced
p2067
aVbiology
p2068
aVmacrophages
p2069
aVselecting
p2070
aVisoquinoline
p2071
aVsemi-purified
p2072
aVTPCK
p2073
aVselectins
p2074
aVvs.
p2075
aVstage
p2076
aVgained
p2077
aVNM23
p2078
aVT-box
p2079
aVtime-dependent
p2080
aValpha-tcp-induced
p2081
aVinsufficient
p2082
aVconstraints
p2083
aVExpressHyb
p2084
aVH7
p2085
aVletters
p2086
aVkappaB-regulated
p2087
aVFOSB
p2088
aV-570
p2089
aVcommitment
p2090
aVassess
p2091
aVlung
p2092
aVreceptor-ligand
p2093
aV/c-Jun
p2094
aVPit-1b
p2095
aVrestricts
p2096
aVSignaling
p2097
aV/Vav/phosphatidylinositol
p2098
aVSynergistic
p2099
aVunresponsive
p2100
aVspecimens
p2101
aVnaturally
p2102
aVfunction
p2103
aVC/EBPalpha
p2104
aVWnt
p2105
aVprogrammed
p2106
aVInterestingly
p2107
aVWY14643
p2108
aVoverlapping
p2109
aVdelivery
p2110
aVimmunologically
p2111
aVlowered
p2112
aVconvergence
p2113
aVimmunopathogenesis
p2114
aVdelivers
p2115
aVanetholdithiolthione
p2116
aVfragmentation
p2117
aVevident
p2118
aVPI3K/Akt
p2119
aVchaperone
p2120
aVcalcium
p2121
aVplaced
p2122
aVPBLs
p2123
aVdistribution
p2124
aVbearing
p2125
aVCIF
p2126
aVrecognize
p2127
aVcontribute
p2128
aVCIS
p2129
aVsibling
p2130
aVepithelial
p2131
aVp50B
p2132
aVnuclease
p2133
aVcompared
p2134
aVvariety
p2135
aVtrials
p2136
aVmetal-ion
p2137
aVrunting
p2138
aVSentman
p2139
aVdetails
p2140
aVquantities
p2141
aVacidification
p2142
aVJak3
p2143
aVthiols
p2144
aVforkhead
p2145
aVrepeat
p2146
aVrepressors
p2147
aVneuroblastoma
p2148
aVTHP1
p2149
aVU
aVcytokine-mRNA
p2150
aValpha-interferon
p2151
aVexposure
p2152
aV104-bp
p2153
aVtranscription/translation
p2154
aVcompete
p2155
aVanti-kappa
p2156
aVTat-I
p2157
aVsuicidal
p2158
aVdown-regulating
p2159
aValleles
p2160
aVRoche
p2161
aVcontroversial
p2162
aVintegrity
p2163
aVshear-induced
p2164
aVHIV-TF1
p2165
aVphysiological
p2166
aVmechanims
p2167
aVHDMEC
p2168
aV244-bp
p2169
aVDNA-binding
p2170
aVgene-suppressive
p2171
aVInducible
p2172
aVdouble-negative
p2173
aVreplication
p2174
aVantigen-presenting
p2175
aVHIVs
p2176
aV-related
p2177
aVMAP
p2178
aVprogression
p2179
aVmolybdate
p2180
aVDose
p2181
aVdownregulating
p2182
aVindices
p2183
aV297
p2184
aVabolishing
p2185
aV293
p2186
aV4,11,14,17
p2187
aVNF-kappaB/Rel
p2188
aVLipopolysaccharide
p2189
aVmyricetin
p2190
aVestablished
p2191
aVcooperating
p2192
aVNFAT/AP
p2193
aVincompatible
p2194
aV+
aVD.-E.
p2195
aVconsequent
p2196
aVabove
p2197
aVtoll
p2198
aVIL-2R-alpha
p2199
aVconsisting
p2200
aVD3-mediated
p2201
aVsimultaneously
p2202
aVendothelium
p2203
aVprotection
p2204
aVX-ray
p2205
aVobtained
p2206
aVextrapituitary
p2207
aVH/C
p2208
aV-10
p2209
aVstudy
p2210
aVEGR-1
p2211
aVCu
p2212
aVsmoke
p2213
aVsequestering
p2214
aVCsA-sensitive
p2215
aVsynergizes
p2216
aVmodulates
p2217
aVpredominant
p2218
aVhighly
p2219
aVInterleukin-1
p2220
aVmodulated
p2221
aVInterleukin-3
p2222
aVInterleukin-4
p2223
aVInterleukin-5
p2224
aVInterleukin-7
p2225
aVCTL
p2226
aVsupernatants
p2227
aVtotal
p2228
aV5-LOX
p2229
aVStat
p2230
aVStar
p2231
aVlikelihood
p2232
aVisoform
p2233
aValkaloid
p2234
aVintracellularly
p2235
aVnegative
p2236
aVsubstitutions
p2237
aVseparated
p2238
aVtolerated
p2239
aVThapsigargin
p2240
aVExtracts
p2241
aVConstitutive
p2242
aV/HEB
p2243
aVself-perpetuated
p2244
aVblocking
p2245
aV31,37
p2246
aV1991
p2247
aVreceptor-1
p2248
aV1995
p2249
aV-expressing
p2250
aV1996
p2251
aVenhancer-blocking
p2252
aVlipid-lowering
p2253
aVwork
p2254
aVphosphorylated
p2255
aVmammalian
p2256
aVImmunoprecipitation
p2257
aVoxide
p2258
aVEBNA-2A
p2259
aVORF
p2260
aVlysophospholipids
p2261
aVOncogenic
p2262
aVindicated
p2263
aV1.3-fold
p2264
aValloreactive
p2265
aVimpair
p2266
aVindicates
p2267
aVAbs
p2268
aVGASd/EBSd
p2269
aV-dependent
p2270
aVrecovery
p2271
aVprovide
p2272
aVie
p2273
aVrecovers
p2274
aVG-CSF
p2275
aVMNDA
p2276
aVImpaired
p2277
aVfever
p2278
aVtransforming
p2279
aVCD44
p2280
aVearlier
p2281
aVCD40
p2282
aVlac
p2283
aVretain
p2284
aVlipopolysaccharides
p2285
aVbHLH
p2286
aVtransfectant
p2287
aVHerein
p2288
aVsensitizing
p2289
aVorder
p2290
aVtriggering
p2291
aVinternalization
p2292
aVInhibitory
p2293
aVB-dependent
p2294
aVconsent
p2295
aVInhibitors
p2296
aV6.5
p2297
aVSp-1
p2298
aVchronically
p2299
aVpriming
p2300
aVT-cell-activating
p2301
aVTransfection
p2302
aVBands
p2303
aVgld/gld
p2304
aVproduction
p2305
aVTCR-signalling
p2306
aVReview
p2307
aVshear
p2308
aVthen
p2309
aVthem
p2310
aVaffected
p2311
aVZIP
p2312
aVfragment
p2313
aVrate-limiting
p2314
aVIP-10
p2315
aVAnalysis
p2316
aVreagent
p2317
aVthey
p2318
aVlifelong
p2319
aVSer-36
p2320
aVControl
p2321
aV-Ox
p2322
aVElucidation
p2323
aVoxygen
p2324
aVcoexpressing
p2325
aVgene-targeted
p2326
aV377
p2327
aVCCAAT/enhancer-binding
p2328
aVAutocrine
p2329
aVN-Ac-Leu-Leu-norleucinal
p2330
aVfactor-KB
p2331
aVD-responsive
p2332
aVLAMA-84
p2333
aVnetwork
p2334
aVeffector-to-target
p2335
aVCsA
p2336
aVGASd
p2337
aVdiamide
p2338
aVGlucocorticoids
p2339
aVmedicine
p2340
aVhelix-turn-helix
p2341
aVB-like
p2342
aVPrimers
p2343
aVCommittees
p2344
aVD5G6
p2345
aVbarrier
p2346
aVMolt-4
p2347
aVforskolin
p2348
aVIL-2Rbeta
p2349
aVNFkappaB-mediated
p2350
aVcreated
p2351
aVTAFII105
p2352
aVStable
p2353
aVloCD25
p2354
aVcreates
p2355
aVoppose
p2356
aVincorporated
p2357
aVco-migrating
p2358
aVCREB
p2359
aVRay-Gallet
p2360
aVbehaves
p2361
aVrender
p2362
aVCHO-DR
p2363
aVsystem
p2364
aVCell
p2365
aVemploying
p2366
aVActin
p2367
aVanother
p2368
aVimplicated
p2369
aVAIDS
p2370
aV11-base-pair
p2371
aVpathophysiological
p2372
aVsyncytium-forming
p2373
aVapproximately
p2374
aVatherosclerosis-promoting
p2375
aVblr1
p2376
aVrates
p2377
aVobservations
p2378
aVaminoguanidine
p2379
aVELISA
p2380
aVB
aVintestine
p2381
aVHS-40
p2382
aVenhancing
p2383
aVPriming
p2384
aV35,36
p2385
aVcorresponded
p2386
aVGene
p2387
aVEmploying
p2388
aVtarget
p2389
aVsurfactant
p2390
aVTUR
p2391
aVgp120
p2392
aVSex
p2393
aVbinds
p2394
aVEBV-negative
p2395
aVProteolytic
p2396
aViron
p2397
aVInitiation
p2398
aVSD-1
p2399
aVsolely
p2400
aVacetylsalicylate
p2401
aVLysoPC
p2402
aVmanner
p2403
aVInstead
p2404
aVphorbol-12-myristate-13-acetate
p2405
aVPDTC
p2406
aVre-exposure
p2407
aVforced
p2408
aVstrength
p2409
aVgenuine
p2410
aVtrans-dominant
p2411
aVDeath-inducing
p2412
aVconvenient
p2413
aVlatter
p2414
aVTHP-1
p2415
aVsubjects
p2416
aVcorrelating
p2417
aVmutants
p2418
aVpre-incubation
p2419
aVQp
p2420
aVviscosity
p2421
aVextending
p2422
aVoptimized
p2423
aVinvolving
p2424
aVquantitative
p2425
aVphase
p2426
aVassessed
p2427
aVcis-acting
p2428
aVautopsy
p2429
aVmanifested
p2430
aVpRb
p2431
aVincomplete
p2432
aVresponder
p2433
aVscavenging
p2434
aVLAZ3
p2435
aVaccounted
p2436
aVE1A
p2437
aVresponded
p2438
aVd.
p2439
aVbeta-chain
p2440
aV7.1
p2441
aVCD3/CD28
p2442
aVPAF
p2443
aVDCs
p2444
aVblotting
p2445
aVlatent
p2446
aVPdBU
p2447
aVvirus-mediated
p2448
aVelucidated
p2449
aVelectrophoresis
p2450
aVscreening
p2451
aVDCR
p2452
aVphosphatases-1
p2453
aVdo
p2454
aVfactor-IL6
p2455
aV-128
p2456
aVM47
p2457
aVdegradation
p2458
aVstimulations
p2459
aVassaying
p2460
aVLactobacilli
p2461
aVds
p2462
aVester-stimulated
p2463
aVrunt
p2464
aVKB-enhancer
p2465
aV26-kDa
p2466
aVeosinophil-derived
p2467
aVlabile
p2468
aVdifferentiation/maturation
p2469
aVIHC
p2470
aVimplication
p2471
aVexplanations
p2472
aVFunctionally
p2473
aVIL-2-alpha
p2474
aVPD-98059
p2475
aVGAPDH
p2476
aVobserved
p2477
aVdepends
p2478
aVcytoplasmic
p2479
aVdown-regulate
p2480
aVoptimum
p2481
aVtechniques
p2482
aVA-responsive
p2483
aVaway
p2484
aVRepeated
p2485
aVunable
p2486
aVcooperation
p2487
aVLPS-mediated
p2488
aVeosin
p2489
aVc-jun
p2490
aVwe
p2491
aVterms
p2492
aVFADD
p2493
aVprotein-TRE-DNA
p2494
aVdesensitization
p2495
aVPD098059
p2496
aVATGCAAAT
p2497
aVlinkage
p2498
aVessentially
p2499
aVSigma-Aldrich
p2500
aVCdk2
p2501
aVIFN-alpha-induced
p2502
aVsupplementation
p2503
aVETS
p2504
aVp120
p2505
aVInitial
p2506
aVcodon
p2507
aVmutations
p2508
aVLysophosphatidylethanolamine
p2509
aVGAS
p2510
aVMaximal
p2511
aVmobilization
p2512
aVTransient
p2513
aVwell-characterized
p2514
aVaffinity
p2515
aVfamilies
p2516
aVbioavailability
p2517
aVAP-1-binding
p2518
aVNADPH
p2519
aVcoherent
p2520
aVup-regulation
p2521
aVallele
p2522
aVLong-term
p2523
aVAnti-CD28
p2524
aVcytotoxic
p2525
aVinhibit
p2526
aVcross-talk
p2527
aVreciprocal
p2528
aVaim
p2529
aVC5a-induced
p2530
aVHLA-B27
p2531
aValkylation
p2532
aVproperty
p2533
aVcharacterizing
p2534
aVCross-linking
p2535
aVIkB
p2536
aVtissue
p2537
aV-ATF/CREB
p2538
aVc-Jun
p2539
aVconfirmed
p2540
aVperform
p2541
aVdemonstration
p2542
aVatopic
p2543
aVPan
p2544
aVplates
p2545
aVlithium
p2546
aVsulfoxide
p2547
aVindependent
p2548
aVwhole-cell
p2549
aVthalassemias
p2550
aVhand
p2551
aVB-cell-specific
p2552
aVY
aVMini
p2553
aVkept
p2554
aVwhereby
p2555
aVprotein-coupled
p2556
aVcytosins
p2557
aVbacterium
p2558
aVcompartments
p2559
aVleukocyte-derived
p2560
aVARDS
p2561
aVcontact
p2562
aVelongated
p2563
aVthe
p2564
aVgerm-line
p2565
aVcytosine
p2566
aVstringent
p2567
aVnon-HD
p2568
aVKaposi
p2569
aVGGAAs
p2570
aVthyroid
p2571
aVvisualization
p2572
aVLPS-mCD14
p2573
aVR-394
p2574
aVspread
p2575
aVS2
p2576
aVevidenced
p2577
aVplasma
p2578
aVS1
p2579
aVphotographed
p2580
aVCD28
p2581
aVinsensitive
p2582
aVCD23
p2583
aVCD21
p2584
aVCD20
p2585
aVCD26
p2586
aVCD25
p2587
aVfusion
p2588
aVfactor-dependent
p2589
aVZ-LLL-H-insensitive
p2590
aV2.3-kb
p2591
aVlymphoma
p2592
aVlck
p2593
aVGATA-4
p2594
aVN-Acetylcysteine
p2595
aVGATA-1
p2596
aVGATA-2
p2597
aVGATA-3
p2598
aVCertain
p2599
aV-derived
p2600
aVtemporally
p2601
aVDNase
p2602
aVimmunosuppressive
p2603
aVprotein-mediated
p2604
aVhoming
p2605
aV-460
p2606
aVStably
p2607
aVlineages
p2608
aVunnecessary
p2609
aVbeta-globin
p2610
aVPhosphotyrosine
p2611
aVlambda5
p2612
aV-Bio
p2613
aVdeposition
p2614
aVectopically
p2615
aV/
aVerythroid-specific
p2616
aVCHO-DR/B7
p2617
aVExternal
p2618
aVparticipation
p2619
aVIFN-alpha-inducible
p2620
aVSchool
p2621
aVH-chain
p2622
aVIL1-RA
p2623
aVelucidate
p2624
aVconfer
p2625
aVNF-E1
p2626
aVPropagation
p2627
aVmegakaryocyte-specific
p2628
aVRel/NF-kappa
p2629
aVsubstitution
p2630
aVAP-1-dependent
p2631
aVPharmacological
p2632
aVsite-directed
p2633
aVproperties
p2634
aVNF-GM2
p2635
aVBiophotometer
p2636
aVTcell
p2637
aVmonths
p2638
aVCBFalpha2
p2639
aVEpithelial
p2640
aVcis-element
p2641
aVdigestion
p2642
aVcostimulus
p2643
aVbound
p2644
aVrendering
p2645
aVmalignancies
p2646
aVdehydrogenase
p2647
aVgranulocytes
p2648
aVBcl-X
p2649
aVcausative
p2650
aVmutated
p2651
aVclinical
p2652
aVToremifene
p2653
aVway
p2654
aVwas
p2655
aVlowest
p2656
aVERK1
p2657
aVCD-40
p2658
aVERK2
p2659
aVencodes
p2660
aVlactones
p2661
aVB/rel
p2662
aVencoded
p2663
aVabsent
p2664
aVHTLV-I-encoded
p2665
aVISGs
p2666
aVmaximum
p2667
aV4.3-fold
p2668
aVcancers
p2669
aVreceptor-like
p2670
aVunusually
p2671
aVcycle-associated
p2672
aVCD16-induced
p2673
aVrenaturation
p2674
aVmicrolumat
p2675
aVevidence
p2676
aVconserved
p2677
aVBACKGROUND
p2678
aVacetate-inducible
p2679
aVmmol/L
p2680
aVphysical
p2681
aV170-fold
p2682
aVdying
p2683
aVbufalin-induced
p2684
aVExtending
p2685
aVtest
p2686
aVcalcineurin-dependent
p2687
aVLymphoma
p2688
aVextravasation
p2689
aVimmunoprecipitate
p2690
aVactivation-dependent
p2691
aVconcurrent
p2692
aV0.5-fold
p2693
aVDHEA
p2694
aVmitogen-activated
p2695
aVL-659
p2696
aVgoverned
p2697
aVAdherence-dependent
p2698
aVthrombogenesis
p2699
aVangiogenesis
p2700
aVATF1
p2701
aVblastocyst-derived
p2702
aVATF2
p2703
aVOxypurinol
p2704
aVswitched
p2705
aVglobal
p2706
aVX2BP
p2707
aVROIs
p2708
aVCLEO
p2709
aVBcl-3
p2710
aVuncoupling
p2711
aVcontributing
p2712
aVcertainly
p2713
aVhomocysteine
p2714
aVtheircapacity
p2715
aVzone
p2716
aVmacrophage-restricted
p2717
aVpermanently
p2718
aVmonocytes
p2719
aVT-lymphoid
p2720
aVZEBRA
p2721
aVdivision
p2722
aVprotective
p2723
aVToll-like
p2724
aV-interfering
p2725
aVdiminish
p2726
aVHsp60
p2727
aVnerve
p2728
aVrespiratory
p2729
aVFacility
p2730
aValtering
p2731
aVCLE0
p2732
aVknock-out
p2733
aVearly-response
p2734
aVp
aVgut
p2735
aVdependently
p2736
aVCML
p2737
aVthree-dimensional
p2738
aVPCR
p2739
aVrepetitive
p2740
aVAP3-L
p2741
aVCREB-induced
p2742
aVhigher-order
p2743
aVGC-dependent
p2744
aVPCL
p2745
aVCMV
p2746
aVsaturable
p2747
aVPCD
p2748
aVappear
p2749
aVMKP-1
p2750
aVE-cadherin
p2751
aVshares
p2752
aVNotably
p2753
aVsequential
p2754
aVhEpoR
p2755
aV-102
p2756
aVsupporting
p2757
aV-104
p2758
aVgenes
p2759
aVM22
p2760
aVmRNA
p2761
aVintrabodies
p2762
aVappears
p2763
aVchange
p2764
aVKruppel-related
p2765
aVheteromeric
p2766
aVPC4
p2767
aVusually
p2768
aVreagents
p2769
aVpathologies
p2770
aVplotted
p2771
aVpancreatitis
p2772
aVMM6
p2773
aV39-41
p2774
aVmarked
p2775
aVSuppressive
p2776
aVtranslational
p2777
aVmarker
p2778
aV-activity
p2779
aVinositol
p2780
aVlpr/lpr
p2781
aVlose
p2782
aVsubvert
p2783
aVselects
p2784
aVBSA
p2785
aVmarginally
p2786
aVencompassed
p2787
aVF
aVisoenzymes
p2788
aVRequired
p2789
aVenvelope
p2790
aVclue
p2791
aVSB203580
p2792
aVGlycation-dependent
p2793
aVinducer-mediated
p2794
aVradiotherapy
p2795
aVNF-AT-dependent
p2796
aVcap
p2797
aVatypical
p2798
aVfoci
p2799
aVlabeled
p2800
aVcan
p2801
aVSBE
p2802
aVprotects
p2803
aVtrans
p2804
aVstimulating
p2805
aVheart
p2806
aVShown
p2807
aVproteasome-dependent
p2808
aVERP
p2809
aVp105
p2810
aVmonoazide
p2811
aVSAF-like
p2812
aVp100
p2813
aVGGGACTTTCC
p2814
aVdistinguishable
p2815
aVserum
p2816
aVcDNA
p2817
aVERK
p2818
aVposttranscriptional
p2819
aVproductive
p2820
aVGH-N
p2821
aVmeans
p2822
aVAntioxidant-mediated
p2823
aVpositional
p2824
aVWhether
p2825
aVNRE-I
p2826
aVflank
p2827
aVpromoter-dependent
p2828
aV-Mediated
p2829
aVCell-specific
p2830
aVproduct
p2831
aVCREB/ATF
p2832
aVmutation/deletion
p2833
aVdampened
p2834
aVinvariably
p2835
aVresidues
p2836
aVCD40L
p2837
aVproduce
p2838
aVhost-derived
p2839
aVtyrosine-based
p2840
aVdrastic
p2841
aVcoagulate
p2842
aVnon-toxic
p2843
aV5.5
p2844
aVlocalize
p2845
aVIFN-induced
p2846
aVprovirus
p2847
aVtransfect
p2848
aVaccelerated
p2849
aVprogressively
p2850
aVNF-kappaBp65
p2851
aVhigher-affinity
p2852
aVINK4A
p2853
aVtypical
p2854
aVhGATA-2
p2855
aVapprox
p2856
aValbicans
p2857
aVunlabeled
p2858
aVpolyendocrinopathy
p2859
aVanti-atherogenic
p2860
aVindeed
p2861
aVH-hexahydro-1
p2862
aVmonocyte-specific
p2863
aVbrain
p2864
aVJak
p2865
aVRb
p2866
aVZXDA
p2867
aVstill
p2868
aVG-protein
p2869
aVproteases
p2870
aVcoreceptor
p2871
aVRV
p2872
aVretrovirally
p2873
aVtiters
p2874
aVforms
p2875
aVBS-II
p2876
aVRA
p2877
aV2400
p2878
aVRI
p2879
aVcorrespondence
p2880
aV.10
p2881
aVestrogenic
p2882
aVR1
p2883
aVGzmb
p2884
aVR3
p2885
aVDiminished
p2886
aVtails
p2887
aVidentically
p2888
aVnot
p2889
aVmetabolite
p2890
aVnow
p2891
aVprovision
p2892
aVdensities
p2893
aVlineage
p2894
aVsusceptibility
p2895
aVinversion
p2896
aVGzmB
p2897
aVFew
p2898
aVdrop
p2899
aVSTAT-related
p2900
aVTRAIL
p2901
aVAU-motif-directed
p2902
aVh
aVentirely
p2903
aVStructural
p2904
aV-1068
p2905
aVsteroid-thyroid
p2906
aVdomain
p2907
aVhemopoiesis
p2908
aVsignificantly
p2909
aVcoactivators
p2910
aVchallenged
p2911
aVeg
p2912
aVtranslocate
p2913
aVdirecting
p2914
aVLPS/IFN-gamma
p2915
aVcytokine
p2916
aVshown
p2917
aVaccomplish
p2918
aVEBP-1
p2919
aVlysoPC
p2920
aVincrease
p2921
aVreceiving
p2922
aVshows
p2923
aVinevitably
p2924
aVtumor-derived
p2925
aVRenal
p2926
aVdivergence
p2927
aV17beta-HSD
p2928
aVRNA-packaging
p2929
aVoligonucleotide
p2930
aVrlu
p2931
aVrearrangements
p2932
aVcycles
p2933
aVdeprivation
p2934
aVtransition
p2935
aVMMTV
p2936
aVpaxillin
p2937
aVtrans-activators
p2938
aVpromotion
p2939
aV515
p2940
aVenteropathy
p2941
aVlambda
p2942
aVEven
p2943
aVthymus
p2944
aVstimuli-specific
p2945
aVTEC
p2946
aVtonically
p2947
aVstriking
p2948
aVomitted
p2949
aVThere
p2950
aVcomprised
p2951
aVcytoplasmic/nuclear
p2952
aVDnase
p2953
aVdirectly
p2954
aVmessage
p2955
aVsize
p2956
aVsilent
p2957
aVTargeted
p2958
aVdehydroascorbate
p2959
aVAnalyses
p2960
aVResponse
p2961
aVfraction
p2962
aVmostly
p2963
aVthat
p2964
aVcostimulation
p2965
aV156.7
p2966
aV14-16
p2967
aVeliminated
p2968
aVcalcium-modulator
p2969
aVchymotryptic
p2970
aVZEB
p2971
aVrecruit
p2972
aVproto-oncogenes
p2973
aVenhancer-dependent
p2974
aVBtk
p2975
aVPhospho-Stat3
p2976
aVremained
p2977
aVcorrection
p2978
aVcis-elements
p2979
aVcrossover
p2980
aVabnormalities
p2981
aVclonogenic
p2982
aVheterozygotes
p2983
aVGenBank
p2984
aVonline
p2985
aVimpairment
p2986
aVdeterioration
p2987
aVproteolytically
p2988
aVanalyse
p2989
aVcentrifugation
p2990
aVGM3
p2991
aV]
aVBeta-actin
p2992
aVgamma-2
p2993
aVgamma-1
p2994
aVrenal
p2995
aVposttranslational
p2996
aVPlatelet-activating
p2997
aVimplications
p2998
aVCOX-2
p2999
aVanti-Fos
p3000
aV-allophycocyanin
p3001
aVprofessional
p3002
aVdispersed
p3003
aVduplication
p3004
aVtypically
p3005
aVdiffusible
p3006
aVnucleoplasmic
p3007
aVdiscovered
p3008
aVNH2Cl
p3009
aVtuberous
p3010
aVratio
p3011
aVstained
p3012
aVproportion
p3013
aVIL-4
p3014
aVHSP
p3015
aVthreefold
p3016
aVtyrphostin
p3017
aVstain
p3018
aVp40tax
p3019
aVleukocyte-specific
p3020
aVreplicative
p3021
aVfour-subunit
p3022
aVarachidonic
p3023
aVmembrane
p3024
aVesterification
p3025
aVIL-1
p3026
aVHS2
p3027
aVgp160
p3028
aVIARC
p3029
aVmucosa
p3030
aVinvariant
p3031
aVdifferentiating
p3032
aVglutathione
p3033
aVvaginalis
p3034
aVligand-binding
p3035
aVmonocyte-derived
p3036
aVDopamine
p3037
aVPBL-T
p3038
aVpituitary
p3039
aVSOCS-1
p3040
aVirradiation
p3041
aVEMA
p3042
aVconcert
p3043
aVburst
p3044
aVphysically
p3045
aVAccumulating
p3046
aVnamely
p3047
aVactively
p3048
aVRGD
p3049
aVpore-forming
p3050
aVEMS
p3051
aVTolerance
p3052
aVE47
p3053
aVNFeB
p3054
aVB/MAD
p3055
aVmimicry
p3056
aVLDL
p3057
aV3
aVMembers
p3058
aVimport
p3059
aVliver-enriched
p3060
aVtherapies
p3061
aVTarget
p3062
aVAgonist
p3063
aVArnt
p3064
aV-91
p3065
aV-90
p3066
aV-92
p3067
aV-95
p3068
aV-97
p3069
aV-96
p3070
aVp15INK4b
p3071
aVarticle
p3072
aVresides
p3073
aVAP1-dependent
p3074
aVp56lck
p3075
aVBob1
p3076
aVnearby
p3077
aVNF-AT-like
p3078
aVcharacterization
p3079
aV-345
p3080
aVhybrids
p3081
aVstimuli-induced
p3082
aVmoreover
p3083
aVGTP-binding
p3084
aVamino
p3085
aVsynergize
p3086
aVoligodeoxynucleotide
p3087
aVCTF
p3088
aVCepsilon
p3089
aVphosphorylation-defective
p3090
aVmarkedly
p3091
aVcyclins
p3092
aVhelper-induced
p3093
aVinterleukin-3
p3094
aVkinases
p3095
aV158
p3096
aVN-ethylmaleimide
p3097
aVsystems
p3098
aVCR2
p3099
aV-140
p3100
aVCR3
p3101
aValiquot
p3102
aVdiffered
p3103
aVSupershift
p3104
aVTR2RE-SV40
p3105
aVBiosystems
p3106
aVCO2
p3107
aV4-6
p3108
aV4-8
p3109
aV/NF-kappaB
p3110
aVc-erbA/TR
p3111
aVsyndromes
p3112
aVIL6
p3113
aVIL4
p3114
aVIL5
p3115
aVIL2
p3116
aVPerformed
p3117
aVSelenium-mediated
p3118
aVAbnormalities
p3119
aVIL9
p3120
aVorientation
p3121
aVtopoisomerase
p3122
aVmicroarrays
p3123
aVAIM
p3124
aVbias
p3125
aVattributed
p3126
aVspleens
p3127
aVupregulation
p3128
aVcytokine-receptor
p3129
aVdevelop
p3130
aVComplete
p3131
aVmedia
p3132
aVSterol
p3133
aVglucose-stimulated
p3134
aVdocument
p3135
aVheat-activated
p3136
aVinvestigated
p3137
aVintegrin-mediated
p3138
aVfoam
p3139
aV5-aza-2-deoxycytidine
p3140
aVvalidate
p3141
aVchemoattractants
p3142
aVbox-dependent
p3143
aVHIV-inductive
p3144
aV-CD8
p3145
aVtraps
p3146
aVconstitutional
p3147
aVanti-C/EBPdelta
p3148
aVsevere
p3149
aVchemotaxis
p3150
aVcoordinate
p3151
aVS727
p3152
aVdifferentiation-dependent
p3153
aVedema
p3154
aV-positve
p3155
aVRel/NF-kappaB-dependent
p3156
aVcell-cycle
p3157
aVExamination
p3158
aVdeacetylation
p3159
aVribosomal
p3160
aVMolecular
p3161
aVhomeostasis
p3162
aV24,50,51
p3163
aVdeath
p3164
aVangiotensin
p3165
aVInteractions
p3166
aVDSMZ
p3167
aVimprovement
p3168
aVTLRs
p3169
aVtreatment
p3170
aVversa
p3171
aVenhancerless
p3172
aVinstructions
p3173
aV571
p3174
aV75
p3175
aVcell-associated
p3176
aVread
p3177
aVspecimen
p3178
aVacetaminophen
p3179
aVearly
p3180
aVHetherington
p3181
aVNF-AT-binding
p3182
aVusing
p3183
aVNuclei
p3184
aVNF-Y
p3185
aVTLR2
p3186
aVbenefit
p3187
aVt
aVTLR4
p3188
aVdilution
p3189
aVflow-induced
p3190
aValbuminuria
p3191
aVexposed
p3192
aVpervanadate
p3193
aVnucleic
p3194
aVtransfections
p3195
aVanthracycline-induced
p3196
aVduration
p3197
aV's
p3198
aVviral
p3199
aVlysophospholipid
p3200
aVhyperadhesivity
p3201
aVEarlier
p3202
aVhepatitis
p3203
aVTFE3
p3204
aVB-cells
p3205
aVTruncation
p3206
aVassembly
p3207
aVsnRNA
p3208
aVequivalent
p3209
aVsedimentation
p3210
aVmonocyte/macrophage-specific
p3211
aVcomplementation
p3212
aVsrc
p3213
aVcentral
p3214
aVenzymatic
p3215
aVMG-132
p3216
aVdelimitation
p3217
aVanti-IgM
p3218
aVgreatly
p3219
aVhyperactivation
p3220
aVantibody
p3221
aVprotease
p3222
aVinclusion
p3223
aVhomodimer
p3224
aVposttranscriptionally
p3225
aVinvolvement
p3226
aVL243
p3227
aVheated
p3228
aVoperator
p3229
aVAzaC
p3230
aVhyperglycemia
p3231
aVFcR-dependent
p3232
aVintervention
p3233
aVTAL-1
p3234
aVarea
p3235
aVfNF-E2
p3236
aVremoving
p3237
aVstart
p3238
aVbromide
p3239
aVc-rel
p3240
aVlow
p3241
aVsystem-derived
p3242
aVtransient-transfection
p3243
aVSHP2
p3244
aVirreversibly
p3245
aVAd2
p3246
aV2D3
p3247
aVJ
aVdelayed
p3248
aVkappaB-mutated
p3249
aVindicators
p3250
aVcirculation
p3251
aVquantitatively
p3252
aVantiseras
p3253
aVskews
p3254
aVtype-I
p3255
aV15-fold
p3256
aVfusions
p3257
aV-PerCP
p3258
aVdescribe
p3259
aVsignal-mediating
p3260
aVELAM
p3261
aVgradients
p3262
aVAR/TR2/AR
p3263
aVlyso-phospholipids
p3264
aVinactivation
p3265
aVSurvival
p3266
aVstorage
p3267
aVLac
p3268
aVproductively
p3269
aVHIV-LTR-kappaB
p3270
aVterminating
p3271
aVintronic
p3272
aVpoor
p3273
aVgermline
p3274
aVBRLF1
p3275
aVnoncoding
p3276
aV-Ig
p3277
aVpeak
p3278
aVelastase
p3279
aVconferred
p3280
aVNotch
p3281
aVpool
p3282
aVcondensation
p3283
aVinsertions
p3284
aVmAbs
p3285
aV-103
p3286
aVJak2
p3287
aVrestored
p3288
aVtype-1
p3289
aVsignalling
p3290
aVtype-2
p3291
aVorientation-specific
p3292
aV4-fold
p3293
aV-mediated
p3294
aVRel-B
p3295
aVpretreatment
p3296
aVbenzene-induced
p3297
aVRetroviruses
p3298
aVchain-breaking
p3299
aVthymus-dependent
p3300
aVnodes
p3301
aV1pk
p3302
aVtransducers
p3303
aVvery
p3304
aVapoptosis
p3305
aVExosurf
p3306
aVimmunotoxicity
p3307
aVmarrow-derived
p3308
aVHIV-induced
p3309
aVTranscriptional
p3310
aVdeficient
p3311
aVissue
p3312
aV-7
p3313
aV-6
p3314
aV-1
p3315
aV-3
p3316
aV-2
p3317
aVinversions
p3318
aV-9
p3319
aV-8
p3320
aV12-O-tetradecanoylphorbol-13-acetate
p3321
aV-Max
p3322
aVNF-CLE0
p3323
aVTSC
p3324
aVChicken
p3325
aVenhancement
p3326
aVattributable
p3327
aVTSS
p3328
aVcanonical
p3329
aVabundant
p3330
aVcues
p3331
aVK562
p3332
aVrecruits
p3333
aVmodify
p3334
aVTATA-less
p3335
aVselective
p3336
aVcompartmentalization
p3337
aVexcess
p3338
aVstrong
p3339
aVtranscription-enhancing
p3340
aVcell-surface
p3341
aVahead
p3342
aVskewing
p3343
aVoutgrowth
p3344
aVRaf-1
p3345
aVreason
p3346
aVamount
p3347
aVB-1a
p3348
aVB-1b
p3349
aVsealing
p3350
aVmonocytes/macrophages
p3351
aVgliotoxin
p3352
aVhemin
p3353
aVgranulocyte
p3354
aVfamily
p3355
aVmediator
p3356
aVrequiring
p3357
aVIonomycin
p3358
aVS6
p3359
aVBcl-x
p3360
aVconventional
p3361
aVFCS
p3362
aVtakes
p3363
aV0
aVCD28RC
p3364
aVcontains
p3365
aVcells-family
p3366
aValmost
p3367
aVmonocytic
p3368
aVtaken
p3369
aVinjury
p3370
aVFCM
p3371
aVcyclin/cdks
p3372
aVARE-containing
p3373
aVconformational
p3374
aVgp39
p3375
aVSp
p3376
aVp75TNF-R
p3377
aVE2F-1
p3378
aVsurprisingly
p3379
aVlipoprotein
p3380
aVmicrobicidal
p3381
aVLEF1
p3382
aVBcl-2
p3383
aVproducing
p3384
aV19-bp
p3385
aVProtease
p3386
aVSS
p3387
aVSP
p3388
aVproapoptotic
p3389
aVhydroxytoluene
p3390
aVnine
p3391
aVstructure-based
p3392
aVdepleting
p3393
aVspontaneous
p3394
aVhistory
p3395
aVions
p3396
aVGRE-specific
p3397
aV/NFATp
p3398
aVIBD
p3399
aVCAT
p3400
aVCAK
p3401
aVinfectivity
p3402
aV-like
p3403
aVlacks
p3404
aVspecies
p3405
aVfirmly
p3406
aV1053
p3407
aVTGF-beta-inducible
p3408
aVpermissive
p3409
aVcross-reacts
p3410
aVligand-independent
p3411
aVsuperactivation
p3412
aVELAM-1
p3413
aVPartitioning
p3414
aVSpi-B
p3415
aVprognostic
p3416
aVderived
p3417
aVlong
p3418
aVinvasion
p3419
aVglycation-induced
p3420
aVa
aVTransactivation
p3421
aVpreferential
p3422
aVenzymes
p3423
aVanytime
p3424
aV3-fold
p3425
aVnegligible
p3426
aVUDG
p3427
aValpha-dihydrotestosterone
p3428
aV2-reverse
p3429
aVIL-8
p3430
aVIL-9
p3431
aVreservoir
p3432
aVhierarchy
p3433
aVIL-5
p3434
aVIL-6
p3435
aVIL-7
p3436
aVsoon
p3437
aVIL-2
p3438
aVIL-3
p3439
aVAdhesion
p3440
aVthermal
p3441
aVcommitted
p3442
aVMIP
p3443
aVkinetic
p3444
aVIL-17a
p3445
aVlipopolysaccharide/interferon-gamma
p3446
aVVpr
p3447
aVselenium
p3448
aV-146
p3449
aVabsence
p3450
aV-145
p3451
aVdisclosed
p3452
aVcyclin-dependent
p3453
aV-141
p3454
aVWP-34
p3455
aVPancreatic
p3456
aV11alpha,13-dihydrohelenalin
p3457
aVtranscribing
p3458
aV49,70
p3459
aVhirudin
p3460
aVAM580
p3461
aVnon-T-cells
p3462
aVfully
p3463
aVcapability
p3464
aVRecruitment
p3465
aVImmunodepletion
p3466
aVmouse
p3467
aVtar-independent
p3468
aVreferred
p3469
aVheavy
p3470
aVtranscribe
p3471
aVSpi-1
p3472
aVundetectable
p3473
aVDistinctive
p3474
aVAML1/PEBP2
p3475
aVpositioned
p3476
aVKinase
p3477
aVevent
p3478
aVinactivates
p3479
aVFcepsilonRIIb
p3480
aVsince
p3481
aVviability
p3482
aVHelenalin
p3483
aVRel-A
p3484
aVsustain
p3485
aV7
aV5C
p3486
aVGSK3
p3487
aVCanventol
p3488
aVNone
p3489
aVcaspase
p3490
aVanti-apoptotic
p3491
aVbase
p3492
aVput
p3493
aVnon-specific
p3494
aVearliest
p3495
aVhomologous
p3496
aVreceptor-alpha
p3497
aVpersists
p3498
aVAccession
p3499
aVHypermethylation
p3500
aVThymocyte-thymic
p3501
aVETS-domain
p3502
aVBFU-E
p3503
aVundergo
p3504
aVfivefold
p3505
aVencoding
p3506
aVAP-1
p3507
aVAP-2
p3508
aVreflected
p3509
aVTRAMP
p3510
aVincubated
p3511
aVpyrrolidinedithiocarbamate
p3512
aVperturbation
p3513
aVcationic
p3514
aVHUAECs
p3515
aVanti-TNF-alpha
p3516
aVbelongs
p3517
aVRA-resistant
p3518
aVdiabetes
p3519
aVM.
p3520
aVproteolysis-resistant
p3521
aVB-DNA
p3522
aVantitumor
p3523
aVmeasurable
p3524
aVbasal
p3525
aVPKC-independent
p3526
aVsignaling
p3527
aVauthors
p3528
aVtranslation
p3529
aV35-38
p3530
aVATGCAAAG-3
p3531
aVautoregulatory
p3532
aVjagged1
p3533
aVcysteine
p3534
aVGPIIb
p3535
aVlysate
p3536
aV-independent
p3537
aVPositive-pressure
p3538
aVDistinct
p3539
aVPhoPc
p3540
aVTh2
p3541
aVTh1
p3542
aVTh0
p3543
aVRegions
p3544
aVincrementally
p3545
aVRag1
p3546
aVconcentration
p3547
aVorgans
p3548
aVPercentage
p3549
aVChallenges
p3550
aVconstructions
p3551
aVmonophosphate
p3552
aVpotentiated
p3553
aVsubtype
p3554
aVdefensin
p3555
aVD1/CDR2-loop
p3556
aVETS1
p3557
aVon-going
p3558
aVstoichiometry
p3559
aVrhu
p3560
aVstress-induced
p3561
aVAJ507799
p3562
aVcomparisons
p3563
aValpha
p3564
aVThe
p3565
aVapproved
p3566
aVaberrations
p3567
aVNF-ATc/p
p3568
aVmuscle
p3569
aVclear
p3570
aVphytohemagglutinin
p3571
aVnonspecific
p3572
aV/AP
p3573
aVCCGCCC
p3574
aVNF-KB-related
p3575
aVphenomenon
p3576
aVhalf-maximal
p3577
aVthymocytes
p3578
aVAGATAA
p3579
aVionomycin-induced
p3580
aVTCR-mediated
p3581
aVparameters
p3582
aVSimilarly
p3583
aVtoll-like
p3584
aVP14
p3585
aVLck
p3586
aVdominant
p3587
aVFITC
p3588
aVglioblastoma
p3589
aVimmunoassays
p3590
aVWhile
p3591
aV-559
p3592
aVcompeting
p3593
aVcombinations
p3594
aVduring
p3595
aVsixfold
p3596
aVSox4
p3597
aV-552
p3598
aVgels
p3599
aVIfngamma
p3600
aVtransgenic
p3601
aVCT99021
p3602
aVstored
p3603
aVERK1/2
p3604
aVx
aVoverstimulation
p3605
aVrBPI21
p3606
aVundergoes
p3607
aVnitrocellulose
p3608
aVculture
p3609
aVaims
p3610
aVmediators
p3611
aVclose
p3612
aVprecursors
p3613
aVpolymorphic
p3614
aVconstellation
p3615
aVDeletions
p3616
aVRescue
p3617
aVJUN
p3618
aVpotently
p3619
aVglutamine-rich
p3620
aVnoncleavable
p3621
aVprobably
p3622
aVconditions
p3623
aV/RelB
p3624
aVmissing
p3625
aVadenoviruses
p3626
aVzipper
p3627
aVboth
p3628
aVsensitive
p3629
aVhistamine
p3630
aVexperimental
p3631
aVlymphoid-restricted
p3632
aVdeoxidizing
p3633
aVCTLA4Ig
p3634
aVDiscussion
p3635
aVCoexpression
p3636
aVscurfy
p3637
aVhomogeneously
p3638
aVTMD
p3639
aVguanine
p3640
aVatopy
p3641
aVdescribed
p3642
aVActivation-dependent
p3643
aVarrest
p3644
aVAntisera
p3645
aVenhancer-binding
p3646
aVMost
p3647
aVsyncytia
p3648
aVEcoRI
p3649
aVmaintenance
p3650
aVkinase-STAT
p3651
aVempty
p3652
aVpartly
p3653
aVPMA-stimulated
p3654
aVN
aVgamma-positive
p3655
aVdetermination
p3656
aVcompromised
p3657
aVmonokine
p3658
aVcytoskeleton-binding
p3659
aVA20
p3660
aVmegakaryocytopoiesis
p3661
aVMembranes
p3662
aVofIL-10
p3663
aVwhile
p3664
aVsubstantial
p3665
aVFigure2F
p3666
aVFigure2D
p3667
aVFigure2E
p3668
aVguide
p3669
aVloop
p3670
aVFigure2A
p3671
aVstudied
p3672
aVFurthermore
p3673
aVherein
p3674
aVposition-dependent
p3675
aV4.5-kilobase
p3676
aVfull-length
p3677
aVready
p3678
aVsimian
p3679
aVchemoattractant
p3680
aVLPS-responsive
p3681
aVRemixing
p3682
aVbaseline
p3683
aVHalf-maximal
p3684
aVT-lymphocyte
p3685
aVSwitching
p3686
aVFAK
p3687
aVhybridoma
p3688
aVmodification
p3689
aVcomposition
p3690
aVfkhrl1
p3691
aVFos-related
p3692
aVcarboxylesterase
p3693
aVused
p3694
aVStat3alpha
p3695
aVferritin
p3696
aVuses
p3697
aVleukocyte
p3698
aVfactor-alpha
p3699
aVcrux
p3700
aVevasion
p3701
aVisotype
p3702
aVunderlies
p3703
aVmyeloma
p3704
aVCoCl2-induced
p3705
aVId-3L
p3706
aVPKC-zeta
p3707
aVTAFII
p3708
aVexploits
p3709
aVanergy
p3710
aVreviewed
p3711
aVeffector
p3712
aVIg-mediated
p3713
aVCCK
p3714
aVlower-affinity
p3715
aVbloods
p3716
aVOctamer-dependent
p3717
aVNFATp
p3718
aVpotentiates
p3719
aVcostimulatory
p3720
aVPIF
p3721
aVNFATd
p3722
aVsecosterol
p3723
aVNFATc
p3724
aV/platelet-derived
p3725
aVtransformation
p3726
aVvaginosis
p3727
aVlacking
p3728
aVshowing
p3729
aVgenetically
p3730
aVlow-mobility
p3731
aVp14ARF
p3732
aVB/CD28
p3733
aVNFAT4
p3734
aVNFAT1
p3735
aVNFAT2
p3736
aVNFAT3
p3737
aVPreviously
p3738
aVstimulatory
p3739
aVbHLH-hsp90
p3740
aVimmunization
p3741
aV-306
p3742
aVtranslated
p3743
aVGlucocorticoid-mediated
p3744
aVkinase-3beta
p3745
aVLittle
p3746
aVsome
p3747
aVelement-binding
p3748
aVAMs
p3749
aVProliferation
p3750
aVAML
p3751
aVexceeding
p3752
aVconditionally
p3753
aVcalmodulin-dependent
p3754
aVMassachusetts
p3755
aVLPS-induced
p3756
aVAMP
p3757
aVminimal
p3758
aV/p300
p3759
aVheterodimerizes
p3760
aVN-formyl-methionine-leucine-phenyl-alanine
p3761
aVprocessing
p3762
aV25,26,28
p3763
aVstem
p3764
aVstep
p3765
aVendotoxin-stimulated
p3766
aVplots
p3767
aV2/3
p3768
aV2/5
p3769
aVDU528
p3770
aVprove
p3771
aV1,9-dideoxy
p3772
aVkDa
p3773
aVsimulation
p3774
aVneonates
p3775
aVTFIID
p3776
aVTFIIH
p3777
aVtherapeutic
p3778
aVCell-type-specific
p3779
aVsilence
p3780
aVpost-transcriptional
p3781
aVbeta-cell
p3782
aVwithin
p3783
aVensue
p3784
aVphosphorImager
p3785
aVTheir
p3786
aVtightly
p3787
aVPeroxisome
p3788
aVTHP-1-hGH-transfected
p3789
aVIL-12-dependent
p3790
aVinnate
p3791
aVrenewal
p3792
aVRBC
p3793
aVpurine-rich
p3794
aVTPA-dependent
p3795
aVthrombomodulin
p3796
aV.1
p3797
aV.2
p3798
aV.3
p3799
aVproperly
p3800
aVsegregation
p3801
aVSwitzerland
p3802
aVinjection
p3803
aVD-ribose
p3804
aVhybridized
p3805
aVRunx3
p3806
aVtransmits
p3807
aV/Epo-R
p3808
aVleukemogenesis
p3809
aVIgE/allergen
p3810
aVheterogeneous
p3811
aVelectrophoretic
p3812
aVsimilar
p3813
aVInterleukin
p3814
aVLFA-3
p3815
aVcomprise
p3816
aVordered
p3817
aVadults
p3818
aVIKKbeta
p3819
aVaccessibility
p3820
aVHPRT
p3821
aVmitogen-induced
p3822
aVTh
p3823
aVkidney
p3824
aVacid-induced
p3825
aVREF-1
p3826
aVIKKalpha
p3827
aVIFN-alpha
p3828
aVamounts
p3829
aVoncoprotein
p3830
aVhalf-sites
p3831
aVTS
p3832
aVA.
p3833
aVA1
p3834
aVapplication
p3835
aVA2
p3836
aVTK
p3837
aVTH
p3838
aVTF
p3839
aVTG
p3840
aVAC
p3841
aVapparent
p3842
aVnonactivated
p3843
aVT7
p3844
aVG-protein-coupled
p3845
aV8,34
p3846
aVcostimulated
p3847
aVAP
p3848
aVAR
p3849
aVAT
p3850
aVstructure
p3851
aVISRE
p3852
aV/alpha-globin
p3853
aVantecedent
p3854
aVindependently
p3855
aVAb
p3856
aVAg
p3857
aVAh
p3858
aVrequired
p3859
aVAn
p3860
aVAs
p3861
aVzidovudine
p3862
aVcorrelates
p3863
aVAt
p3864
aVredundantly
p3865
aVrequires
p3866
aVavoid
p3867
aVSLP-76
p3868
aVlactosylceramide
p3869
aVTCR-dependent
p3870
aVStrikingly
p3871
aVtriciribine
p3872
aVTrinchieri
p3873
aVLymphocytes
p3874
aVSp1
p3875
aVSp3
p3876
aVkappa3
p3877
aVexcluded
p3878
aVNot
p3879
aVNov
p3880
aVNor
p3881
aVC-dependent
p3882
aVmuE3
p3883
aVwave
p3884
aV-secreting
p3885
aVcellular
p3886
aVAcquisition
p3887
aVhelix-loop-helix
p3888
aVpositions
p3889
aVmisfolding
p3890
aVLITAF
p3891
aVcyclosporine
p3892
aVReconstitution
p3893
aVSpl
p3894
aVglycosylphosphatidylinositol-linked
p3895
aVcompensated
p3896
aVATF-1
p3897
aVglycoproteins
p3898
aVbeta-actin
p3899
aVNFAT-dependent
p3900
aVD.-E
p3901
aVoverexuberant
p3902
aVBriefly
p3903
aVplays
p3904
aVAGGC
p3905
aVcalcineurin-regulated
p3906
aVexacerbate
p3907
aVcell
p3908
aVheterodimer
p3909
aVpituitary-specific
p3910
aVcyclooxygenase-2
p3911
aVphosphatidylinositol-4-phosphate
p3912
aVAhR
p3913
aVradicals
p3914
aVGreen
p3915
aVligand-activated
p3916
aVheterodimerizing
p3917
aVC-zeta
p3918
aVLikewise
p3919
aValpha-lipoate
p3920
aVpreferentially
p3921
aVproducts
p3922
aVconstitutive
p3923
aVgene
p3924
aVexamining
p3925
aVstabilization
p3926
aVBelkaid
p3927
aVmanage
p3928
aV4.75
p3929
aVframe
p3930
aVcepharanthine
p3931
aVanti-CD3-induced
p3932
aVglucocorticoid-mediated
p3933
aVremains
p3934
aVCIITA
p3935
aVPG490
p3936
aVfactor-AT
p3937
aVvehicle
p3938
aVhiding
p3939
aVsplenocytes
p3940
aVreflects
p3941
aVfiltrates
p3942
aV1/3
p3943
aVkaryopherin
p3944
aVstarted
p3945
aVbecomes
p3946
aVISG15-LTR-IFN
p3947
aV1/8
p3948
aVaNF-E2
p3949
aVWindhagen
p3950
aVp16INK4a
p3951
aVhomeobox
p3952
aVsynthesis-dependent
p3953
aVcryptococcosis
p3954
aVcoligation
p3955
aVinhibitor
p3956
aV/nur77
p3957
aVcontrol
p3958
aVlinks
p3959
aVescaped
p3960
aVdefective
p3961
aVdigested
p3962
aVgenomes
p3963
aVlocated
p3964
aVperoxisome
p3965
aVself-perpetuating
p3966
aValpha-chain
p3967
aVOligonucleotides
p3968
aVSpecific
p3969
aVFigures
p3970
aVloss-of-function
p3971
aVascorbate
p3972
aV12-16
p3973
aVsubfamilies
p3974
aVFigure4F
p3975
aVX-ray-treated
p3976
aVsoftware
p3977
aVbipartite
p3978
aV0.58-fold
p3979
aVGonzalez
p3980
aVleast
p3981
aVfacilitated
p3982
aVdifferentiation-inducing
p3983
aVintermediates
p3984
aVincluding
p3985
aVgender-specific
p3986
aVconverting
p3987
aVfacilitates
p3988
aVRAG
p3989
aVRecently
p3990
aVexclusion
p3991
aVtemporal
p3992
aVRAR
p3993
aVK-562
p3994
aVFGF
p3995
aVimbalance
p3996
aVNFAT-1
p3997
aVc-Raf-1
p3998
aVfunctional
p3999
aVexhibiting
p4000
aVp16
p4001
aVBasophils
p4002
aVdocumented
p4003
aVneoformans
p4004
aVmagnitude
p4005
aVmode
p4006
aVpools
p4007
aVcytogenetic
p4008
aVglobi
p4009
aValteration
p4010
aVconstitute
p4011
aValpha-subunit
p4012
aVmeasure
p4013
aVIFN
p4014
aVcorticosteroids
p4015
aVPan-1
p4016
aVspecial
p4017
aVCEM
p4018
aVConstructs
p4019
aVJ.
p4020
aV/Stat6
p4021
aVPKB
p4022
aVPKC
p4023
aVPKA
p4024
aVsingle-copy
p4025
aVMycoplasma
p4026
aVcause
p4027
aVBHRF1
p4028
aVdose-dependently
p4029
aVreacts
p4030
aVprecipitable
p4031
aVcompletely
p4032
aVOct1
p4033
aVerythroleukemias
p4034
aVbisulfite-treated
p4035
aVdetermining
p4036
aVHistamine
p4037
aVask
p4038
aVtimes
p4039
aVcounterpart
p4040
aVLAMPf
p4041
aVGGAACCTCCCCC-3
p4042
aVpowerful
p4043
aVimproving
p4044
aVDeletion
p4045
aVmanagement
p4046
aVrevealed
p4047
aVdurable
p4048
aVoccupancy
p4049
aV-180
p4050
aVperfectly
p4051
aV-186
p4052
aVfinal
p4053
aVpathogen
p4054
aVprone
p4055
aV2-3
p4056
aVIL-2Ralpha
p4057
aVgoiter
p4058
aVrsk
p4059
aVcrucially
p4060
aVchemicals
p4061
aVR
aVNF-kappaB
p4062
aVmanifestation
p4063
aVsynergistic
p4064
aVmorbidity
p4065
aVPEBP2/CBF
p4066
aVcorrelate
p4067
aVdistinguishes
p4068
aVsubmitted
p4069
aV59,60
p4070
aV/p50
p4071
aVcell-restricted
p4072
aVproviding
p4073
aVdistinguished
p4074
aVkinase-3
p4075
aVexhibit
p4076
aVgene-proximal
p4077
aVunchanged
p4078
aVfibrogenesis
p4079
aVpFA-CMV
p4080
aVOther
p4081
aVvariable
p4082
aVDelayed
p4083
aVneed
p4084
aVEBNA2
p4085
aVTAR-independent
p4086
aVNeither
p4087
aVDevelopment
p4088
aV/p65
p4089
aVable
p4090
aVMEK2
p4091
aVMEK1
p4092
aVpivotal
p4093
aV2.5
p4094
aVMEK5
p4095
aV31-8425
p4096
aVNF-ATc
p4097
aV0/1
p4098
aVPRRI
p4099
aVsite-specific
p4100
aVconnected
p4101
aVbut
p4102
aVcounterbalance
p4103
aVNF-ATp
p4104
aVintrinsic
p4105
aVevolutionarily
p4106
aVconsequences
p4107
aVspleen
p4108
aV-regulated
p4109
aVscrambled
p4110
aVGrowth
p4111
aVhematopoietic
p4112
aVisotypes
p4113
aVKBF1
p4114
aVB-inducing
p4115
aVOct-DNA
p4116
aVnonidentical
p4117
aVperoxidation
p4118
aVpp90rsk
p4119
aVNFAT-driven
p4120
aVhigh-level
p4121
aVNGFI-B
p4122
aVNGFI-A
p4123
aVpartners
p4124
aVbased
p4125
aVApoptosis
p4126
aViHIV-1
p4127
aVreceptors
p4128
aVreactive
p4129
aVbases
p4130
aVequivalents
p4131
aVemployed
p4132
aVachieve
p4133
aVadherent
p4134
aVG2/M-phase
p4135
aVoverall
p4136
aVnonpituitary
p4137
aVjoint
p4138
aVOn
p4139
aVvascular-specific
p4140
aVyears
p4141
aVCD8-Nef
p4142
aVeosinophil-specific
p4143
aVJun-D
p4144
aVprocesses
p4145
aVCD3-T-cell
p4146
aVJun-B
p4147
aVcell-permeable
p4148
aVcontain
p4149
aVProtein
p4150
aVembryonic
p4151
aVCpG-rich
p4152
aVOFT-2
p4153
aVOFT-1
p4154
aVpromoter-specific
p4155
aVhumans
p4156
aVusefulness
p4157
aVEpoR
p4158
aVLipopolysaccharide-induced
p4159
aVharvested
p4160
aVTriplex
p4161
aVstate
p4162
aVB-related
p4163
aVcorrectly
p4164
aVneither
p4165
aVC/EBPbeta
p4166
aVo-phenanthroline
p4167
aVcomparable
p4168
aV/MAD
p4169
aVspares
p4170
aVadhesive
p4171
aVimportance
p4172
aVinterfere
p4173
aVefficiency
p4174
aVPGE2
p4175
aVheavy-chain
p4176
aV201-bp
p4177
aVproblem
p4178
aVinterferon-regulated
p4179
aVinterpretations
p4180
aVlimits
p4181
aVstrains
p4182
aVmanifestations
p4183
aVCepharanthine
p4184
aVnontoxic
p4185
aVRAR-alpha
p4186
aV-abl
p4187
aVLow
p4188
aVmaximize
p4189
aVfactor/cAMP
p4190
aVbeta-catenin
p4191
aVpost-translationally
p4192
aVX2-boxes
p4193
aVbox-binding
p4194
aVaddition
p4195
aVCD80
p4196
aVIFN-stimulated
p4197
aVCD86
p4198
aVslowly
p4199
aVeightfold
p4200
aVhydrolase
p4201
aV-510
p4202
aVcorresponding
p4203
aVSizes
p4204
aVoxidants
p4205
aVreleasing
p4206
aVarginine
p4207
aVBLR1
p4208
aVSubsequently
p4209
aVConsequently
p4210
aVnovel
p4211
aVpromyelocytes
p4212
aVtrans-activates
p4213
aVsynergistically
p4214
aVNF-IL6
p4215
aVIL-12-stimulated
p4216
aVgene-1
p4217
aVEngagement
p4218
aVNF-AT-directed
p4219
aVsurface
p4220
aVexamined
p4221
aVPMNs
p4222
aVPPB
p4223
aVrecipients
p4224
aVTpl-2
p4225
aVPAF-receptor
p4226
aVantiviral
p4227
aVparts
p4228
aVdominant-active
p4229
aVfide
p4230
aVpromoters
p4231
aVanti-viral
p4232
aVeffect
p4233
aVB-cell-restricted
p4234
aVunliganded
p4235
aVNSAIDs
p4236
aVfrequently
p4237
aVB-containing
p4238
aVdestruction
p4239
aVB-cell-mediated
p4240
aVpolymorphism
p4241
aVsupernatant
p4242
aVVitD3
p4243
aVi
aVIntriguingly
p4244
aVatherogenesis
p4245
aVwell
p4246
aV64.1
p4247
aVExperiments
p4248
aVspecific-transcription
p4249
aVAb-associated
p4250
aV/5
p4251
aVglial
p4252
aV/2
p4253
aVBD
p4254
aVrestore
p4255
aVactivation-driven
p4256
aVBB
p4257
aVFigure6B
p4258
aVFigure6C
p4259
aVaccurate
p4260
aVFigure6A
p4261
aVFigure6D
p4262
aVdose
p4263
aVsources
p4264
aVBV
p4265
aVBW
p4266
aVA6H
p4267
aVGSH
p4268
aVpurified
p4269
aVcoordination
p4270
aVlow-level
p4271
aVrecapitulated
p4272
aVC/EBP-binding
p4273
aVBb
p4274
aVmicrotubule
p4275
aVMKK4
p4276
aV26S
p4277
aVc-MYC
p4278
aVIL-1-induced
p4279
aVPU-1
p4280
aVextends
p4281
aVPhorbol
p4282
aVpp52
p4283
aVanthracycline-treated
p4284
aVproteasomes
p4285
aVExposure
p4286
aVdefinitive
p4287
aVfate
p4288
aVdisappearance
p4289
aVChromosomal
p4290
aVburden
p4291
aVsequencing
p4292
aVimmediately
p4293
aVbcl6
p4294
aVdomains
p4295
aVprominent
p4296
aVloss
p4297
aVnecessary
p4298
aVlost
p4299
aVsizes
p4300
aValternatively
p4301
aVB.
p4302
aVB4
p4303
aVB7
p4304
aVB1
p4305
aVB2
p4306
aVB3
p4307
aVbisulfite-sequencing
p4308
aVbenzene
p4309
aVglycoprotein
p4310
aVcognate
p4311
aVantioxidant-dependent
p4312
aVTranscription-independent
p4313
aVproteins
p4314
aV30-fold
p4315
aVlibrary
p4316
aVU2
p4317
aVhydrocortisone
p4318
aVAzeptin-treated
p4319
aVhomo
p4320
aVTK-3
p4321
aVfactor-kappaB/Rel
p4322
aVROI
p4323
aVcompetitor
p4324
aVbroad
p4325
aVcytolytic
p4326
aVHowever
p4327
aVoverlap
p4328
aV3-deazaadenosine
p4329
aVParadoxical
p4330
aVinflammation
p4331
aVNF-kB
p4332
aVROS
p4333
aVdemonstrated
p4334
aV828
p4335
aVhinder
p4336
aVreaching
p4337
aVexpansion
p4338
aVPuB2
p4339
aVp38
p4340
aVtenfold
p4341
aVneutrophil
p4342
aVpulps
p4343
aVp35
p4344
aVembryos
p4345
aVUV
p4346
aVUP
p4347
aVrecognized
p4348
aVTat1-72
p4349
aVcompatible
p4350
aVkappaB-binding
p4351
aVmyeloid
p4352
aVcontext-specific
p4353
aVrecognizes
p4354
aVpromoter-reporter
p4355
aVequally
p4356
aVpreviously
p4357
aVlymphocyte-specific
p4358
aV-catalyzed
p4359
aVAbsence
p4360
aVh.
p4361
aVInflammation
p4362
aVutility
p4363
aVadditional
p4364
aVsynthesized
p4365
aVdown-regulated
p4366
aVLmo2
p4367
aVhemopoietic
p4368
aVOAP40
p4369
aVnoticed
p4370
aVPMA
p4371
aVJeannin
p4372
aVC5a-stimulated
p4373
aVPMN
p4374
aVrecruited
p4375
aVdown-regulates
p4376
aVhr
p4377
aVrotamase
p4378
aVDNasel
p4379
aVhi
p4380
aVgain
p4381
aVhighest
p4382
aVtruncation
p4383
aVp65-50
p4384
aVcells
p4385
aVcoengagement
p4386
aVpre-Talpha
p4387
aVphagocytic
p4388
aVexerts
p4389
aVlimit
p4390
aVTransformation
p4391
aV28,29
p4392
aVdisplay
p4393
aVCompounds
p4394
aVtissues
p4395
aVcrosslinking
p4396
aVexogenous
p4397
aVtriflusal-treated
p4398
aVlac-Z
p4399
aVproteinase
p4400
aVdithiocarbamate
p4401
aVFunction
p4402
aVfunctions
p4403
aVRCCs
p4404
aVlymphokine-activated
p4405
aVGenes
p4406
aVBesides
p4407
aVbeta-glucan
p4408
aV/beta
p4409
aVLike
p4410
aVstay
p4411
aVcrosslink
p4412
aVpathways
p4413
aVadditionally
p4414
aV-overexpressing
p4415
aVexocytosis
p4416
aVmacrophage
p4417
aVimmunoblotting
p4418
aVE-CM
p4419
aVpersistent
p4420
aVportion
p4421
aVdiagnosis
p4422
aVTax-response
p4423
aVindirectly
p4424
aVbcr
p4425
aVliver
p4426
aVAP1-binding
p4427
aVsaturating
p4428
aVdimaprit
p4429
aVPerforin
p4430
aVIg/EBP
p4431
aVmitogenesis
p4432
aVhalf-lives
p4433
aVobstruction
p4434
aVcoactivator
p4435
aVsegments
p4436
aVhyaluronan
p4437
aVResidual
p4438
aVCoincidentally
p4439
aVHost
p4440
aVmyeloid-specific
p4441
aVOCT
p4442
aVrescue
p4443
aVdownstream
p4444
aVactivation
p4445
aVgovern
p4446
aVaffect
p4447
aVBEAD-1
p4448
aVjuxtaposing
p4449
aVimmunized
p4450
aVB29
p4451
aVMspI
p4452
aVSensitivity
p4453
aVsolution
p4454
aVIFN-gamma
p4455
aVvector
p4456
aVcholesterol
p4457
aVenhance
p4458
aVpCMV-p300
p4459
aVlysosomal
p4460
aVsenescence
p4461
aVNegative
p4462
aVlikely
p4463
aVeven
p4464
aVTFIIDs
p4465
aVblastogenesis
p4466
aVpurine-box
p4467
aVIgG
p4468
aVIgE
p4469
aVIgD
p4470
aVIgA
p4471
aVnew
p4472
aVIgM
p4473
aValpha-Dihydroxicholecalciferol
p4474
aVharbors
p4475
aVparticulate
p4476
aVOct-2B
p4477
aVOct-2A
p4478
aVtransduction/transcription
p4479
aVnever
p4480
aV-Runx3
p4481
aVGreene
p4482
aV108
p4483
aVpossibility
p4484
aValpha-globin
p4485
aVactive
p4486
aV100
p4487
aV106
p4488
aV107
p4489
aV105
p4490
aVproviruses
p4491
aVG1
p4492
aVMn2
p4493
aVcyto-differentiating
p4494
aVMutations
p4495
aVPackaging
p4496
aVtransfected
p4497
aVpermit
p4498
aV-binding
p4499
aVsecond-site
p4500
aVmobility
p4501
aVantigen-bearing
p4502
aVbenzene-contaminated
p4503
aVAlso
p4504
aVInterferon-gamma
p4505
aVIFN-alpha-stimulated
p4506
aVHNF-1alpha
p4507
aVinductive
p4508
aVanti-CD15
p4509
aVsurvive
p4510
aVanti-CD19
p4511
aVtype
p4512
aVTemporal
p4513
aVcomposite
p4514
aVexpose
p4515
aVdisruption
p4516
aVtransiently
p4517
aVadult
p4518
aVV
aVradical
p4519
aVcoordinately
p4520
aVhIL-5
p4521
aVnonatopic
p4522
aVflora
p4523
aV53-kD
p4524
aVsuggestive
p4525
aV969-bp
p4526
aVTCR/CD3
p4527
aVfibrinogen-induced
p4528
aVcopurified
p4529
aVmelanoma
p4530
aVproteasomal
p4531
aV+655
p4532
aVNF-kappa
p4533
aV-286
p4534
aVWhereas
p4535
aVF2-reverse
p4536
aVdosing
p4537
aVp38delta
p4538
aVBLPs
p4539
aVrisk
p4540
aVaging
p4541
aVelicited
p4542
aVpro-apoptotic
p4543
aVhToll
p4544
aVluminometer
p4545
aVDimethyldithiocarbamate
p4546
aVPILOT
p4547
aVundergoing
p4548
aVtransdominant
p4549
aVabdomen
p4550
aVCastro
p4551
aVTGF-beta
p4552
aVN-acetyl-L-leucinyl-L-leucinyl-L-norleucinal
p4553
aVElastatinal
p4554
aVTINUR
p4555
aVcell-specific
p4556
aV-nonproducing
p4557
aVNFkappaB
p4558
aVthird
p4559
aVmutagenesis
p4560
aVmaintain
p4561
aVLTR-directed
p4562
aVevery
p4563
aVAlu
p4564
aVscintillation
p4565
aVcofactors
p4566
aVMoreau-Gachelin
p4567
aVrestriction-PCR-assay
p4568
aVCaM-AI
p4569
aVresponsive
p4570
aVUnderstanding
p4571
aVbefore
p4572
aVPRE
p4573
aVPRD
p4574
aVadhesivity
p4575
aVkappaB
p4576
aVPRL
p4577
aVcell-dependent
p4578
aVdifferently
p4579
aVdistal
p4580
aVweeks
p4581
aVanti-Eomes
p4582
aVmaximal
p4583
aVwidely
p4584
aVcombination
p4585
aVACLA
p4586
aVHLA-DQ
p4587
aVHLA-DR
p4588
aVatherosclerosis
p4589
aVPhosphorylation
p4590
aVester
p4591
aVtherapy
p4592
aVoxidant
p4593
aVJun/Fos
p4594
aVS-nitrosylation
p4595
aVCTLs
p4596
aVIndeed
p4597
aVarrested
p4598
aVrIL-2
p4599
aVventilation
p4600
aV43,44
p4601
aVtranscription-dependent
p4602
aVside
p4603
aVcJun
p4604
aVmean
p4605
aVinterruption
p4606
aVAccreditation
p4607
aVRNAs
p4608
aV-Fas
p4609
aVliterature
p4610
aV-retinoid
p4611
aVFactor
p4612
aVaurothioglucose
p4613
aVGPIIIa
p4614
aVextract
p4615
aVkappaB-like
p4616
aVSurfactant
p4617
aVNLS
p4618
aV/SS-B
p4619
aVgradient
p4620
aVrestricted
p4621
aVcrucial
p4622
aVcontent
p4623
aVadhesion
p4624
aVreader
p4625
aVHMG
p4626
aVlinear
p4627
aVSP-A
p4628
aVchromosomal
p4629
aVSP1element
p4630
aVISGF3
p4631
aVmessages
p4632
aVcolostrum
p4633
aVmu/kappa
p4634
aVionomycin
p4635
aVfeatures
p4636
aVDR3-type
p4637
aVcytoskeletal
p4638
aVMonochloramine
p4639
aVECs
p4640
aVplasmalemmal
p4641
aVneutralization
p4642
aVECL
p4643
aVrecruiting
p4644
aVNotch1
p4645
aVECS
p4646
aVsuppressive
p4647
aVexposures
p4648
aVB-lymphocytes
p4649
aVandrogen-binding
p4650
aVlower
p4651
aVabnormality
p4652
aVsomewhat
p4653
aVp54
p4654
aVp55
p4655
aVp56
p4656
aVp50
p4657
aVp52
p4658
aVp53
p4659
aVbegins
p4660
aVenabled
p4661
aVpreparation
p4662
aVbiochemical
p4663
aVlipopolysaccharide-mediated
p4664
aVpost-PMA
p4665
aVmodulating
p4666
aVmink
p4667
aVmembranes
p4668
aVbare
p4669
aVelevating
p4670
aVemphasizing
p4671
aVseen
p4672
aVseem
p4673
aVCYS
p4674
aVHNP-1
p4675
aVPutative
p4676
aVPOU
p4677
aVBsp143II
p4678
aVreactivity
p4679
aVmachinery
p4680
aVtrapoxin
p4681
aVDeregulates
p4682
aV-gene
p4683
aVM-TAT
p4684
aVPO2
p4685
aVimmunological
p4686
aVobservation
p4687
aV/STAT5B
p4688
aVkilodaltons
p4689
aVm
aVcompetitors
p4690
aVpoints
p4691
aVprinciple
p4692
aVsphingomyelinase
p4693
aVtal-1
p4694
aVOAF
p4695
aVprobe
p4696
aVManLAM-mediated
p4697
aVchemically-exposed
p4698
aVThiol
p4699
aVImmunohistochemistry
p4700
aVlipids
p4701
aVparalleling
p4702
aVexplain
p4703
aVsugar
p4704
aVhttp://www.ncbi.nlm.nih.gov/Genbank/
p4705
aVintegrate
p4706
aVImmunosuppressant
p4707
aVhigh-dose
p4708
aVstop
p4709
aV12
p4710
aVDQB
p4711
aVmetallothionein
p4712
aVnon-methylated
p4713
aVInterspecies
p4714
aVbax
p4715
aVbad
p4716
aVintervals
p4717
aVarchitecture
p4718
aVimmunosuppression-associated
p4719
aVFLCs
p4720
aVbak
p4721
aVGrpL
p4722
aVprotein-beta
p4723
aVpGL4-luc2
p4724
aVR-PK
p4725
aValterations
p4726
aVAMP-responsive
p4727
aVTissue-specific
p4728
aVLPS-Induced
p4729
aVprototypical
p4730
aVsubject
p4731
aVdeterminants
p4732
aVinappropriate
p4733
aVEGR2
p4734
aVEGR1
p4735
aVGreenwald
p4736
aVartificial
p4737
aVproband
p4738
aVkinase-deficient
p4739
aVpets
p4740
aVAP-1-DNA
p4741
aVtolerance
p4742
aVC
aVtriplet
p4743
aVCentral
p4744
aVInterferons
p4745
aVlymphocyte
p4746
aVrestricting
p4747
aVvitamin
p4748
aVtriplex
p4749
aVandrogen
p4750
aVHES-1
p4751
aVIL-1-mediated
p4752
aVsuggested
p4753
aVagonist
p4754
aVInclusion
p4755
aVresistant
p4756
aVderegulation
p4757
aVAbnormal
p4758
aVupregulate
p4759
aVcontribution
p4760
aVagonism
p4761
aVpresumably
p4762
aVappeared
p4763
aVloaded
p4764
aVElectrophoretic
p4765
aVtargeting
p4766
aVC.
p4767
aVbasis
p4768
aVlymphomagenesis
p4769
aVACLA-treated
p4770
aVthree
p4771
aVEarly
p4772
aVtrigger
p4773
aVreplicate
p4774
aVinterest
p4775
aVbasic
p4776
aVC3
p4777
aVC2
p4778
aVC1
p4779
aVC4
p4780
aVstresses
p4781
aVCN
p4782
aVefficacy
p4783
aVtrans-factors
p4784
aVsuppress
p4785
aVProlonged
p4786
aVoTAFII110
p4787
aV169
p4788
aVIndomethacin
p4789
aVbcl-x
p4790
aVexception
p4791
aVCREB-responsive
p4792
aVacetylation
p4793
aVCa
p4794
aVoriginate
p4795
aVspontaneously
p4796
aVbalance
p4797
aVdemethylation
p4798
aVCt
p4799
aValloantigens
p4800
aVseven
p4801
aVp39c-jun
p4802
aVconcomitant
p4803
aVis
p4804
aVit
p4805
aVii
p4806
aVinterleukin-beta
p4807
aVin
p4808
aVcurcumin
p4809
aVtype-specific
p4810
aVif
p4811
aVTCR/CD3-signaling
p4812
aVanti-CD30
p4813
aVoccupied
p4814
aVmake
p4815
aVV3
p4816
aVpotentially
p4817
aVcolonies
p4818
aVcapacities
p4819
aVSer-32
p4820
aVevolve
p4821
aVVD
p4822
aVDo
p4823
aVTbx-21
p4824
aVkit
p4825
aVpharmacological
p4826
aVi.
p4827
aVPD184352
p4828
aVweakly
p4829
aVleukocyte-type
p4830
aVprograms
p4831
aVstimuli
p4832
aV109203X
p4833
aVCdk
p4834
aVinterconversion
p4835
aVIL-1beta
p4836
aV33,34
p4837
aVprotocol
p4838
aVjust
p4839
aV225/EGR1
p4840
aVimmunohistochemically
p4841
aVEctopic
p4842
aV-260
p4843
aVOCT-1
p4844
aVc-Mpl
p4845
aVidentify
p4846
aVhuman
p4847
aVaugments
p4848
aVyet
p4849
aVcalmodulin
p4850
aVcatalytic
p4851
aVcandidate
p4852
aVmTOR
p4853
aVbiotinylated
p4854
aVinterleukin-2-receptor
p4855
aVeTh2
p4856
aVeTh1
p4857
aVdrug-induced
p4858
aVhypersensitive
p4859
aVinterior
p4860
aVbackground
p4861
aVantigen-dependent
p4862
aVocclusion
p4863
aVactivation-induced
p4864
aVAre
p4865
aVinsertions/deletions
p4866
aVsignal
p4867
aVBain
p4868
aVprotein-1
p4869
aVnonhematopoietic
p4870
aVMBPs
p4871
aVelderly
p4872
aVFcgamma
p4873
aVbeta-cells
p4874
aVshort-term
p4875
aVPTK
p4876
aV-301
p4877
aVPTF
p4878
aVreoxygenation
p4879
aVinterferon-responsive
p4880
aVpurine-box/nuclear
p4881
aVgenotypes
p4882
aVdownregulation
p4883
aVnovelties
p4884
aVtwo-component
p4885
aVmetastatic
p4886
aVc-erbA/TR-specific
p4887
aVsuper
p4888
aVTis-8
p4889
aVreexpression
p4890
aVARRE-1
p4891
aVEvidence
p4892
aVastrocyte
p4893
aVrNF-IL6
p4894
aVCyclosporin
p4895
aVtransactivation
p4896
aVNF-kappaB-inducing
p4897
aVnonexpressing
p4898
aVinv14
p4899
aVdown
p4900
aVlies
p4901
aVCritical
p4902
aVPrf1
p4903
aVIFN-alpha-activated
p4904
aVcascades
p4905
aVprolactin
p4906
aVNFAT-binding
p4907
aVinitial
p4908
aVE2F
p4909
aVinfluencing
p4910
aV-stimulated
p4911
aVoligomerized
p4912
aVredox
p4913
aVfork
p4914
aVDNA
p4915
aVform
p4916
aVlipoarabinomannan
p4917
aVretarget
p4918
aVfailure
p4919
aVBiochemical
p4920
aV225
p4921
aVZ
aVpost-transcriptionally
p4922
aVpro-oxidative
p4923
aVprevents
p4924
aVChloramphenicol
p4925
aVBSAP
p4926
aVmethylthiogliotoxin
p4927
aVmononitrosyl
p4928
aVY701
p4929
aVstages
p4930
aVoriginating
p4931
aVfractions
p4932
aVIFNalpha
p4933
aVNuclear
p4934
aVone-third
p4935
aVTCRG
p4936
aVp27kip1
p4937
aVgland
p4938
aVadversely
p4939
aVgenerally
p4940
aVGPIb-V-IX
p4941
aVTCRs
p4942
aVp75
p4943
aVp70
p4944
aVco-expression
p4945
aVdiet
p4946
aVglucocorticoids
p4947
aVexported
p4948
aVc-cerbA/thyroid
p4949
aVHOX
p4950
aVenhancers
p4951
aVConstant
p4952
aVDrosophila
p4953
aVD2
p4954
aVSecond
p4955
aV37,38
p4956
aVGTPases
p4957
aVprimed
p4958
aVskin
p4959
aVmorphology
p4960
aVprimer
p4961
aVretention
p4962
aVsuicide
p4963
aVdepend
p4964
aVdisorders
p4965
aVtechnique
p4966
aVneuropeptides
p4967
aVLTRs
p4968
aVkeratinocytes
p4969
aVstabilizing
p4970
aVanalogous
p4971
aVrhTNF-alpha
p4972
aVreconstitutes
p4973
aVPRE-I
p4974
aVhLH-2
p4975
aVCCAAT
p4976
aVyeast
p4977
aVnear-basal
p4978
aVglycemic
p4979
aVantiatherogenic
p4980
aVIFNA
p4981
aVhypercellularity
p4982
aVpromoter/luciferase
p4983
aVthen-unknown
p4984
aV/BCL6
p4985
aVdid
p4986
aVdie
p4987
aVbright
p4988
aVanti-diabetic
p4989
aVvasculopathy
p4990
aVIFNs
p4991
aVunexpected
p4992
aVT-ALL
p4993
aVdimeric
p4994
aVBFU-E-derived
p4995
aVSTAT5-containing
p4996
aVproto-enhancer
p4997
aVbacterial
p4998
aVtargets
p4999
aVadducts
p5000
aVH2O2
p5001
aVacidosis
p5002
aVFludarabine
p5003
aVECS-dependent
p5004
aVtemplate
p5005
aVRelB
p5006
aVRelA
p5007
aVisoforms
p5008
aVligand-dependent
p5009
aVFLAP
p5010
aVC-reactive
p5011
aV/RelA
p5012
aVcytokine-induced
p5013
aVkDA
p5014
aV-transduced
p5015
aVBcl-XL
p5016
aVChanges
p5017
aVbox
p5018
aVIC50s
p5019
aVexemplified
p5020
aVshift
p5021
aVdominantly
p5022
aVSupT
p5023
aVsomatic
p5024
aVsimultaneous
p5025
aVleukemias
p5026
aVsuggestion
p5027
aVJnk
p5028
aVmicromolar
p5029
aVuseful
p5030
aVIdentification
p5031
aVphosphorylation/degradation
p5032
aVWhen
p5033
aVBp65
p5034
aVc-maf
p5035
aVoctamer-DNA
p5036
aVcooperates
p5037
aVV-ATPase
p5038
aVsubset-specific
p5039
aVencode
p5040
aVselenium-deprived
p5041
aVoligonucleotide-directed
p5042
aVcooperated
p5043
aVaspirin
p5044
aVconformation
p5045
aVWp
p5046
aVantigens
p5047
aVtandem
p5048
aVphase-1
p5049
aVphase-2
p5050
aVeffort
p5051
aVhGATA-4
p5052
aVEGTA
p5053
aVage-associated
p5054
aVGC-mediated
p5055
aVhalf-life
p5056
aVNF-kappaB-mediated
p5057
aVRIC
p5058
aVCucurbitacin
p5059
aVMinimizing
p5060
aVNumbers
p5061
aVmaking
p5062
aVrepressing
p5063
aVsulfhydryl
p5064
aVAAGTGA
p5065
aVimmortalize
p5066
aVmultifactorial
p5067
aVpredict
p5068
aVagent
p5069
aVsample
p5070
aVcoincident
p5071
aVspanning
p5072
aVInduction
p5073
aVnormalize
p5074
aVrays
p5075
aVradiation
p5076
aVchemical
p5077
aVhypersensitivity
p5078
aVML-1a
p5079
aVpathway
p5080
aVmap
p5081
aV141
p5082
aVmay
p5083
aVvitro-translated
p5084
aVP0-compatible
p5085
aVaccessory
p5086
aVgelatin
p5087
aVFoxO1
p5088
aVvalue
p5089
aVdestructive
p5090
aV-1081
p5091
aVman
p5092
aVpurify
p5093
aVelongation
p5094
aV17,18
p5095
aVcascade
p5096
aVswitch
p5097
aVblock
p5098
aV40-kDa
p5099
aVtrichloroacetic
p5100
aVFlavonoids
p5101
aVesters
p5102
aVspi-B
p5103
aVmonoblasts
p5104
aVgradual
p5105
aVcysteine-rich
p5106
aVhydroxylamine
p5107
aVRemoval
p5108
aVstability
p5109
aVdiffers
p5110
aVNonpituitary
p5111
aVgroup
p5112
aVmonitor
p5113
aVinteresting
p5114
aVnitrofurantoin
p5115
aVmain
p5116
aVuptake
p5117
aVWT1
p5118
aVneoplasms
p5119
aVquantitate
p5120
aVkiller
p5121
aVShc
p5122
aVDeltaE
p5123
aVMKK3
p5124
aVLaboratories
p5125
aVeosinophil-activating
p5126
aVkilled
p5127
aVdevelopments
p5128
aVMKK6
p5129
aVCD45RA
p5130
aVSimple
p5131
aVtumor-draining
p5132
aVCD45RO
p5133
aVarrows
p5134
aVanti-microbial
p5135
aVMeasurement
p5136
aV/MEK1
p5137
aV/MEK2
p5138
aVcontransfection
p5139
aValpha-PPAR
p5140
aVStaurosporine
p5141
aVfasL
p5142
aVcAMP
p5143
aVabnormal
p5144
aVLuc
p5145
aVBrefeldinA
p5146
aValpha-tocopherol
p5147
aValpha2
p5148
aVtrifluoromethylketones
p5149
aValpha1
p5150
aVCalcium/calmodulin-dependent
p5151
aVAp1
p5152
aVinterference
p5153
aVCD45
p5154
aVFormation
p5155
aVEts-1
p5156
aVKey
p5157
aVB-induced
p5158
aVtransmigration
p5159
aVafter
p5160
aVc-Kit
p5161
aVG
aVmechanisms
p5162
aVTumor
p5163
aVuncover
p5164
aVSigma
p5165
aVApr
p5166
aVHSF2-alpha
p5167
aV-245
p5168
aVPBGD
p5169
aVsubstrates
p5170
aVfirst
p5171
aVphosphorylations
p5172
aVTranslocations
p5173
aVligand-induced
p5174
aV1A
p5175
aV1B
p5176
aV1D
p5177
aVspecificity
p5178
aVISG
p5179
aVlittle
p5180
aVgenotype
p5181
aV1x
p5182
aVglycosylase
p5183
aVparticipates
p5184
aVparallel
p5185
aV1a
p5186
aV1b
p5187
aVhydrophobicity
p5188
aVEomes-VP16
p5189
aVinefficient
p5190
aVcontinuous
p5191
aVaccurately
p5192
aVI-kappaBbeta
p5193
aVinfiltrate
p5194
aVReplacement
p5195
aV11
p5196
aV10
p5197
aV13
p5198
aVanalyze
p5199
aV15
p5200
aV14
p5201
aV17
p5202
aV16
p5203
aV19
p5204
aV18
p5205
aVprotected
p5206
aVwere
p5207
aVorder-dependent
p5208
aVDD
p5209
aVDC
p5210
aVRegulation
p5211
aVfactor-mediated
p5212
aVDR
p5213
aVGTP-bound
p5214
aVDP
p5215
aVelement-specific
p5216
aVSYBR
p5217
aVefficient
p5218
aVMurphy
p5219
aVisolate
p5220
aV+27
p5221
aVsubcytotoxic
p5222
aVpotential
p5223
aV65-kD
p5224
aVswitching
p5225
aVchromosomes
p5226
aVnormal
p5227
aVdecreasing
p5228
aVcatalase
p5229
aVDHA
p5230
aVbeta
p5231
aVtract
p5232
aVpair
p5233
aVDHS
p5234
aVauto-inhibitory
p5235
aVD.
p5236
aVoleate
p5237
aVespecially
p5238
aVdiversity
p5239
aVcompounds
p5240
aV-responsive
p5241
aVD3
p5242
aVapoptosis-mediating
p5243
aVprecise
p5244
aVdissecting
p5245
aVshow
p5246
aVaccession
p5247
aVmulticomponent
p5248
aVWT
p5249
aVthreshold
p5250
aVreceptor-associated
p5251
aVWe
p5252
aVPVDF-membrane
p5253
aVspi-1
p5254
aVSecondarily
p5255
aVRIP
p5256
aVgenistein
p5257
aVhelix
p5258
aVRII
p5259
aVsensitivities
p5260
aVextracellular
p5261
aVp98
p5262
aVKappa
p5263
aVhistone
p5264
aVp90
p5265
aVdesignated
p5266
aVAzadC-treatment
p5267
aVp96
p5268
aVLarge
p5269
aVnearly
p5270
aVlymphoid-specific
p5271
aVconjunction
p5272
aVsecondary
p5273
aVComparative
p5274
aVhRXR
p5275
aVMethods
p5276
aVTCL1
p5277
aVfibrinogen-derived
p5278
aVW.
p5279
aVcommunicates
p5280
aVligand-inducible
p5281
aV12.1
p5282
aVyield
p5283
aVsummary
p5284
aVhypomethylated
p5285
aVB-lymphocyte
p5286
aVdesulfonisation
p5287
aVEBV-associated
p5288
aV431-amino
p5289
aVnon-expressing
p5290
aVneuropathogenic
p5291
aVDTCs
p5292
aV5.47
p5293
aVZ-LLL-H
p5294
aVsyncytia-forming
p5295
aVrelative
p5296
aVunaltered
p5297
aVcerulein
p5298
aVanti-Itk
p5299
aVboundaries
p5300
aVmetabolites
p5301
aVSelective
p5302
aVDose-dependence
p5303
aV707-base
p5304
aVdeletions
p5305
aVFOS
p5306
aVProbucol
p5307
aVNFkB
p5308
aVlipopolysaccharide-stimulated
p5309
aVFOG
p5310
aVPax-5
p5311
aVEach
p5312
aVsignaled
p5313
aVstimulation-dependent
p5314
aVFoxj1
p5315
aVerythroblasts
p5316
aVcell-derived
p5317
aVLFA-1
p5318
aVaccording
p5319
aVblasts
p5320
aVdex-resistant
p5321
aVAtopy
p5322
aVstretches
p5323
aVcancer
p5324
aVsynovitis
p5325
aVSAF
p5326
aVuncouple
p5327
aVmaintained
p5328
aVchaperoning
p5329
aVexhibits
p5330
aV24-hydroxylase
p5331
aVIL1B
p5332
aVestrogen
p5333
aVconsidering
p5334
aVtumour
p5335
aVtuning
p5336
aVcapable
p5337
aVsubpopulation
p5338
aVHHV-6
p5339
aVaberrated
p5340
aVtransformants
p5341
aVT-cell-specific
p5342
aVenhancer/promoter
p5343
aVacetate-mediated
p5344
aVN-terminal
p5345
aVdramatic
p5346
aValpha-chemokine
p5347
aVvirus-induced
p5348
aVnon-IL-2
p5349
aVthose
p5350
aVhematopoiesis
p5351
aVapoptosis-associated
p5352
aVkappa
p5353
aVTo
p5354
aVIL10
p5355
aVIL13
p5356
aVIL15
p5357
aVprofiles
p5358
aVDetection
p5359
aVongoing
p5360
aVT-antigen
p5361
aVendothelial
p5362
aVcharacteristics
p5363
aVnomenclature
p5364
aVstrain
p5365
aVanti-CD2
p5366
aVanti-CD3
p5367
aVanti-CD4
p5368
aVproteic
p5369
aVanti-CD8
p5370
aVscavenger
p5371
aVprotein
p5372
aVdifferent
p5373
aVphosphorylating
p5374
aVnucleotidase
p5375
aVantigen-stimulated
p5376
aVV14Rho
p5377
aVsame
p5378
aVpag
p5379
aVintermediary
p5380
aVadipocytes
p5381
aV10-22
p5382
aVMCM6
p5383
aVMCM5
p5384
aVsarcoma-associated
p5385
aVdiscernable
p5386
aVtotally
p5387
aVband
p5388
aVEpitope
p5389
aVmicrogram/ml
p5390
aVintima
p5391
aVmetalloproteinase-9
p5392
aVconsisted
p5393
aVsulindac
p5394
aVD-dependent
p5395
aV1G5
p5396
aVTcR/CD3
p5397
aVproximal
p5398
aVCo-expression
p5399
aVGermline
p5400
aVALD-treated
p5401
aVasthma
p5402
aV4
aVAlthough
p5403
aVDNA-bound
p5404
aVextensive
p5405
aVHPLC
p5406
aVgenome
p5407
aVpolymorphonuclear
p5408
aVmethylation-inhibitor
p5409
aVinhibition
p5410
aVTranscripts
p5411
aVimplicate
p5412
aVcAMP-responsive
p5413
aVNFATx1
p5414
aVidentifying
p5415
aVThymocytes
p5416
aV32,33
p5417
aVserves
p5418
aVIU/mL
p5419
aVeither
p5420
aVneuronal
p5421
aV7.5-fold
p5422
aVMoreover
p5423
aVtransgenesis
p5424
aVundifferentiated
p5425
aVVDR
p5426
aVthromboxane
p5427
aVNef
p5428
aVimmune-mediated
p5429
aVpathway-specific
p5430
aVspecified
p5431
aVgross
p5432
aVproIL-1beta
p5433
aVconfirm
p5434
aVHTLV-1-mediated
p5435
aVextensively
p5436
aVcritical
p5437
aVexpressing
p5438
aVDNMT/MBPs
p5439
aVmoderate
p5440
aVRA-induced
p5441
aVmeasuring
p5442
aVcandidiasis
p5443
aVInteraction
p5444
aVairways
p5445
aVpan-PKC
p5446
aVunusual
p5447
aVT3
p5448
aVnotably
p5449
aVAO
p5450
aVEfforts
p5451
aVmanufacturer
p5452
aVVD3
p5453
aVassayed
p5454
aVisland
p5455
aVCaMKIV/Gr
p5456
aVdevelops
p5457
aVPMA-inducible
p5458
aVmixed
p5459
aVdeprivation-induced
p5460
aVbeta-galactosidase
p5461
aVAngiotensin
p5462
aVerythropoietic
p5463
aVspreading
p5464
aVPOZ/zinc-finger
p5465
aVmalignancy-associated
p5466
aVDILs
p5467
aVtyrosine
p5468
aVgranules
p5469
aVimmunoreceptor
p5470
aVsophisticated
p5471
aVSTAT5b
p5472
aVSTAT5a
p5473
aVcorrelated
p5474
aVSignificantly
p5475
aVLTR-driven
p5476
aVgangliosides
p5477
aVdoxorubicin
p5478
aVSTAT5A
p5479
aV-226
p5480
aVpolymorphisms
p5481
aV-228
p5482
aVphyto
p5483
aVUSF
p5484
aVARRE/NF-AT
p5485
aVUSA
p5486
aVEfficient
p5487
aVconcentration-dependent
p5488
aVgeneral
p5489
aVimmunoprecipitation
p5490
aVexamine
p5491
aVhypercalcemia
p5492
aVanaphylaxis
p5493
aVfile
p5494
aVthymocyte-specific
p5495
aV-60
p5496
aVagain
p5497
aV-62
p5498
aV-64
p5499
aV-65
p5500
aVbeta-PPAR
p5501
aV-69
p5502
aVhybrid
p5503
aVEgr-1
p5504
aVEgr-2
p5505
aVEgr-3
p5506
aVsupplementing
p5507
aVMegakaryocyte/Platelet-specific
p5508
aVhTAFII130
p5509
aVvanadate
p5510
aVetoposide-treated
p5511
aVBamHI/BglII
p5512
aVderiving
p5513
aVPMA/ionomycin
p5514
aVimportant
p5515
aVresembled
p5516
aVremote
p5517
aVinhibited
p5518
aVincubating
p5519
aVresembles
p5520
aVpromotor
p5521
aVB-responsive
p5522
aVovary
p5523
aVstarting
p5524
aVrepresent
p5525
aVpigmentosum
p5526
aVoxidant-initiated
p5527
aVSIV
p5528
aVSIT
p5529
aVdefensins
p5530
aVactivation/translocation
p5531
aVcooperative
p5532
aVSecretion
p5533
aVexpressions
p5534
aVVav
p5535
aVduplicated
p5536
aVTAT
p5537
aVresponsiveness
p5538
aVTAR
p5539
aVLymphocyte
p5540
aVAU-rich
p5541
aVdiffuse
p5542
aVTAF
p5543
aVTAG
p5544
aVTAB
p5545
aVJCT6
p5546
aVTA1
p5547
aVreturning
p5548
aVJagged1
p5549
aVplausibility
p5550
aVhybridize
p5551
aVbcl-xL
p5552
aVdifference
p5553
aVPP-2A
p5554
aVwashing
p5555
aVAzadC
p5556
aVbcl-xs
p5557
aVretargeting
p5558
aVbcl-xl
p5559
aVcyclophilin
p5560
aVperiodontal
p5561
aVPC2
p5562
aVCTCF
p5563
aVelution
p5564
aVisozymes
p5565
aVreactivation
p5566
aVgo
p5567
aVOnly
p5568
aVdiapedesis
p5569
aVfurther
p5570
aVmarginal
p5571
aVresidue
p5572
aVn't
p5573
aVdefence
p5574
aVmobilizing
p5575
aVKBF
p5576
aVNF1
p5577
aVactivations
p5578
aVendothelia
p5579
aVGPIbalpha
p5580
aVmalaria
p5581
aVK
aVcomponent
p5582
aVneutralized
p5583
aVCsA-treated
p5584
aVoperating
p5585
aVBLK
p5586
aVsearch
p5587
aVantagonizing
p5588
aVultrafiltration
p5589
aVGCS
p5590
aVNFs
p5591
aVuncharted
p5592
aVpublished
p5593
aVbeta-Catenin
p5594
aVtoxicity
p5595
aVAlpha-tocopherol
p5596
aVpathological
p5597
aVleukotriene
p5598
aVfactor-kappa
p5599
aVredox-dependent
p5600
aVextinction
p5601
aVestablish
p5602
aVpre-treatment
p5603
aVreadily
p5604
aVCore
p5605
aVelement-containing
p5606
aVdistinct
p5607
aVtwo
p5608
aVOTF2
p5609
aVOTF1
p5610
aVcultivation
p5611
aVprotein-1-responsive
p5612
aVFK506-mediated
p5613
aV0.005
p5614
aV0.001
p5615
aVLTR
p5616
aVMultifactor
p5617
aVconcomitantly
p5618
aVconstructs
p5619
aVFMS
p5620
aVcontrolling
p5621
aVimmunoreactive
p5622
aVvarying
p5623
aValpha-thrombin
p5624
aVThr-15
p5625
aVdex
p5626
aVnone
p5627
aVcalcineurin
p5628
aVhour
p5629
aVcluster
p5630
aVco-activation
p5631
aVOTFs
p5632
aVremain
p5633
aVPMA-dependent
p5634
aVstrategies
p5635
aVcompare
p5636
aVHUVEC
p5637
aVionizing
p5638
aV37degreesC
p5639
aVshare
p5640
aVconfirmation
p5641
aVchimera
p5642
aVnumbers
p5643
aVmolecularly
p5644
aVnarrowly
p5645
aVcooperativity
p5646
aVdrained
p5647
aVacts
p5648
aVP53
p5649
aVE-selectin
p5650
aVpEGFP-C2
p5651
aVagonist-induced
p5652
aVNF-kappaB/NFAT
p5653
aVminimum
p5654
aVblood
p5655
aVsurfactants
p5656
aVresponse
p5657
aVGAS-binding
p5658
aVEpstein-Barr
p5659
aVHemoglobin
p5660
aVinflammatory-type
p5661
aVdispensable
p5662
aV60-fold
p5663
aVchimeric
p5664
aVDMSO
p5665
aVStauro
p5666
aVsecreting
p5667
aVForced
p5668
aVLT-alpha1beta2
p5669
aVstains
p5670
aVcell-subset-specific
p5671
aVsFv
p5672
aVthrough
p5673
aVlipophilic
p5674
aVexistence
p5675
aVMAD-3
p5676
aVLMP2B
p5677
aV24
p5678
aV25
p5679
aV26
p5680
aV27
p5681
aV20
p5682
aV21
p5683
aV22
p5684
aV23
p5685
aVIfng
p5686
aV28
p5687
aVmicroenvironment
p5688
aVlate
p5689
aVdetected
p5690
aVdeltaspi-B
p5691
aVImmunofluorescence
p5692
aVsuperoxide
p5693
aVcounter-receptor
p5694
aVgood
p5695
aVsubclone
p5696
aVmales
p5697
aVmorphologically
p5698
aV2D
p5699
aV2E
p5700
aV2A
p5701
aV2B
p5702
aVcompound
p5703
aVisopropylidine
p5704
aVassociation
p5705
aV22,23
p5706
aVeasily
p5707
aVRA-inducible
p5708
aVLack
p5709
aVmol/L
p5710
aVsteroid-regulated
p5711
aVbasophils
p5712
aVUV-induced
p5713
aVBaL
p5714
aVharboring
p5715
aVmRNAs
p5716
aVbreakdown
p5717
aVPosttranscriptional
p5718
aVco-stimulation
p5719
aVsulfoximine
p5720
aVexons
p5721
aVenergy
p5722
aVcipro
p5723
aVidea
p5724
aVXLA
p5725
aVE2F-mediated
p5726
aVlysis
p5727
aVA-related
p5728
aVsuper-induced
p5729
aVacting
p5730
aVT-helper
p5731
aVE4
p5732
aVE1
p5733
aVGATA
p5734
aVE3
p5735
aVE2
p5736
aVEts-NF-kappaB/NFAT
p5737
aVexon1
p5738
aVcircumstance
p5739
aVplatelet-activating-factor
p5740
aV55-fold
p5741
aVHIV-enhancer
p5742
aVeosinophil
p5743
aVmembers
p5744
aVpalmitic
p5745
aVES
p5746
aVER
p5747
aVbenefits
p5748
aVconducted
p5749
aVEp
p5750
aVutilized
p5751
aVinhibits
p5752
aV22-bp
p5753
aV-Induced
p5754
aVoncoproteins
p5755
aV323-339
p5756
aVhomologues
p5757
aVconstruct
p5758
aVprotein-1alpha
p5759
aVobligatory
p5760
aVregulation
p5761
aVmethylated
p5762
aV186
p5763
aVCD336
p5764
aV13-acetate
p5765
aVmajority
p5766
aVcompartment
p5767
aVCArG
p5768
aVCytotoxicity
p5769
aVEKLF
p5770
aVfetal/neonatal
p5771
aVpost-translational
p5772
aVpart
p5773
aVfavorable
p5774
aVgranulopoiesis
p5775
aVpeaked
p5776
aVS9a
p5777
aVb
aVcyclic
p5778
aVVJ2
p5779
aVcyclin
p5780
aVlargely
p5781
aVVJ5
p5782
aVVJ4
p5783
aVlectin
p5784
aVtreated
p5785
aVinteractive
p5786
aVpre-existing
p5787
aVX1
p5788
aVPAO-sensitive
p5789
aVdendritic
p5790
aVorders
p5791
aVGal4-BD-c-Jun
p5792
aVATF-2
p5793
aVbuilt
p5794
aVOxidants
p5795
aVclonality
p5796
aVKit
p5797
aVonset
p5798
aVextracted
p5799
aVRPMI-8226
p5800
aVRP1
p5801
aVkB
p5802
aVN-acetylcysteine
p5803
aVkD
p5804
aVmost
p5805
aVtrans-activator
p5806
aVsecretable
p5807
aVextremely
p5808
aVinducibility/cell
p5809
aVkb
p5810
aVX1-specific
p5811
aVConsistent
p5812
aVmannose
p5813
aVtrans-activating
p5814
aVbcl-3
p5815
aVbcl-2
p5816
aVorganism
p5817
aVheterodimerization
p5818
aV-206
p5819
aVparticularly
p5820
aVSignals
p5821
aVrelation
p5822
aVmalignant
p5823
aV-mRNA
p5824
aVfind
p5825
aVdepended
p5826
aVintermediate-dependent
p5827
aV-42
p5828
aVnervous
p5829
aV-40
p5830
aVtranslocates
p5831
aVdistributed
p5832
aV-44
p5833
aVhToll-induced
p5834
aV8
aVtranslocated
p5835
aVCNS-derived
p5836
aVC26
p5837
aVexpress
p5838
aVBCR-induced
p5839
aVguamerin-derived
p5840
aV/CD40L
p5841
aVComparing
p5842
aVlymphokine
p5843
aVcommon
p5844
aVCortivazol
p5845
aVaspect
p5846
aVHTLV-I-infected
p5847
aVelectroporation
p5848
aVT-cells
p5849
aVindividual
p5850
aVgenomic
p5851
aVpreformed
p5852
aVoriP
p5853
aVPI3K-mediated
p5854
aVStat1
p5855
aVMFI
p5856
aVTCR
p5857
aVpromoter-mediated
p5858
aVTCP
p5859
aVLPS-stimulated
p5860
aVvascular
p5861
aVTCE
p5862
aVPPAR
p5863
aVresponses
p5864
aVcomplement
p5865
aVPhosphorylated
p5866
aVbi-directional
p5867
aVTransgene
p5868
aValters
p5869
aVHIV-mediated
p5870
aVUnexpected
p5871
aVHIV-LTR/tat
p5872
aVB/Rel/NFAT
p5873
aVfocused
p5874
aVYet
p5875
aVpoint
p5876
aVsimple
p5877
aVmyristate-induced
p5878
aVdownregulated
p5879
aVsimply
p5880
aVMutation
p5881
aVzeta
p5882
aVthroughout
p5883
aVsuppressing
p5884
aVensures
p5885
aVfused
p5886
aVraise
p5887
aVintracellular
p5888
aVvertebrate
p5889
aVscreened
p5890
aVATRA
p5891
aV72-kDa
p5892
aVrepertoire
p5893
aVPDTC-insensitive
p5894
aVautoinduced
p5895
aVHEB
p5896
aVHEL
p5897
aVProtein-DNA
p5898
aVubiquitination
p5899
aVnormoxia
p5900
aVICRF-193
p5901
aVnormoxic
p5902
aV5.1-fold
p5903
aVtolerate
p5904
aVCobalt
p5905
aVpathogenetic
p5906
aVreplaced
p5907
aVforkhead/winged-helix
p5908
aVBB-94
p5909
aVcis-dominant
p5910
aVNeutralizing
p5911
aVencountered
p5912
aVdestabilization
p5913
aVIgkappa
p5914
aVitself
p5915
aVTranslocation
p5916
aVaround
p5917
aVunaffected
p5918
aVAffinity-driven
p5919
aVdiscourse
p5920
aVemphasize
p5921
aVheptamer
p5922
aVfibrosis
p5923
aVco-immunoprecipitation
p5924
aVdevelopment
p5925
aVlatency
p5926
aVappreciably
p5927
aVPromoter
p5928
aVchain-specific
p5929
aVOCA-B
p5930
aVpurpose
p5931
aVneuraminidase
p5932
aVActivity
p5933
aVspecies-mediated
p5934
aVself-replenishing
p5935
aVhomologies
p5936
aVAugmented
p5937
aVFigure
p5938
aVpercentages
p5939
aVPDBu
p5940
aVGeneral
p5941
aVentry
p5942
aVprevention
p5943
aVnucleoprotein
p5944
aVJNK1
p5945
aVcells/ml
p5946
aVprofoundly
p5947
aVcell-independent
p5948
aVKlug
p5949
aVfaster-migrating
p5950
aValternative
p5951
aVintranuclear
p5952
aValignment
p5953
aVAspirin
p5954
aVcyclin-like
p5955
aVtranscriptase
p5956
aVthymuses
p5957
aVp27Kip1
p5958
aVsource
p5959
aVMicroBeads
p5960
aVp21ras
p5961
aVhybridization
p5962
aV+170
p5963
aVCells
p5964
aVReversions
p5965
aVprecipitation
p5966
aVfollows
p5967
aVflux
p5968
aVWild-type
p5969
aVErbB
p5970
aVNIMR
p5971
aVrheumatoid
p5972
aVoften
p5973
aVDefective
p5974
aVmetabolic
p5975
aVabsolutely
p5976
aVabundantly
p5977
aVback
p5978
aVSingle-stranded
p5979
aVimmunologic
p5980
aVtyrosyl
p5981
aVaccelerate
p5982
aVMeCP
p5983
aVpronounced
p5984
aVendotoxic
p5985
aVcontacts
p5986
aVaffects
p5987
aVdecision
p5988
aVintegration
p5989
aV-inducible
p5990
aVendotoxin
p5991
aVconnecting
p5992
aVeliminate
p5993
aVionophore
p5994
aVaugmenting
p5995
aVpatient
p5996
aV300
p5997
aVimmunoprecipitated
p5998
aVTGF-beta1
p5999
aVGlucocorticoid-induced
p6000
aVEnhancer
p6001
aVGATA-binding
p6002
aVUSA-derived
p6003
aVSIVmac
p6004
aVEnhanced
p6005
aVsequence-specific
p6006
aVconsequently
p6007
aVcoculture
p6008
aVPP-2A-opposing
p6009
aVNeo
p6010
aVIncrease
p6011
aVframes
p6012
aVnon-canonical
p6013
aVrelapses
p6014
aVpathologic
p6015
aVC-mediated
p6016
aVsubcellular
p6017
aVIV/Gr
p6018
aVv-Myb
p6019
aVvirions
p6020
aVstage-specific
p6021
aVinfected
p6022
aVcell-initiated
p6023
aVNF-kappaB-like
p6024
aVsignal-transducing
p6025
aVtranfection
p6026
aVSteel
p6027
aVjuxtaposed
p6028
aVmechanistic
p6029
aVunderlined
p6030
aVquiescent
p6031
aVunstimulated
p6032
aVbreakpoint
p6033
aVmigrating
p6034
aV-activated
p6035
aVItk
p6036
aVdirected
p6037
aVcocultures
p6038
aVrejection
p6039
aVblockage
p6040
aVketone
p6041
aVcocultured
p6042
aVanti-oxidative
p6043
aVrecognition
p6044
aVepisome
p6045
aVconstant
p6046
aV/CD18
p6047
aVsingle
p6048
aVorganizational
p6049
aVformally
p6050
aV%
aVTAL1
p6051
aVMax
p6052
aVetiologies
p6053
aVthalassaemia
p6054
aVMac
p6055
aVfunctionality
p6056
aVMaf
p6057
aVdes-Arg
p6058
aVexplaining
p6059
aVendocrine
p6060
aVprepared
p6061
aVTh17
p6062
aVaggregated
p6063
aVteceptor
p6064
aVsilencing
p6065
aV2003
p6066
aV2006
p6067
aVpresenting
p6068
aV2005
p6069
aVuterus
p6070
aVfailures
p6071
aVpDelta-kappaB-HIV-CAT
p6072
aVsynovium
p6073
aVapocynin
p6074
aVinitiating
p6075
aVpneumoniae
p6076
aVamplifies
p6077
aVerythropoiesis
p6078
aVamplified
p6079
aVpurine-box/ARRE/NF-AT
p6080
aVRetroviral
p6081
aVHT93A
p6082
aVanergic
p6083
aVreductions
p6084
aVeffectors
p6085
aVIRAK2
p6086
aVCD33
p6087
aVassay
p6088
aVreinfusion
p6089
aVpromoter-proximal
p6090
aVRegion
p6091
aVGATA3
p6092
aVGATA1
p6093
aVmolar
p6094
aVentire
p6095
aVmuE3-binding
p6096
aVTcf-responsive
p6097
aVshock
p6098
aVantigen-driven
p6099
aVmobilize
p6100
aVRemarkably
p6101
aVHNFs
p6102
aVdimer
p6103
aVrel-related
p6104
aVantigen
p6105
aVreplicates
p6106
aVone-tenth
p6107
aVP/I-inducible
p6108
aVsynergism
p6109
aV3C
p6110
aV3B
p6111
aV3A
p6112
aV70-kDa
p6113
aVXIST
p6114
aVBioactivation
p6115
aV-24
p6116
aV-20
p6117
aVcotransfecting
p6118
aVFasL
p6119
aVpp70S6K
p6120
aVPAO
p6121
aV47-kDa
p6122
aVCNI-1493
p6123
aVdissection
p6124
aVc-abl
p6125
aVexchange
p6126
aVProteins
p6127
aVspacing
p6128
aVhealing
p6129
aVIEF-1
p6130
aVothers
p6131
aVoxidative
p6132
aV300-bp
p6133
aVsafer
p6134
aVMeyaard
p6135
aV38
p6136
aV7700
p6137
aV33
p6138
aV32
p6139
aV31
p6140
aV30
p6141
aV36
p6142
aV35
p6143
aVtranslation-dependent
p6144
aVprincipally
p6145
aVelastatinal
p6146
aVcomposed
p6147
aVfourfold
p6148
aVnamed
p6149
aVcyclotetrapeptide
p6150
aVSMX
p6151
aVFcR
p6152
aVnontuberculous
p6153
aVdecrease
p6154
aVTreatment
p6155
aVadministration
p6156
aVgamma-specific
p6157
aVFN
p6158
aVdermatitis
p6159
aVFv
p6160
aVanoxia/reoxygenation
p6161
aVFc
p6162
aVAnalyzed
p6163
aVthemselves
p6164
aVGGGGGCTTTCCC
p6165
aVDFX
p6166
aV0.5
p6167
aVPyrrolidinedithiocarbamate
p6168
aVemigration
p6169
aVtransient
p6170
aVnormalized
p6171
aVsteroid-induced
p6172
aVF1
p6173
aVaccount
p6174
aVNFIL-2A
p6175
aVpost-transcription
p6176
aVdesferrioxamine
p6177
aVNREs
p6178
aVobvious
p6179
aVEBNA-2
p6180
aVF.
p6181
aVNF-AT-1
p6182
aVlong-terminal
p6183
aVcalcium-signaling
p6184
aVe.g.
p6185
aVMobilization
p6186
aVproportions
p6187
aVrepeat-KB
p6188
aVeffectively
p6189
aVGlucocorticoid
p6190
aVnative
p6191
aVvaried
p6192
aVMethylation-sensitive
p6193
aVc-rel-specific
p6194
aVActivation
p6195
aVregions
p6196
aVvaries
p6197
aVattachment
p6198
aVprofile
p6199
aVflanking
p6200
aVABI
p6201
aVleukemia
p6202
aVgammac
p6203
aVmultiplication
p6204
aVastrocyte-derived
p6205
aV1beta
p6206
aVJhan
p6207
aVHIV
p6208
aVoverexpression
p6209
aVAttenuated
p6210
aVBHA
p6211
aVbind
p6212
aVlines
p6213
aVcorrespond
p6214
aVsynthase
p6215
aVinhibitable
p6216
aVlive-HIV-1
p6217
aVsubsequently
p6218
aVoctamerlike
p6219
aVtranscripts
p6220
aVerythropoietin
p6221
aVPEBP2
p6222
aVchemotherapeutic
p6223
aVFK506
p6224
aVsubclones
p6225
aVage
p6226
aVlp
p6227
aVimmunoblot
p6228
aVglobins
p6229
aVgreater
p6230
aVankyrin-rich
p6231
aVLPS
p6232
aVphagocytes
p6233
aVAntibody
p6234
aVday
p6235
aVserpentine
p6236
aVidentified
p6237
aVcorrelative
p6238
aVmodulations
p6239
aVvirulent
p6240
aVV.B.
p6241
aVgp120-anti-gp120
p6242
aVCorticosteroids
p6243
aVAP-1-regulated
p6244
aVmelanomas
p6245
aVPrevious
p6246
aVactivate
p6247
aVproliferating
p6248
aVabrogation
p6249
aV2-4-fold
p6250
aVNitric
p6251
aVautoimmunity
p6252
aVphosphoryl
p6253
aVrepress
p6254
aVChing
p6255
aVmessenger
p6256
aVrel
p6257
aVM-TAT/GM-CSF
p6258
aVCSF
p6259
aVclarify
p6260
aVapproaches
p6261
aVNK
p6262
aVCysteine
p6263
aVIL-1ra
p6264
aV-deficient
p6265
aVEnforced
p6266
aVinteraction
p6267
aVoff-rate
p6268
aVhomodimers
p6269
aVFold
p6270
aVAlcohol-induced
p6271
aVInvitrogen
p6272
aVfacilitate
p6273
aVdown-regulatory
p6274
aVCD71
p6275
aV-BD
p6276
aVAdministration
p6277
aVreached
p6278
aVmoiety
p6279
aVxanthine
p6280
aVPAFR
p6281
aVintermediate
p6282
aVc-mim
p6283
aVA-treated
p6284
aVHIV-1-encoded
p6285
aVintegrins
p6286
aVtetrahexamer
p6287
aVexplanation
p6288
aVB-mediated
p6289
aVheterodimeric
p6290
aVsporadically
p6291
aVphorbol
p6292
aVoxidant-induced
p6293
aVtat-I
p6294
aVtransduced
p6295
aVubiquitously
p6296
aVDouble-stranded
p6297
aVabolishes
p6298
aVinversely
p6299
aVcompensation
p6300
aVelectrostatic
p6301
aVtransduces
p6302
aVtransducer
p6303
aVassays
p6304
aVmuA
p6305
aVabolished
p6306
aVLastly
p6307
aVcytoplasm
p6308
aVcurves
p6309
aVunlikely
p6310
aVhave
p6311
aVClusters
p6312
aVapparently
p6313
aVX-linked
p6314
aVimmobilization
p6315
aVminimally
p6316
aVmin
p6317
aVdegranulate
p6318
aVISG54
p6319
aVCCACC/Sp1
p6320
aVserine
p6321
aVunless
p6322
aVxenobiotic
p6323
aVproinflammatory
p6324
aVmimics
p6325
aVSuperantigens
p6326
aVpreliminary
p6327
aVcloned
p6328
aVtranscript
p6329
aVMEK1S218/222A
p6330
aVHS1-5
p6331
aVSome
p6332
aVdisease
p6333
aVPotent
p6334
aVproline-rich
p6335
aVartificially
p6336
aVnormally
p6337
aVDMSO-induced
p6338
aVselection
p6339
aVagammaglobulinemia
p6340
aVsupported
p6341
aVactinomycin-D
p6342
aVphagocytosis
p6343
aVHeLa
p6344
aVpZVB70
p6345
aVantiserum
p6346
aVknowledge
p6347
aVKitani
p6348
aVmug
p6349
aVcontrols
p6350
aVprolong
p6351
aVmicrobially
p6352
aVecto-5
p6353
aVregularly
p6354
aVpeptide
p6355
aVMechanical
p6356
aVanti-lambda
p6357
aVRaf/MEK
p6358
aVareas
p6359
aVsubstrata
p6360
aVsubstrate
p6361
aVrescuing
p6362
aViNOS
p6363
aVhGR
p6364
aVbeta-casein
p6365
aVgranurocytes
p6366
aVfixed
p6367
aVattenuate
p6368
aVenhancer
p6369
aVenhances
p6370
aVGABPalpha
p6371
aVexists
p6372
aVintensity
p6373
aVVarious
p6374
aVenhanced
p6375
aVphases
p6376
aVSTAT5B
p6377
aVpattern
p6378
aVChIP
p6379
aVcalcium-independent
p6380
aVproof
p6381
aVphased
p6382
aVguanylhydrazone
p6383
aVelement-like
p6384
aVprogress
p6385
aVboundary
p6386
aValveolar
p6387
aVGM-CSF
p6388
aVsuperior
p6389
aVdeliver
p6390
aVbiosynthesis
p6391
aVS
aV-response
p6392
aVets-related
p6393
aVMultiple
p6394
aVimpairments
p6395
aVtriptolide
p6396
aVtaking
p6397
aVequal
p6398
aVmorphologic
p6399
aVNF-kappaB-driven
p6400
aVtransplantation
p6401
aVotherwise
p6402
aVrevert
p6403
aVinflammatory
p6404
aVabortive
p6405
aVX-box
p6406
aVerythrocyte
p6407
aVcopies
p6408
aVIKB
p6409
aVmafK
p6410
aVALF1
p6411
aV-defective
p6412
aVIKK
p6413
aVdefine
p6414
aVComparison
p6415
aVtype-specificity
p6416
aVTbx21
p6417
aVTFIIIB90
p6418
aVIRES
p6419
aVMitogen
p6420
aVanti-Runx3
p6421
aVacetate
p6422
aVCTCAGGA-3
p6423
aVresultant
p6424
aVdivisions
p6425
aVpre-B
p6426
aVappearance
p6427
aVfluorophosphate-thrombin
p6428
aVpromoter
p6429
aVpromotes
p6430
aVagar
p6431
aV69-bp
p6432
aVpromoted
p6433
aVensuing
p6434
aVbiologically
p6435
aVbiphasic
p6436
aVCDH13
p6437
aVhelper
p6438
aVinterleukin-12
p6439
aVinterleukin-13
p6440
aVinterleukin-10
p6441
aVhelped
p6442
aV-Elf-1
p6443
aVpartner
p6444
aVregression
p6445
aVsequentially
p6446
aVSOD
p6447
aV-directed
p6448
aVindistinguishable
p6449
aVanti-C/EBPbeta
p6450
aVkinase-dependent
p6451
aVpost-receptor
p6452
aVMBP
p6453
aVserum-free
p6454
aVSDS-PAGE
p6455
aV-61
p6456
aVintravascular
p6457
aVDeletional
p6458
aVAims
p6459
aVion
p6460
aVimmunocytochemistry
p6461
aVFLRE
p6462
aVtighter
p6463
aVanti-NF-ATp
p6464
aVcenter
p6465
aVConversely
p6466
aVthought
p6467
aVanti-NF-ATc
p6468
aVsets
p6469
aVposition
p6470
aVTotal
p6471
aVdephosphorylate
p6472
aVfetal
p6473
aVcarcinoma-derived
p6474
aVWillebrand
p6475
aVstores
p6476
aVgranulomonocytic
p6477
aVcytokine-activated
p6478
aVunderlying
p6479
aVFourth
p6480
aVTRE1
p6481
aVprotecting
p6482
aVTeflon
p6483
aVTCDD
p6484
aVectopic
p6485
aVcharacteristically
p6486
aVtests
p6487
aVdimers
p6488
aVRpd3p
p6489
aVapoptosis-resistant
p6490
aVEL-4
p6491
aVinsert
p6492
aVdisplaced
p6493
aVlike
p6494
aVexcluding
p6495
aVpromoter-enhancer
p6496
aVGDSP
p6497
aV1-binding
p6498
aVclassical
p6499
aVSL3-3
p6500
aVMZF-1
p6501
aVmetalloproteinases
p6502
aVRunx1
p6503
aVhyperproduction
p6504
aVproper
p6505
aVGal4
p6506
aVcaspases
p6507
aVimmunomodulator
p6508
aV-protein
p6509
aVcoregulation
p6510
aVhyperphosphorylated
p6511
aVOSM
p6512
aVestradiol
p6513
aVassuming
p6514
aVup-regulate
p6515
aVchains
p6516
aVCyclin
p6517
aVlipid
p6518
aVslight
p6519
aVremedies
p6520
aVhost
p6521
aValthough
p6522
aVionomycin/cyclosporin
p6523
aVpanel
p6524
aVabout
p6525
aVGeneration
p6526
aVneurons
p6527
aVJapan
p6528
aVintroduced
p6529
aV9-cis-RA
p6530
aVPit-1
p6531
aVCoCl2
p6532
aVTwo
p6533
aVchronic
p6534
aVtermini
p6535
aVfemale
p6536
aVPan-2
p6537
aVproteolysis
p6538
aV3.3-fold
p6539
aV1986
p6540
aVTCR-initiated
p6541
aVnonresponsiveness
p6542
aV97-kDa
p6543
aVimmunotherapy
p6544
aV1988
p6545
aVp-FoxO1
p6546
aVDex
p6547
aVRel/NF-kappaB
p6548
aV105-kD
p6549
aVglia
p6550
aVCalcineurin
p6551
aVestrogen-dependent
p6552
aVlymphopoiesis
p6553
aV20,21
p6554
aV/NFATc3
p6555
aVpreparations
p6556
aVrepeated
p6557
aVHsN3
p6558
aVDec
p6559
aVversatile
p6560
aVpartially
p6561
aVNF-kappaB/NF-AT
p6562
aVsterol
p6563
aV8/8
p6564
aVsecrete
p6565
aVN-Oct-factors
p6566
aVminutes
p6567
aVreticulocytes
p6568
aVImmunocytochemistry
p6569
aVIL2Rbeta
p6570
aVCD54
p6571
aV-p65
p6572
aVcytokines/LPS
p6573
aVwell-defined
p6574
aVperiods
p6575
aVhypo-acetylation
p6576
aVecotropic
p6577
aVproceeds
p6578
aV48
p6579
aV46
p6580
aV47
p6581
aV45
p6582
aVcoexpression
p6583
aV43
p6584
aV40
p6585
aVGy/min
p6586
aVmast
p6587
aVCellular
p6588
aVAltogether
p6589
aV85
p6590
aVtransfection
p6591
aVvariation
p6592
aVaugmentation
p6593
aV4D
p6594
aV4B
p6595
aV4C
p6596
aV4A
p6597
aVSKF525a
p6598
aVderegulates
p6599
aVprevalent
p6600
aVresolution
p6601
aVThus
p6602
aV3,4-dichloroisocoumarin
p6603
aVderegulated
p6604
aVDual
p6605
aVaugmented
p6606
aVLPS-binding
p6607
aVlimited
p6608
aVTargeting
p6609
aVcytosol
p6610
aVMi-2-HDAC
p6611
aVadherence-dependent
p6612
aVfacilities
p6613
aVRedox
p6614
aV110-kDa
p6615
aV40-fold
p6616
aVassembled
p6617
aVcytokines
p6618
aVpoorly
p6619
aVtherapeutics
p6620
aVSos2
p6621
aVSos1
p6622
aVmNFATc
p6623
aVresynthesized
p6624
aVintron
p6625
aVVD-responsive
p6626
aVAdditionally
p6627
aVG.
p6628
aVleukocytes
p6629
aVdivergent
p6630
aVnonresident
p6631
aVGR
p6632
aVGP
p6633
aV1p21-22
p6634
aVrise
p6635
aVGF
p6636
aVGC
p6637
aVupstream
p6638
aVmonkeys
p6639
aVencounter
p6640
aVGH
p6641
aV5-lipoxygenase
p6642
aVbelieved
p6643
aVGr
p6644
aVtransduce
p6645
aVinduction
p6646
aVinterleukin-1alpha
p6647
aVGy
p6648
aVAzeptin
p6649
aVtoxin-insensitive
p6650
aVGi
p6651
aVRo
p6652
aVzinc
p6653
aVconsistent
p6654
aVguidelines
p6655
aVdirect
p6656
aVheterozygotic
p6657
aVsurrounding
p6658
aVinfiltration
p6659
aVcovalent
p6660
aVneonate
p6661
aVmutational
p6662
aVclinicians
p6663
aVorganisms
p6664
aVselected
p6665
aVsupplied
p6666
aVStat3gamma
p6667
aVCREB-dependent
p6668
aVinjections
p6669
aVegr-1
p6670
aVTepoxalin
p6671
aVmicrosequencing
p6672
aVCML-T1
p6673
aVethanol
p6674
aVrepresented
p6675
aVleaves
p6676
aVchanged
p6677
aVSurprisingly
p6678
aVCpG
p6679
aVchanges
p6680
aVhydrophobic
p6681
aVmonocyte-mediated
p6682
aV-containing
p6683
aVJunB
p6684
aVJunD
p6685
aVperpetuated
p6686
aVBAY11-7085
p6687
aVprotein-2
p6688
aVPBMC
p6689
aVSRE/CArG
p6690
aVconvertase
p6691
aVwould
p6692
aVA-resistant
p6693
aVHut102
p6694
aVherbimycin
p6695
aVmediate
p6696
aVxenografts
p6697
aVE2A
p6698
aVRecombinant
p6699
aVPECAM-1
p6700
aVmM
p6701
aVcorrespondingly
p6702
aVfeed-forward
p6703
aVradical-generating
p6704
aVreal-time
p6705
aVleukemia-specific
p6706
aVmust
p6707
aVabundance
p6708
aVmg
p6709
aVml
p6710
aVmo
p6711
aVI-kappaBalpha
p6712
aVsubvolumes
p6713
aVmu
p6714
aVtritiated
p6715
aVroute
p6716
aV6-8-fold
p6717
aVCD95
p6718
aVhemoglobin
p6719
aVdiminished
p6720
aVpreserving
p6721
aVof/or
p6722
aVfludarabine
p6723
aVIIb
p6724
aVpathology
p6725
aVend
p6726
aVtopographical
p6727
aVtransendothelial
p6728
aV-3059
p6729
aVimplicating
p6730
aVlesions
p6731
aVfoliosa
p6732
aVtoxin
p6733
aVadjacent
p6734
aVtoxic
p6735
aVdPRL
p6736
aVIII
p6737
aVHCMV
p6738
aVarthritis
p6739
aVsubfragment
p6740
aVpolymerase
p6741
aVEpo-R
p6742
aV1,25
p6743
aVFludarabine-induced
p6744
aVTNFalpha
p6745
aVcrossreactive
p6746
aVhypotheses
p6747
aVoligomer
p6748
aVcomplexity
p6749
aV/tal
p6750
aVcorrelation
p6751
aVbase-pair
p6752
aVinterpretation
p6753
aVMn-SOD
p6754
aVembryogenesis
p6755
aVover
p6756
aVSelected
p6757
aVIkaros
p6758
aVapoptosis-inducing
p6759
aVstaining
p6760
aVdigest
p6761
aVSAC
p6762
aVSAA
p6763
aVPRRIII
p6764
aVHere
p6765
aV66-68
p6766
aVcompensatory
p6767
aVcondition
p6768
aV400
p6769
aVcalcineurin-binding
p6770
aVAclacinomycin
p6771
aVTax-responsive
p6772
aVphenotype
p6773
aVdeoxy-3
p6774
aVblots
p6775
aVdiseases
p6776
aVchromatography
p6777
aVprevented
p6778
aVCHO
p6779
aVColinear
p6780
aVIkappaB
p6781
aVInterleukin-12
p6782
aVInterleukin-13
p6783
aVInterleukin-10
p6784
aVDBF
p6785
aVFour
p6786
aVeach
p6787
aVGenomic
p6788
aVAdding
p6789
aVGGAA-3
p6790
aVG2/M
p6791
aVisotype-specific
p6792
aVcombining
p6793
aVprogesterone
p6794
aVphosphatases
p6795
aVposttransfection
p6796
aVFcR-mediated
p6797
aVdriving
p6798
aVwashed
p6799
aVvimentin
p6800
aVnewly
p6801
aVindependence
p6802
aVGCA
p6803
aVdown-regulation
p6804
aVTCF1
p6805
aVassociate
p6806
aV/ERK1
p6807
aVfree
p6808
aVStrains
p6809
aVoncogenesis
p6810
aVformation
p6811
aVbiological
p6812
aVconalbumin
p6813
aVStudies
p6814
aVAFR
p6815
aVwidespread
p6816
aVHiscott
p6817
aVTIMP
p6818
aVTACI
p6819
aVdays
p6820
aVmegakaryocyte
p6821
aVGCs
p6822
aVIkappaBalpha
p6823
aVsmokers
p6824
aVCaM-K
p6825
aVseparable
p6826
aValready
p6827
aVJorritsma
p6828
aVcoding
p6829
aVprimary
p6830
aVrank
p6831
aVAREs
p6832
aVLEF1/BCF1
p6833
aVwild-type
p6834
aVAU-DD
p6835
aVdysfunction
p6836
aVtheir
p6837
aV-expression
p6838
aVactivators
p6839
aVneutralizing
p6840
aVTRADD
p6841
aV0.05
p6842
aVconfirming
p6843
aVROI-NF-kappa
p6844
aVpercentage
p6845
aV-1,056
p6846
aVTime-course
p6847
aVtool
p6848
aVserve
p6849
aVfunction-related
p6850
aVTGACGTCA
p6851
aVinjected
p6852
aVInhibitor
p6853
aVG2
p6854
aV48,49
p6855
aVintegrin-dependent
p6856
aV-181
p6857
aVroles
p6858
aV-187
p6859
aVclasses
p6860
aVplasmid
p6861
aVmodulatory
p6862
aVfashion
p6863
aV23,49
p6864
aVGerm
p6865
aVnucleoproteins
p6866
aVrat
p6867
aVras
p6868
aVregulate
p6869
aVaureus
p6870
aVrelatively
p6871
aVSyk
p6872
aVthoroughly
p6873
aVisolated
p6874
aVpredominantly
p6875
aVDisruption
p6876
aVretinoblastoma
p6877
aVCAML
p6878
aVisolates
p6879
aVeffectiveness
p6880
aVdermal
p6881
aVthough
p6882
aVKo
p6883
aVcomplexes
p6884
aVcarcinoma
p6885
aVinterleukin-5
p6886
aVpotency
p6887
aVWang
p6888
aVpartition
p6889
aVflow
p6890
aVcalcineurin/NFAT
p6891
aVLT-betaR
p6892
aVIts
p6893
aVNF-kappaB-DNA
p6894
aVCD30
p6895
aV90-kDa
p6896
aVmanipulation
p6897
aVCD34
p6898
aVCD35
p6899
aVCD36
p6900
aVcarotid
p6901
aVanalogue
p6902
aVavailability
p6903
aVproposed
p6904
aVThereby
p6905
aVsituations
p6906
aVDNMT1
p6907
aVSubstitution
p6908
aV2D3-responsive
p6909
aVBis
p6910
aVCDNA
p6911
aVWEB
p6912
aVmixture
p6913
aVfluid
p6914
aVCo-immunoprecipitation
p6915
aVtuberculosis
p6916
aVreport
p6917
aVPtdIns-mCD14
p6918
aV8p12
p6919
aV15-lipoxygenase
p6920
aVbeads
p6921
aVMoore
p6922
aVdelta-globin
p6923
aVDNMTs
p6924
aV-2987
p6925
aVperoxide
p6926
aVinterspersed
p6927
aVester-induced
p6928
aVNF-kappaB-dependent
p6929
aVdimerization
p6930
aVMacrophage-differentiation
p6931
aVdetection
p6932
aVcontext-dependent
p6933
aVPI3K-dependent
p6934
aVovalbumin
p6935
aVmuB
p6936
aVmuM
p6937
aVcofactor
p6938
aVmut
p6939
aVcapacity
p6940
aVD-mediated
p6941
aVHIV-2
p6942
aVHIV-1
p6943
aVfinger
p6944
aVN-acetyl-cysteine
p6945
aVapproach
p6946
aVcross-linked
p6947
aVdiscovery
p6948
aVcolony-stimulating
p6949
aVoxidation
p6950
aVweak
p6951
aVhowever
p6952
aVTreg
p6953
aV36A
p6954
aVcontamination
p6955
aVoxidase
p6956
aVlipase
p6957
aVimprove
p6958
aVprotect
p6959
aVextracts
p6960
aVkinase-1
p6961
aVparticipating
p6962
aVIkBalpha
p6963
aVmildly
p6964
aVp300
p6965
aVhomozygotic
p6966
aVviruses
p6967
aVSamples
p6968
aVGAL4
p6969
aVpcDNA3
p6970
aVSouthern
p6971
aVbeen
p6972
aVquickly
p6973
aVHypoxic
p6974
aVHypoxia
p6975
aVretinoids
p6976
aVexpected
p6977
aVv-rel
p6978
aVL753F
p6979
aVdrugs
p6980
aVmaximally
p6981
aVphosphatidylinositol
p6982
aVn
aVCytokine-stimulated
p6983
aVGudmundsson
p6984
aVdifferentiation-specific
p6985
aVprocedure
p6986
aVR2
p6987
aVarachidonate
p6988
aVglycation
p6989
aVtumorigenesis
p6990
aVpreincubation
p6991
aVinteracts
p6992
aVcontaining
p6993
aVHNF-3alpha
p6994
aVmethyl-CpG-binding
p6995
aVsuggest
p6996
aVLDL-receptor
p6997
aVChemicon
p6998
aVcomplex
p6999
aVunrecognized
p7000
aVseveral
p7001
aVpeaks
p7002
aVaction
p7003
aVimmunohistochemical
p7004
aVHPC
p7005
aVcycle
p7006
aVshortly
p7007
aV-193
p7008
aVATTTGCAT
p7009
aVboxes
p7010
aVantiapoptotic
p7011
aVgreatest
p7012
aVmoieties
p7013
aVCoactivator
p7014
aVLEF/TCF
p7015
aVpossesses
p7016
aV5X
p7017
aVImmortalization
p7018
aVMethyl-CpG-binding
p7019
aVlysophosphatidylcholine
p7020
aVBio-Rad
p7021
aVMTBE
p7022
aVdopamine
p7023
aVHsp70
p7024
aVTNF-alpha
p7025
aV5A
p7026
aVmodulate
p7027
aVfunctionally
p7028
aV5B
p7029
aVmonitored
p7030
aV-3079
p7031
aVnon-erythroid
p7032
aVNFAT-like
p7033
aV-2010
p7034
aV5b
p7035
aVSP-A-dependent
p7036
aVD
aVFluorescence
p7037
aVbands
p7038
aVbreaks
p7039
aVdehydroepiandrosterone
p7040
aVIL-1-RA
p7041
aV-392
p7042
aVRXR
p7043
aVappearing
p7044
aVlymphoproliferation
p7045
aV50
p7046
aV53
p7047
aVspecific
p7048
aV-137
p7049
aVAgain
p7050
aV-135
p7051
aV-131
p7052
aV-130
p7053
aVHS
p7054
aVsuccessfully
p7055
aVHIV1-infected
p7056
aVHU
p7057
aVselectivity
p7058
aVMuch
p7059
aVescape
p7060
aVHF
p7061
aVPathway
p7062
aVHD
p7063
aVSCL
p7064
aVTSC2
p7065
aVReversible
p7066
aVHb
p7067
aVMNC
p7068
aVBlocking
p7069
aVcord
p7070
aVcore
p7071
aVhastens
p7072
aVPBS
p7073
aVdeleted
p7074
aV-signaling
p7075
aVFosB
p7076
aVpaclitaxel-induced
p7077
aVPBM
p7078
aVPBL
p7079
aVH9
p7080
aVepisomal
p7081
aVH2
p7082
aVH1
p7083
aVfenofibrate
p7084
aVVitro
p7085
aVH4
p7086
aVH5
p7087
aVmontana
p7088
aVensure
p7089
aVStill
p7090
aVGo-6976
p7091
aVpresence
p7092
aVreceptor/CD3
p7093
aVBR3
p7094
aVReceptors
p7095
aVup-regulating
p7096
aVTCR-stimulated
p7097
aVrelB
p7098
aVrelA
p7099
aVmultifunctional
p7100
aVcomparing
p7101
aVindispensable
p7102
aVtransform
p7103
aVsunlight
p7104
aVclass
p7105
aVB/I
p7106
aVneutrophil-specific
p7107
aVGM2
p7108
aVmetabolism
p7109
aVsynthesis
p7110
aVADT
p7111
aVmedium
p7112
aVattempted
p7113
aVdifferences
p7114
aVBRs
p7115
aVheat
p7116
aVsustained
p7117
aVTNFR-associated
p7118
aVremoved
p7119
aVLCLs
p7120
aVMitogen-mediated
p7121
aVportions
p7122
aVversions
p7123
aVvivo
p7124
aVphosphate
p7125
aV5-hydroxyeicosatetraenoic
p7126
aVco-opted
p7127
aVprematurely
p7128
aVVisceral
p7129
aVTRAFs
p7130
aVnM
p7131
aVIntroduction
p7132
aVMolt4
p7133
aVHM
p7134
aV768-bp
p7135
aVimmunopathology
p7136
aVmutagenized
p7137
aVActivator
p7138
aVcheck
p7139
aVbcr/abl
p7140
aVHigh
p7141
aVno
p7142
aVwhereas
p7143
aVwhen
p7144
aVSN-50
p7145
aVng
p7146
aVmetaphases
p7147
aVrapidity
p7148
aVtie
p7149
aVnt
p7150
aVVLA-4
p7151
aVnode
p7152
aVpicture
p7153
aVTRAF2
p7154
aVpermitting
p7155
aVInterferon-alpha
p7156
aVTRAF6
p7157
aVPaclitaxel
p7158
aVpreceding
p7159
aVsteroid/thyroid
p7160
aVimportin
p7161
aVNF-YA
p7162
aVlonger
p7163
aVinitiates
p7164
aVuncovered
p7165
aVSCD
p7166
aVTAFII250
p7167
aVnuclei
p7168
aVwinged-helix
p7169
aVIkappaB-alpha
p7170
aVanaphylatoxins
p7171
aVparticular
p7172
aVco-treatment
p7173
aVleads
p7174
aViNO
p7175
aV.05
p7176
aVfunctioned
p7177
aVremarkably
p7178
aVdisplaying
p7179
aVdiscern
p7180
aVinverse
p7181
aVantigen/APC
p7182
aVproliferation-associated
p7183
aVnonrandomly
p7184
aVenvironment
p7185
aVcharge
p7186
aVsequestered
p7187
aVpromoting
p7188
aVHePTP
p7189
aV3.2-fold
p7190
aVLPS-free
p7191
aVmethyl
p7192
aVadvantage
p7193
aVoligodeoxynucleotides
p7194
aVco-transfected
p7195
aVMyD88
p7196
aVAnaphylatoxins
p7197
aVHIV-1-LTR-driven
p7198
aVlevel
p7199
aVculminating
p7200
aVhomeostatic
p7201
aVLEF-1
p7202
aVTransient-transfection
p7203
aVaccumulation
p7204
aV6-h
p7205
aVPPARgamma
p7206
aVsuffices
p7207
aVRel
p7208
aVbacteria
p7209
aVRed
p7210
aVmolecule-mediated
p7211
aVstressful
p7212
aVp95vav
p7213
aVheat-inactivated
p7214
aVJAK2
p7215
aVphosphatase
p7216
aVSite-directed
p7217
aVretroviral
p7218
aV14,63-65
p7219
aVNF-E2
p7220
aV-L2
p7221
aV-L3
p7222
aV8-fold
p7223
aVgroups
p7224
aVTNF-induced
p7225
aV[
aVAgs
p7226
aVmacrophage-competent
p7227
aVunidentified
p7228
aVmale
p7229
aVhealthy
p7230
aV-LBD
p7231
aVCD16
p7232
aVCD14
p7233
aVCD15
p7234
aVCD13
p7235
aVthioredoxin
p7236
aVCD18
p7237
aVCD19
p7238
aVmimicked
p7239
aVsevenfold
p7240
aVinducing
p7241
aVdioxin
p7242
aVmodifying
p7243
aVrestimulation
p7244
aVTherefore
p7245
aVadenovirus-mediated
p7246
aVislet
p7247
aVtyrosines
p7248
aVOctamer
p7249
aVDifferences
p7250
aVmacrophage-CSF
p7251
aVherpes
p7252
aVmemory
p7253
aVstress-dependent
p7254
aVPI3K
p7255
aVThese
p7256
aVcytokine-producing
p7257
aVTime
p7258
aVNF-X2
p7259
aVcases
p7260
aVExpression
p7261
aVinsights
p7262
aVmodified
p7263
aVelectrochemistry
p7264
aVB/Rel
p7265
aVL32
p7266
aVisomer
p7267
aVrecultured
p7268
aVphosphorylate
p7269
aVperformed
p7270
aVtherapeutical
p7271
aVlipoproteins
p7272
aVrequirements
p7273
aVinheritance
p7274
aVproerythroblasts
p7275
aVheat-labile
p7276
aVS32
p7277
aV1
aVvital
p7278
aVH.
p7279
aVinterferon-stimulated
p7280
aVX-rays-induced
p7281
aVcocktail
p7282
aVquantified
p7283
aVclone
p7284
aVEMSAs
p7285
aVTHR
p7286
aVneutrophil-endothelial
p7287
aVCTLL-2
p7288
aVSP-B21
p7289
aVligated
p7290
aVpurification
p7291
aVTriciribine
p7292
aVJeang
p7293
aVuninduced
p7294
aVSmu/Sepsilon
p7295
aVFra-1
p7296
aVexclusive
p7297
aVconstituents
p7298
aVmainly
p7299
aVRARs
p7300
aVE2F-like
p7301
aV3H-PGG-Glucan
p7302
aVpurine-box/antigen
p7303
aVblocked
p7304
aVprocedures
p7305
aVsuboptimal
p7306
aVEffects
p7307
aVTP1
p7308
aVcoordinated
p7309
aVactivation-deficient
p7310
aVrapamycin
p7311
aVA/C
p7312
aVTPA
p7313
aVNIK
p7314
aVTPO
p7315
aVCD62L
p7316
aVevolution
p7317
aVSMX-NO
p7318
aVautosome
p7319
aVA/R
p7320
aVAdherence
p7321
aV26.4
p7322
aVHRF
p7323
aVDO11
p7324
aVTriggering
p7325
aVname
p7326
aVIL-18
p7327
aVeicosanoid
p7328
aVpaclitaxel
p7329
aVIL-15
p7330
aVIL-12
p7331
aVIL-13
p7332
aVIL-10
p7333
aVFibrin
p7334
aVanti-CD2-mediated
p7335
aVStat5a
p7336
aVmb-1
p7337
aVself-renewal
p7338
aVemTGACATCAem
p7339
aVmembrane-bound
p7340
aVerythrocytes
p7341
aVautoregulation
p7342
aVgaps
p7343
aVprotein-binding
p7344
aVSIVmac251
p7345
aVultimately
p7346
aVfactors
p7347
aVplasmids
p7348
aVcontradiction
p7349
aVoxidative-stress
p7350
aVimmuno-deficiency
p7351
aVU0126
p7352
aVpathogenic
p7353
aVRFX
p7354
aVtreatments
p7355
aVFACSCalibur
p7356
aVwell-recognized
p7357
aVMAD3
p7358
aVNF-kappaB/IkappaB
p7359
aVG1/S
p7360
aVSV40
p7361
aVmethylation
p7362
aVgranule
p7363
aVturn
p7364
aVplace
p7365
aVELK-1
p7366
aVorigin
p7367
aV-118
p7368
aV-116
p7369
aVrequirement
p7370
aVETS-like
p7371
aVreintroduction
p7372
aVcytokine-stimulated
p7373
aVantirheumatic
p7374
aVarray
p7375
aVgiven
p7376
aVGSK3beta
p7377
aVBiotec
p7378
aVfibrinogen
p7379
aVsnRNA-encoding
p7380
aVubiquitin-proteasome
p7381
aVplastic
p7382
aVstimulation
p7383
aVcarboxyl-terminus
p7384
aVreturns
p7385
aVconservation
p7386
aV.c-rel
p7387
aVSEA
p7388
aVSuch
p7389
aVSEM
p7390
aVData
p7391
aVexploring
p7392
aVreleases
p7393
aVorphan
p7394
aVreleased
p7395
aVpathogens
p7396
aVcopy
p7397
aVintrinsically
p7398
aVpopulation
p7399
aVROI-dependent
p7400
aVrequire
p7401
aVoligonucleotides
p7402
aVr
aVfunction/recruitment
p7403
aVoutcome
p7404
aVand
p7405
aVPMA/PHA
p7406
aVhead
p7407
aVdynamically
p7408
aVtrimer
p7409
aVHSP70B
p7410
aVmotif-specific
p7411
aVany
p7412
aVconversion
p7413
aV8.5-fold
p7414
aVCNI
p7415
aVtranscription
p7416
aVdesArg
p7417
aVFigureS1A
p7418
aVepsilon
p7419
aVSB202190
p7420
aVmicrog/ml
p7421
aVmultiple
p7422
aVinterferons
p7423
aVprecluded
p7424
aVGangliosides
p7425
aVMLR
p7426
aVMLV
p7427
aV17-bp
p7428
aVcleared
p7429
aVprobes
p7430
aVconsidered
p7431
aVlater
p7432
aVNF-kappaB-binding
p7433
aVNRE
p7434
aVplaying
p7435
aVBP1
p7436
aVPKC-dependent
p7437
aVpeptides
p7438
aVBP2
p7439
aVcortex
p7440
aV2.6-fold
p7441
aVparacrine
p7442
aV1:100
p7443
aVpermeable
p7444
aVdrastically
p7445
aVMutational
p7446
aVH-89
p7447
aV-163
p7448
aVResearch
p7449
aVcyclosporin
p7450
aVAllelic
p7451
aVhomology
p7452
aVmyristylation
p7453
aVco-repressor
p7454
aVB-2
p7455
aVp62c-fos
p7456
aVB-1
p7457
aVUT-7
p7458
aV-associated
p7459
aVC-independent
p7460
aVTCR-directed
p7461
aVLTB4
p7462
aVbypassing
p7463
aVH
aVssp
p7464
aVchamissonolid
p7465
aVresponding
p7466
aVSimilar
p7467
aVreveal
p7468
aVeosinophils
p7469
aVadhesion-dependent
p7470
aVdifferentiation-associated
p7471
aVpredicted
p7472
aVmapped
p7473
aVIL-1RI
p7474
aVubiquitinated
p7475
aVreveals
p7476
aVIL-12p40
p7477
aVLY294002
p7478
aValkaloids
p7479
aVT-cell
p7480
aV-FITC
p7481
aVCaMKIV
p7482
aVdA-dT
p7483
aVsurfaces
p7484
aVwortmannin
p7485
aVfails
p7486
aVdetect
p7487
aVreproducibly
p7488
aVinhibitory
p7489
aVways
p7490
aVsubsequent
p7491
aVreview
p7492
aVcirculating
p7493
aVinhibitors
p7494
aVITF-1
p7495
aVITF-2
p7496
aVspermatogonia
p7497
aVreproducible
p7498
aVglucocorticoid-repressible
p7499
aV-positive
p7500
aVhypophosphorylated
p7501
aVTrapoxin
p7502
aVarteries
p7503
aVTcells
p7504
aVI-kB
p7505
aVHemin
p7506
aVreaction
p7507
aVLSP-1
p7508
aVC3H-gld/gld
p7509
aVregion
p7510
aVtermed
p7511
aVpropagation
p7512
aVearly-induced
p7513
aVRIIIA
p7514
aVoligodeoxyribonucleotides
p7515
aVhepatotoxicity
p7516
aVFISH
p7517
aVcolony
p7518
aVperiod
p7519
aVpoly
p7520
aV60
p7521
aV62
p7522
aVc-Rel
p7523
aVCSFs
p7524
aVbox-specific
p7525
aVBut
p7526
aVIL-1alpha
p7527
aVExcess
p7528
aVhardly
p7529
aVpeaking
p7530
aVTogether
p7531
aVCAAX
p7532
aVEndotoxin
p7533
aV-interacting
p7534
aVprotocols
p7535
aVcase
p7536
aV6A
p7537
aV6B
p7538
aV6C
p7539
aVpredominately
p7540
aVhemin-mediated
p7541
aVpromoter-driven
p7542
aVrefractory
p7543
aVsuboptimally
p7544
aVirrespective
p7545
aVprocoagulant
p7546
aVcoupled
p7547
aVIl10
p7548
aVHTLV-1-associated
p7549
aVdiscrepancy
p7550
aVheteromers
p7551
aVontogeny
p7552
aVconverts
p7553
aVALD-induced
p7554
aVprooxidants
p7555
aVparticipant
p7556
aVdistributions
p7557
aV95-kDa
p7558
aVCV3988
p7559
aVCACCC
p7560
aVGrb2
p7561
aVturnover-degradation
p7562
aVevents
p7563
aVstatus
p7564
aVEts
p7565
aVlymphomas
p7566
aVMVEC
p7567
aVpyruvate
p7568
aVSignal
p7569
aVIV
p7570
aVII
p7571
aVdevoid
p7572
aVIK
p7573
aVIL
p7574
aVp-mTOR
p7575
aVfootprint
p7576
aVchanging
p7577
aVIE
p7578
aVNFAT
p7579
aVantibodies
p7580
aVPhosphatidylinositides
p7581
aVmodes
p7582
aVcytosolic
p7583
aVAbundant
p7584
aVIs
p7585
aVIt
p7586
aVnon-lineage-specific
p7587
aVwithout
p7588
aVcomponents
p7589
aVIn
p7590
aVinability
p7591
aVmodel
p7592
aVbodies
p7593
aVIf
p7594
aVtransactivate
p7595
aVtip
p7596
aV2C
p7597
aVactions
p7598
aVstroma
p7599
aVGIRE
p7600
aVkill
p7601
aVdifferentiation
p7602
aVepithelia
p7603
aVC-terminus
p7604
aVForkhead
p7605
aVblot
p7606
aVearly-lytic-cycle
p7607
aVseems
p7608
aVextracellular-signal
p7609
aVsamples
p7610
aVdisrupt
p7611
aVantitumour
p7612
aVester-inducible
p7613
aVHMG-I
p7614
aVMany
p7615
aVCTG-motif
p7616
aVCompetent
p7617
aVconfined
p7618
aVReagents
p7619
aVCD4
p7620
aVIFN-regulated
p7621
aVErythropoietin
p7622
aVparticle
p7623
aVNF-AT-driven
p7624
aVreduces
p7625
aVIFNalpha-induced
p7626
aVhormone-responsive
p7627
aVEnhancement
p7628
aVInsertion
p7629
aVAntigen
p7630
aVhormone-inducible
p7631
aVBCA-method
p7632
aVdifferentially
p7633
aVreduced
p7634
aValpha-tcp
p7635
aVsequencer
p7636
aVTRAF1
p7637
aVinjury/activation
p7638
aVSince
p7639
aVphosphatidylethanolamine
p7640
aVcompetition
p7641
aVlabeling
p7642
aVlow-density
p7643
aVintact
p7644
aVFGFs
p7645
aVprovided
p7646
aVup-regulates
p7647
aV34-fold
p7648
aVup-regulated
p7649
aVinterleukin-1beta
p7650
aVIFN-alpha5
p7651
aVprovides
p7652
aVA/protein
p7653
aVIntranuclear
p7654
aVTR2
p7655
aVyielded
p7656
aVDexamethasone
p7657
aVmulti-organ
p7658
aVA-C
p7659
aV2c
p7660
aVTRE
p7661
aVTRX
p7662
aVG-50
p7663
aVF1-reverse
p7664
aVATCC
p7665
aVabsorbance
p7666
aVTRP
p7667
aVon
p7668
aVHTB
p7669
aVof
p7670
aVparalysis
p7671
aVdiscussed
p7672
aVmutually
p7673
aVconcentrations
p7674
aVor
p7675
aVproto-oncogene
p7676
aVMODY
p7677
aV-88
p7678
aVinterfacing
p7679
aV-87
p7680
aV-81
p7681
aVStimulation
p7682
aVaccounts
p7683
aVdetermine
p7684
aVabrogate
p7685
aVferric
p7686
aVAssay
p7687
aVstrictly
p7688
aVthere
p7689
aVhumoral
p7690
aVcultured
p7691
aV7TD1
p7692
aVdetectable
p7693
aVcalcium-signal
p7694
aVcultures
p7695
aVhemoglobinization
p7696
aVEL4
p7697
aVTrans-activation
p7698
aVCoupling
p7699
aVjun
p7700
aVanti-apoptosis
p7701
aVTh2-specific
p7702
aVCotransfection
p7703
aVmolecule-1
p7704
aVrelate
p7705
aVpromote
p7706
aVFBS
p7707
aVterminus
p7708
aVTruncated
p7709
aVlysozyme
p7710
aVesterase
p7711
aVgranzymes
p7712
aVCoordination
p7713
aVcomplexing
p7714
aVstrongly
p7715
aVPOS-1
p7716
aVautoimmune
p7717
aV-173
p7718
aV-172
p7719
aVmeasurement
p7720
aVmetastasis
p7721
aV-176
p7722
aVtogether
p7723
aVcontrolled
p7724
aVencompass
p7725
aVcollagenase-1
p7726
aV4.5
p7727
aVManLAM
p7728
aV4.3
p7729
aVautocrine
p7730
aVhomodimerization
p7731
aV5
aVPGE2-mediated
p7732
aVB-site
p7733
aVMEK-dependent
p7734
aVmegakaryopoiesis
p7735
aVinterrupts
p7736
aVimmunity
p7737
aVaberrancies
p7738
aVproliferate
p7739
aVCNS
p7740
aVseparate
p7741
aVplasmacytomas
p7742
aVincludes
p7743
aVpicogram
p7744
aVnucleus
p7745
aVICS
p7746
aV5-day
p7747
aVstocks
p7748
aVCD3-mediated
p7749
aVhigh-antigen-dose-induced
p7750
aVcytotoxicity
p7751
aVclinically
p7752
aVCTLA-4
p7753
aVprotein/activation
p7754
aVcurve
p7755
aVlyse
p7756
aVinternalized
p7757
aVmigrated
p7758
aVall
p7759
aVplasmacytoma
p7760
aVlack
p7761
aVc-ErbB
p7762
aVmigrates
p7763
aVfollow
p7764
aVcell-mediated
p7765
aVP-selectin
p7766
aVsynthetic
p7767
aVG0/G1
p7768
aVdifferentiation/activation
p7769
aVsubjected
p7770
aVremoval
p7771
aVmatrix
p7772
aVprogram
p7773
aVvWf
p7774
aVactivities
p7775
aVbelonging
p7776
aVvirtue
p7777
aVfar
p7778
aVfas
p7779
aVinduce
p7780
aVheme
p7781
aVmuteins
p7782
aVtreating
p7783
aVimmunosuppressant
p7784
aVunlike
p7785
aVinducibility
p7786
aVstimulus
p7787
aVevaluation
p7788
aVDOX-treated
p7789
aVTesting
p7790
aVBinding
p7791
aVprolonged
p7792
aVNPC
p7793
aVseropositivity
p7794
aVNK-derived
p7795
aVintegrin
p7796
aVrats
p7797
aVmonomorphic
p7798
aVOct-2a
p7799
aVaberrantly
p7800
aVsynergy
p7801
aVrate
p7802
aVdesign
p7803
aV8,45
p7804
aVdeoxyribonuclease
p7805
aVfunctioning
p7806
aVwhat
p7807
aVimported
p7808
aVfusing
p7809
aV2A-sensitive
p7810
aVversion
p7811
aVinvivo
p7812
aVMice
p7813
aVU/ml
p7814
aVproteasome-mediated
p7815
aVcoimmunoprecipitation
p7816
aVNFAT-containing
p7817
aVEC
p7818
aVobserving
p7819
aVpathway-dependent
p7820
aVCommunication
p7821
aVallows
p7822
aVCREB-1
p7823
aVextremes
p7824
aVsaimiri
p7825
aVrepressor
p7826
aVlysates
p7827
aVDecreased
p7828
aVNF-IL-2B
p7829
aVaberrant
p7830
aVOverall
p7831
aVICRF-193-treated
p7832
aVDCFH-DA
p7833
aVratio-dependent
p7834
aVminor
p7835
aVimmunophilin
p7836
aVdefinition
p7837
aVantibiotics
p7838
aVknown
p7839
aVS-adenosylhomocysteine
p7840
aVserines
p7841
aVpostinduction
p7842
aVtrapping
p7843
aVHD1
p7844
aVerratum
p7845
aVendocytosis
p7846
aVmonospecific
p7847
aVDifferent
p7848
aVionophores
p7849
aVEGFP
p7850
aVIncubation
p7851
aVcytokine-specific
p7852
aVtransduction
p7853
aVinfluenced
p7854
aVHLA-DRA
p7855
aVintegrin-ligand
p7856
aVgoal
p7857
aVperforin
p7858
aVrather
p7859
aV-HA
p7860
aVPRRII
p7861
aVinfluences
p7862
aVactivator
p7863
aVexplains
p7864
aVTufts
p7865
aVubiquitous
p7866
aVAkv
p7867
aVAkt
p7868
aVreflect
p7869
aVcis-regulatory
p7870
aVinfects
p7871
aVcell-type-independent
p7872
aVTcf-1
p7873
aVconstitutively
p7874
aVshort
p7875
aVSplitting
p7876
aVmedia-stimulated
p7877
aVspecifying
p7878
aVTNFRI
p7879
aVturnover
p7880
aVTLR-dependent
p7881
aVimmunofluorescent
p7882
aVdeveloped
p7883
aVmilliliter
p7884
aVanti-inflammatory
p7885
aV-540
p7886
aVOct
p7887
aVnGRE
p7888
aVFull
p7889
aVsusceptible
p7890
aVinterleukin-1
p7891
aVinterleukin-2
p7892
aVtrans-acting
p7893
aVinterleukin-4
p7894
aVbryostatin
p7895
aVinterleukin-6
p7896
aVinterleukin-7
p7897
aVinterleukin-8
p7898
aVsynthesize
p7899
aVmight
p7900
aValter
p7901
aVgenerously
p7902
aVpim-1
p7903
aVL
aVframework
p7904
aVErk
p7905
aVRaf
p7906
aVRac
p7907
aVcharacterizes
p7908
aVpresented
p7909
aVsequester
p7910
aVRas
p7911
aVinherent
p7912
aVcharacterized
p7913
aVweight
p7914
aVgeneration
p7915
aVmonocyte/B-cell-specific
p7916
aV40,000
p7917
aVdouble-transgenic
p7918
aVMore
p7919
aVMurine
p7920
aVFCS-containing
p7921
aVdiscrete
p7922
aVkappaB-alpha
p7923
aVinduces
p7924
aVinducer
p7925
aVTNF-mediated
p7926
aVadhere
p7927
aVc-Myc
p7928
aVhormone-mediated
p7929
aVMAPk
p7930
aVCombinations
p7931
aVFigure1B
p7932
aVFigure1A
p7933
aVinduced
p7934
aVremodeling
p7935
aVdysregulation
p7936
aVstop-codons
p7937
aVothersignaling
p7938
aVMutagenesis
p7939
aVsolvent/media
p7940
aVciprofloxacin
p7941
aV1-7
p7942
aV-1609
p7943
aVgenerate
p7944
aVlag
p7945
aVdexamethasone
p7946
aVpreincubated
p7947
aVantigenic
p7948
aVPartial
p7949
aVNF-kappaB-luciferase
p7950
aVconcatamers
p7951
aV/G0S3
p7952
aVSoluble
p7953
aVN-Oct
p7954
aVconsequence
p7955
aVanti-CD3-stimulated
p7956
aVTF-ELISA
p7957
aVWigdahl
p7958
aVabrogates
p7959
aVmCD14
p7960
aVmonolayers
p7961
aVwell-known
p7962
aVdefects
p7963
aVabrogated
p7964
aVimpairing
p7965
aVtemperature
p7966
aVleading
p7967
aVinteract
p7968
aVpronouncedly
p7969
aVdownregulate
p7970
aVrecovered
p7971
aVTLR
p7972
aVAntibodies
p7973
aVoption
p7974
aVrelieved
p7975
aVuncommonly
p7976
aVimprinted
p7977
aV5-fold
p7978
aVprototypic
p7979
aValbeit
p7980
aVHA-1004
p7981
aVpigmentation
p7982
aVamebiasis
p7983
aVdouble
p7984
aVNH2Cl-treated
p7985
aVExogenous
p7986
aVTSH-R
p7987
aVpairwise
p7988
aVdoubly
p7989
aVMAPK
p7990
aVIFN-alpha/beta
p7991
aVv-abl
p7992
aVexert
p7993
aVmultimerizing
p7994
aVdepleted
p7995
aVremodel
p7996
aVnucleosome
p7997
aVARRE
p7998
aV7C
p7999
aV7B
p8000
aVImmunochemical
p8001
aVunprocessed
p8002
aVinterferes
p8003
aVtheses
p8004
aVEts1
p8005
aVGermany
p8006
aVsubstitute
p8007
aV13q14
p8008
aVfinding
p8009
aVElk-1
p8010
aVTcR-derived
p8011
aVPtdIns
p8012
aVadded
p8013
aVmeasures
p8014
aVreach
p8015
aVsteady-state
p8016
aVColigation
p8017
aV73
p8018
aV72
p8019
aV71
p8020
aV70
p8021
aVmeasured
p8022
aV79
p8023
aVstringency
p8024
aVBacterially
p8025
aVUnexpectedly
p8026
aV3/CRE
p8027
aVhindrance
p8028
aV3-kinase
p8029
aVcoincided
p8030
aVEBV-induced
p8031
aVnon-cell-type-specific
p8032
aVdifferentiate
p8033
aVDZA
p8034
aVoctanucleotide
p8035
aVcdc
p8036
aVmyelopoiesis
p8037
aVcdk
p8038
aVantiperforin
p8039
aVPTF-Oct-1-DNA
p8040
aVisogenic
p8041
aV-transcribing
p8042
aVvaso-occlusion
p8043
aVincreasingly
p8044
aVmonochloramine
p8045
aVBM
p8046
aVBV-173
p8047
aVBS-I
p8048
aVJAK3
p8049
aVproteasome
p8050
aVanti-Pol-II
p8051
aVTIS
p8052
aVcontinuum
p8053
aVPHA
p8054
aV-150
p8055
aVinvestigate
p8056
aV-152
p8057
aV-155
p8058
aVactivity
p8059
aVBP
p8060
aVradiation-induced
p8061
aVintergenic
p8062
aVcase-control
p8063
aValanine
p8064
aVachieved
p8065
aVdeclines
p8066
aV2-3-fold
p8067
aVdefense
p8068
aV2-fold
p8069
aVare
p8070
aV2.3
p8071
aV2.0
p8072
aVarm
p8073
aVone-sixth
p8074
aVTNF-stimulated
p8075
aVefficacious
p8076
aVTregs
p8077
aVdistinctive
p8078
aVlibraries
p8079
aVHsp
p8080
aVvarious
p8081
aVco-immobilized
p8082
aVCD3-TCR
p8083
aVinterferon-gamma
p8084
aVhistones
p8085
aVnumerous
p8086
aV-109
p8087
aVrecently
p8088
aVSTAT-dependent
p8089
aVcalcium-calmodulin-dependent
p8090
aVinitially
p8091
aVTransgenic
p8092
aVsole
p8093
aVMHC
p8094
aVJanus
p8095
aVrapid
p8096
aVremaining
p8097
aVwater
p8098
aVc
aVANG
p8099
aVdown-modulation
p8100
aVCollectively
p8101
aVbecame
p8102
aVcontext
p8103
aVProteolysis
p8104
aVregulates
p8105
aVreasons
p8106
aVsepsis
p8107
aVpX
p8108
aVharbour
p8109
aVkey
p8110
aVregulated
p8111
aVpentoxifylline
p8112
aVpH
p8113
aVlivers
p8114
aVdecline
p8115
aVubiquination
p8116
aVcross-talking
p8117
aVdue
p8118
aVstrategy
p8119
aVreduction
p8120
aVmcl-1
p8121
aVLMP1
p8122
aVLMP2
p8123
aVpi
p8124
aVtepoxalin
p8125
aVEosinophils
p8126
aVN-formyl-methionyl-leucyl-phenylalanine
p8127
aVexplants
p8128
aVBs
p8129
aVFigureS5A
p8130
aVFigureS5B
p8131
aVConcomitant
p8132
aVevaluated
p8133
aVprecursor
p8134
aVbehavior
p8135
aVidentical
p8136
aVconcurrently
p8137
aVgel
p8138
aVTip
p8139
aVdisappointing
p8140
aVIl4
p8141
aVobstacle
p8142
aVeight-fold
p8143
aVimmunosuppression
p8144
aVtwofold
p8145
aVstimulates
p8146
aVlengths
p8147
aVcytometry
p8148
aVstimulated
p8149
aVdermis
p8150
aVdeletion
p8151
aV9
aVprerequisite
p8152
aVhigher
p8153
aVtransrepressive
p8154
aVcosignaling
p8155
aV20-kDa
p8156
aVrobust
p8157
aVRaf1
p8158
aVimmunofluorescence
p8159
aVCon
p8160
aVNO-induced
p8161
aVDNAs
p8162
aVAiolos
p8163
aVnonstimulated
p8164
aVchickens
p8165
aVanalysis
p8166
aVOX-40
p8167
aVExamples
p8168
aVhyporesponsiveness
p8169
aVmitogens
p8170
aVabilities
p8171
aVmobilized
p8172
aVDelta19
p8173
aVcompetitive
p8174
aVinactive
p8175
aVIFP53
p8176
aVTaken
p8177
aVmove
p8178
aVloading
p8179
aVi.e.
p8180
aVdyn/cm2
p8181
aVexclusively
p8182
aVDanazol
p8183
aVimpairs
p8184
aVheme-responsive
p8185
aVInjection
p8186
aVbcl2
p8187
aVsub-unit
p8188
aVSialoadhesin
p8189
aV2Ct
p8190
aVaggregation
p8191
aVpreexist
p8192
aVetoposide
p8193
aVimmediate-early
p8194
aVEts-family
p8195
aV20-base
p8196
aVimmunology
p8197
aVCyclinD2
p8198
aVsubfamily
p8199
aVmodifications
p8200
aVsequesters
p8201
aVG28-5
p8202
aVMODY3
p8203
aVdeleterious
p8204
aVMODY1
p8205
aVrearrangement
p8206
aVCRE-mediated
p8207
aVessential
p8208
aVIEXC29S
p8209
aVhallmark
p8210
aVLigand
p8211
aVneuro-immuno
p8212
aVcytopathic
p8213
aVeBioscience
p8214
aVunderstood
p8215
aVDNA-protein
p8216
aVtemperature-sensitive
p8217
aVgradually
p8218
aVplatelet
p8219
aV5.7-fold
p8220
aVadoptive
p8221
aVVirus
p8222
aVCMAT
p8223
aVfragments
p8224
aVmitotic
p8225
aVcontrasting
p8226
aVTreg-specific
p8227
aVnonfunctional
p8228
aVEpo
p8229
aVleukostasis
p8230
aV7-fold
p8231
aVintense
p8232
aVvaccine
p8233
aVacetyl-transferase
p8234
aVphytohemagglutin
p8235
aVICAM
p8236
aVleukaemia
p8237
aVglucocorticoid-induced
p8238
aVrange
p8239
aV48-hr
p8240
aVgamma
p8241
aVthrombospondin
p8242
aVsignificant
p8243
aVunnoticed
p8244
aVcdk6
p8245
aVoxidized
p8246
aVkappaB-dependent
p8247
aVPTPase
p8248
aVquestion
p8249
aVfast
p8250
aVhepatocyte
p8251
aVFACS-isolated
p8252
aVEvery
p8253
aVsubregions
p8254
aVtrifluoromethylketone
p8255
aVankyrin
p8256
aVsections
p8257
aVRNAzol-kit
p8258
aVU1
p8259
aVfootprinting
p8260
aVsupershifts
p8261
aVdelta
p8262
aVContribution
p8263
aVsite-mediated
p8264
aVraising
p8265
aVLoad
p8266
aVconsist
p8267
aVcharacteristic
p8268
aVBfl-1
p8269
aVIL-12-induced
p8270
aVvisible
p8271
aVexport
p8272
aVcalled
p8273
aVassociated
p8274
aVantiatherosclerotic
p8275
aVquantification
p8276
aVassociates
p8277
aVcalcium-mediated
p8278
aVIL-4STAT
p8279
aVgre
p8280
aVdictating
p8281
aVgenerates
p8282
aVSer184
p8283
aVgenerated
p8284
aVTNF
p8285
aVallowing
p8286
aVdelineation
p8287
aVfluorescence
p8288
aVSequence
p8289
aVB-directed
p8290
aVweights
p8291
aVintentional
p8292
aVRetinoid-like
p8293
aVonce
p8294
aVCCK-8-induced
p8295
aVB-cell
p8296
aVHpaII
p8297
aVresistance
p8298
aVtumours
p8299
aVAPC-driven
p8300
aVcontributions
p8301
aVhormone-dependent
p8302
aVmonomer
p8303
aVIntegrin-mediated
p8304
aVimmortalization
p8305
aVsupershift
p8306
aVstably
p8307
aVHSF/Hsp70-mediated
p8308
aVstable
p8309
aVinclude
p8310
aVdramatically
p8311
aVmutation
p8312
aVoverlaps
p8313
aVadenoviral
p8314
aVIC50
p8315
aVgliotoxin-inhibitable
p8316
aVProgression
p8317
aVGSSG/GSH
p8318
aVengineered
p8319
aVreadout
p8320
aV-specific
p8321
aVP
aVCD28RE
p8322
aVLPS-inducible
p8323
aVpromoter-bound
p8324
aVLAI
p8325
aVLAK
p8326
aVCompetition
p8327
aVLAP
p8328
aVredox-regulated
p8329
aVconcluded
p8330
aVlimitations
p8331
aVFunctions
p8332
aVsmaller
p8333
aVDTC
p8334
aVOKM5
p8335
aVfold
p8336
aVdysregulated
p8337
aVco-transfections
p8338
aVacid
p8339
aVstaurosporine
p8340
aVmononuclear
p8341
aVreceptor-mediated
p8342
aVStatG
p8343
aV-treated
p8344
aVintermediate-release
p8345
aVStat6
p8346
aVStat5
p8347
aVStat3
p8348
aVchose
p8349
aVdegree
p8350
aVMG132
p8351
aVexplore
p8352
aVseparation
p8353
aVfermentans
p8354
aVtwentyfold
p8355
aVCBF
p8356
aVlectins
p8357
aVdegradative
p8358
aVPuB1
p8359
aVleaving
p8360
aVsuggests
p8361
aVCBP
p8362
aVROR-gammat
p8363
aVdefinitively
p8364
aVHigh-level
p8365
aVMOPC
p8366
aVexaminations
p8367
aVRetinoic
p8368
aVDMDTC
p8369
aVRetinoid
p8370
aVN-acetyl-L-cysteine
p8371
aVmessengers
p8372
aVSurvanta
p8373
aVRAG-1
p8374
aVRAG-2
p8375
aVbindings
p8376
aV2,3
p8377
aVsegregating
p8378
aVuse
p8379
aVfrom
p8380
aVhypoxia-induced
p8381
aVtransformation-related
p8382
aVfew
p8383
aVdepicted
p8384
aVexamination
p8385
aVantioxidants
p8386
aVpZVB10
p8387
aVdetail
p8388
aVinfection
p8389
aVcooperate
p8390
aVvirulence
p8391
aV/anti-CD
p8392
aVGliotoxin
p8393
aVwomen
p8394
aVparalleled
p8395
aVALL
p8396
aVaugment
p8397
aVCharacterization
p8398
aVALD
p8399
aVendotoxin-mediated
p8400
aVPMA/Iono-stimulated
p8401
aVstabilizes
p8402
aVtrophoblasts
p8403
aVmetastases
p8404
aVNTF
p8405
aVtat
p8406
aVlipid-soluble
p8407
aVimpedes
p8408
aVNorthern
p8409
aVIRAK
p8410
aV0.1
p8411
aV0.3
p8412
aV0.2
p8413
aVtax
p8414
aVfas-ligand
p8415
aV0.6
p8416
aVOct-1
p8417
aVOct-2
p8418
aVOct-4
p8419
aVarchetypal
p8420
aVOct-6
p8421
aVV3-BH10
p8422
aVserial
p8423
aVmade
p8424
aVsyndrome
p8425
aVbcr-abl
p8426
aVsix
p8427
aVoccur
p8428
aVunquestionably
p8429
aVinstead
p8430
aVTAR-deleted
p8431
aVPMA-mediated
p8432
aVlesion
p8433
aVhelenalin
p8434
aVHence
p8435
aVAltered
p8436
aVoncogenicity
p8437
aVdegranulation
p8438
aVlight
p8439
aVpromoter-binding
p8440
aVTenen
p8441
aViono
p8442
aVnonendocrine
p8443
aVallergen
p8444
aVCa2
p8445
aVchimeras
p8446
aV133
p8447
aVwhilst
p8448
aV130
p8449
aVpombe
p8450
aVnoncytoxic
p8451
aV-1011
p8452
aVself-tolerance
p8453
aVIkappaBbeta
p8454
aV,4
p8455
aVtransferase
p8456
aVpermanent
p8457
aV1-reverse
p8458
aVinconsistencies
p8459
aVclusters
p8460
aVdefining
p8461
aVRXR-specific
p8462
aVChemoattractants
p8463
aV14q11
p8464
aVimpaired
p8465
aVprofound
p8466
aVreceptor
p8467
aV/LFA
p8468
aVCytolytic
p8469
aVrelated
p8470
aVNext
p8471
aV89
p8472
aVinterplay
p8473
aVour
p8474
aV80
p8475
aVbioinactivation
p8476
aVout
p8477
aVrestimulated
p8478
aVDAPK
p8479
aVXISTE
p8480
aVCTCACCCTAAACTCAAAACTAAAAAC-3
p8481
aVpentoxifylline-mediated
p8482
aVsupports
p8483
aVimmunohistochemistry
p8484
aVThis
p8485
aVmaintains
p8486
aVAnti-CD40
p8487
aVtransrepression
p8488
aVPhoQ
p8489
aVPhoP
p8490
aVpancreatic
p8491
aVT-cell-receptor-mediated
p8492
aVsegregated
p8493
aVZhang
p8494
aVfeasible
p8495
aVLPS-treated
p8496
aVNFkappaB-site
p8497
aVhence
p8498
aVembryo
p8499
aVacid-reactive
p8500
aV-500
p8501
aVKSHV
p8502
aVMartin
p8503
aVK.
p8504
aVstimulus-induced
p8505
aVAccordingly
p8506
aVShoemaker
p8507
aVRasN17
p8508
aVIncreased
p8509
aVTNFR
p8510
aVunknown
p8511
aVHSF2-beta
p8512
aVantiinflammatory
p8513
aVimmunoassay
p8514
aVIncreases
p8515
aVvirus-host
p8516
aVanaemia
p8517
aVchemotherapy
p8518
aVstaphylococci
p8519
aVKd
p8520
aVFox
p8521
aVreversed
p8522
aVKinetics
p8523
aV65K
p8524
aVE2F-dependent
p8525
aVslides
p8526
aVreflecting
p8527
aV315
p8528
aVconstituent
p8529
aVreceptor-induced
p8530
aVreverses
p8531
aVstimulus-dependent
p8532
aVKB
p8533
aVbHLH-PAS
p8534
aVBLUC
p8535
aVisolation
p8536
aVlimiting
p8537
aVpatients
p8538
aVhypoxia-evoked
p8539
aVGal/ER
p8540
aV1.5
p8541
aVrapamycin-mediated
p8542
aV1.7
p8543
aV1.0
p8544
aV1.1
p8545
aV1.3
p8546
aV1.8
p8547
aV1.9
p8548
aVJNK/SAPK
p8549
aVlinked
p8550
aVallergies
p8551
aVligation-mediated
p8552
aVacid-responsive
p8553
aVpolarization
p8554
aVFigure5D
p8555
aVFigure5C
p8556
aVwhich
p8557
aVfactor-induced
p8558
aVdiacylglycerol
p8559
aV=
aVIL-12-mediated
p8560
aV/OCA-B
p8561
aVbiologic
p8562
aVeukaryotes
p8563
aVnucleotide
p8564
aVwhy
p8565
aVGIG18
p8566
aVCo-stimulation
p8567
aVneighboring
p8568
aVensues
p8569
aVimmunophenotype
p8570
aVPNU156804
p8571
aVdecidual/lymphoid
p8572
aVLef/Tcf
p8573
aVGSSG
p8574
aVA-sensitive
p8575
aV1-mediated
p8576
aVneurotoxin
p8577
aVmicroM
p8578
aVmicroB
p8579
aVchicken
p8580
aVcortivazol
p8581
aVnanomolar
p8582
aVchloride-induced
p8583
aVYY-1
p8584
aVderepress
p8585
aVmaturation/differentiation
p8586
aVfactor-B
p8587
aVmicrol
p8588
aVpostulated
p8589
aVmenadione
p8590
aVmicrog
p8591
aVproviral
p8592
aVfactor-1
p8593
aVACT-1
p8594
aVdisplayed
p8595
aVPKC-induced
p8596
aVGPA
p8597
aVTHP
p8598
aVones
p8599
aVGPX
p8600
aVpre-culture
p8601
aVLIM-only
p8602
aVdifferential
p8603
aVoptimally
p8604
aVascertain
p8605
aVcleavage
p8606
aVNIP
p8607
aVview
p8608
aV-3090
p8609
aVbactericidal/permeability-increasing
p8610
aVnitrogen
p8611
aVacquired
p8612
aVClonality
p8613
aVmodule
p8614
aVp24
p8615
aVp27
p8616
aVpseudo-tumor
p8617
aVDelineation
p8618
aVserine/threonine
p8619
aV293T
p8620
aVvariably
p8621
aVdiverge
p8622
aVfavor
p8623
aV4494
p8624
aVidentification
p8625
aV4490
p8626
aVHTLV-I
p8627
aVHigher
p8628
aVCycle
p8629
aVRT
p8630
aVHTLV-1
p8631
aVlipopolysaccharide-induced
p8632
aVability
p8633
aVopening
p8634
aVanalogues
p8635
aVDifferential
p8636
aVneonatal
p8637
aVhypothesis
p8638
aVprobing
p8639
aV2.5-kilobase
p8640
aVLCR
p8641
aVRNA
p8642
aVLCL
p8643
aVmutating
p8644
aVsequenced
p8645
aVunclear
p8646
aVstructure-activity
p8647
aVwall
p8648
aVantioxidant
p8649
aVorientation-independent
p8650
aVCD5
p8651
aVFinally
p8652
aVCD7
p8653
aVCD2
p8654
aVCD3
p8655
aVpulmonary
p8656
aVCD8
p8657
aVSTAT6
p8658
aVSTAT5
p8659
aVSTAT4
p8660
aVSTAT3
p8661
aVSTAT2
p8662
aVSTAT1
p8663
aVVP16
p8664
aVU-937
p8665
aVcross-linking
p8666
aVJun
p8667
aVresponds
p8668
aVActive
p8669
aVhigh-affinity
p8670
aVlipopolysacharide
p8671
aVmonoclonal
p8672
aVArg-Gly-Asp
p8673
aVprotein-protein
p8674
aVdeterminant
p8675
aVtruncations
p8676
aVOBF
p8677
aVsufficient
p8678
aVensuring
p8679
aVconfers
p8680
aVUsing
p8681
aVVCAM
p8682
aVpresent
p8683
aVreverse
p8684
aV-195
p8685
aVSTATs
p8686
aVsubsets
p8687
aVherpesvirus
p8688
aVwill
p8689
aVdisulfide-linked
p8690
aVphagocyte
p8691
aVMRNA
p8692
aVphenotypic
p8693
aV~
aVpleiotropic
p8694
aVmutant
p8695
aVmotif
p8696
aVthiobarbituric
p8697
aVthus
p8698
aVepitopes
p8699
aVdual
p8700
aVdisparate
p8701
aVperhaps
p8702
aVribosome
p8703
aVtransmembrane
p8704
aVcross
p8705
aVmember
p8706
aVFibroblast
p8707
aVfactor-beta
p8708
aVchromosome
p8709
aVSuppression
p8710
aVBrdU
p8711
aVdifficult
p8712
aVThird
p8713
aVMTS
p8714
aVBiphasic
p8715
aVStates
p8716
aVperi-kappa
p8717
aVundertaken
p8718
aVload
p8719
aVexcessive
p8720
aVhalf
p8721
aVcytoplasmic-to-nuclear
p8722
aVreplenish
p8723
aVfibric
p8724
aVcycloheximide-sensitive
p8725
aVmitogen-inducible
p8726
aVp55TNF-R
p8727
aVModulation
p8728
aVFas
p8729
aVsupply
p8730
aVattractive
p8731
aVlymphocytes
p8732
aVphosphatidylinositides
p8733
aV/E2A
p8734
aVproIL-1
p8735
aVmurine
p8736
aVputative
p8737
aVnuclear-activating
p8738
aVantigen-specific
p8739
aVT
aVvariants
p8740
aVstabilize
p8741
aVrepresses
p8742
aVGATA-associated
p8743
aVhaptenation
p8744
aVover-expression
p8745
aVrepressed
p8746
aVcis-activation
p8747
aVbecause
p8748
aVsequence
p8749
aVCipro
p8750
aVP-glycoprotein
p8751
aV21-bp
p8752
aVgrowth
p8753
aVE-box
p8754
aV110
p8755
aVCooperation
p8756
aV119
p8757
aVglucocorticosteroid
p8758
aVdisrupting
p8759
aVFoxp3
p8760
aVdownregulates
p8761
aVlead
p8762
aVmarkers
p8763
aVmanipulations
p8764
aVleader
p8765
aVatherosclerotic
p8766
aV/Egr
p8767
aVTBP-1
p8768
aVdeacetylases
p8769
aVanalyses
p8770
aVtrisubstituted
p8771
aVsialoadhesin
p8772
aVperspectives
p8773
aVcarried
p8774
aVActivated
p8775
aVdependence
p8776
aVAnnexin
p8777
aVDNMT
p8778
aVActivates
p8779
aVconverging
p8780
aVindividually
p8781
aVown
p8782
aV13,48
p8783
aVhomogenates
p8784
aVamylase
p8785
aVetal.
p8786
aVtranscription-independent
p8787
aVtransfer
p8788
aV-3134
p8789
aV-294
p8790
aV-295
p8791
aVtriggered
p8792
aV-291
p8793
aVScience
p8794
aVOCT-1p
p8795
aVvolume
p8796
aVautomated
p8797
aVNFAT-P0
p8798
aVauxiliary
p8799
aVgranzyme
p8800
aVTen
p8801
aVwhether
p8802
aVWIN
p8803
aVTATA
p8804
aVCACCC-binding
p8805
aVdemonstrate
p8806
aVTer
p8807
aVc-Myb
p8808
aVmyeloid-cell-specific
p8809
aVSite
p8810
aVresumption
p8811
aVpermeability
p8812
aVplaques
p8813
aVsubendothelium
p8814
aVBALL1
p8815
aVcaspase-3
p8816
aVtransacting
p8817
aVpercent
p8818
aVimmobilized
p8819
aVother
p8820
aVFive
p8821
aVconclusion
p8822
aVfibrinogen/Mn2
p8823
aVsustains
p8824
aVmetabolized
p8825
aVstreptavidin/biotin
p8826
aVFuture
p8827
aVblood-derived
p8828
aVforskolin-induced
p8829
aVguanylate
p8830
aVhomolog
p8831
aVradiolabeled
p8832
aVserum-inducible
p8833
aVcoupling
p8834
aVc-myc
p8835
aVc-myb
p8836
aVnecrosis
p8837
aVjunB
p8838
aVjunD
p8839
aVtransfectants
p8840
aVproliferator-activated
p8841
aVunderstand
p8842
aVrepresentative
p8843
a.