(lp1
VTat-I
p2
aVC-depend
p3
aVX-link
p4
aVcytosol
p5
aVPML-RAR
p6
aV/Jun
p7
aVIII-transcrib
p8
aVestrogen-depend
p9
aVSos2
p10
aVSos1
p11
aVmNFATc
p12
aVoverexpress
p13
aVPerforin
p14
aVhyper-sensit
p15
aVgranulocyt
p16
aVerythroid-specif
p17
aVreceptor-initi
p18
aV17beta-hydroxysteroid
p19
aVunder
p20
aV-beta-catenin
p21
aVStabil
p22
aV/platelet-deriv
p23
aVGR
p24
aVdownstream
p25
aVD1/CDR3-loop
p26
aVSP1
p27
aVrise
p28
aV-secret
p29
aVantibody-medi
p30
aVGC
p31
aVupstream
p32
aVaffect
p33
aVGSK-3beta
p34
aVGH
p35
aV/BCL6
p36
aVB29
p37
aVco-express
p38
aVinterleukin-1alpha
p39
aVGPIIIa
p40
aVIFN-gamma
p41
aVwell-defin
p42
aVBcl-xL
p43
aVVD-respons
p44
aVJNK
p45
aVrepeat-driven
p46
aVintermediate-releas
p47
aVproteas
p48
aVadeno-associ
p49
aV-overexpress
p50
aVROR-gammat
p51
aVtime-respons
p52
aVlower-affin
p53
aVblood-deriv
p54
aVdirect
p55
aVconsequ
p56
aVaggreg
p57
aV/APN
p58
aVCsA-treat
p59
aVfocus-form
p60
aVPI3K-mediat
p61
aVGR6
p62
aVII-defici
p63
aV/delta
p64
aVhiston
p65
aVnef
p66
aVVav
p67
aV+
aVtranscrib
p68
aVIgG
p69
aVIgE
p70
aVDiminish
p71
aVcell-depend
p72
aVIgH
p73
aVOct-2B
p74
aV/Tal1
p75
aV-activ
p76
aVAlterat
p77
aV-Runx3
p78
aVALAS-E
p79
aVmacrophage-compet
p80
aValpha-globin
p81
aVHIV-induc
p82
aVOct-2a
p83
aVCp
p84
aVHIV-TF1
p85
aVendotoxin-stimul
p86
aVTcra
p87
aVtriflusal-tr
p88
aVderegul
p89
aVBruton
p90
aVguamerin-deriv
p91
aVTissue-specif
p92
aV/CD8
p93
aVpermit
p94
aVanti-C/EBP
p95
aVstudi
p96
aVTNF-stimul
p97
aVstress-depend
p98
aVMAD3
p99
aVinterferon
p100
aVJunB
p101
aVJunD
p102
aVInterleukin-2
p103
aVblockad
p104
aVInterleukin-4
p105
aVInterleukin-5
p106
aVp49
p107
aVreplication-compet
p108
aVp47
p109
aVsequence-driven
p110
aVp45
p111
aVgliotoxin-inhibit
p112
aVp42
p113
aV5-LOX
p114
aVp40
p115
aVStat
p116
aVRegul
p117
aVExpress
p118
aVIFN-stimul
p119
aVco-activ
p120
aVAccompani
p121
aVE2A
p122
aVanti-CD14
p123
aVanti-CD18
p124
aVpathway-depend
p125
aVtype
p126
aVanthracycline-tr
p127
aVPECAM-1
p128
aV3-hydroxy-3-methylglutaryl
p129
aVRetinoblastoma
p130
aVcRel
p131
aV-bind
p132
aVCHO/CD14
p133
aV/HEB
p134
aVlacZ
p135
aVhIL-5
p136
aVLPS-bind
p137
aVchloride-induc
p138
aVrestor
p139
aVLMP
p140
aVCD3-mediat
p141
aVI-kappaBalpha
p142
aVIl4
p143
aVintroduc
p144
aVEBNA-2A
p145
aVORF
p146
aVICAM-1
p147
aVinterleukin-beta
p148
aVNF-kappa
p149
aVCD95
p150
aVLa
p151
aVSensit
p152
aVGRO-alpha
p153
aVStimul
p154
aVcis-act
p155
aVimpair
p156
aVacetate-medi
p157
aVleukocyte-specif
p158
aVIL-1R-associ
p159
aVAntioxidant-medi
p160
aVFormat
p161
aVthromboxan
p162
aVconfin
p163
aVXPB
p164
aVtoxic
p165
aVNFkappaB-medi
p166
aVdPRL
p167
aVPILOT
p168
aVHIV-induct
p169
aVNF-kappaB-p105
p170
aVrecogn
p171
aVCD45
p172
aVCD44
p173
aVafter
p174
aVluciferas
p175
aVHTLV-I-posit
p176
aVTNF-depend
p177
aV/PDGF-B
p178
aVTGF-beta
p179
aVXPD
p180
aVdemonstr
p181
aVlipopolysaccharide-stimul
p182
aVTNFalpha
p183
aVaP2
p184
aVDure
p185
aVenhancer-block
p186
aVanti-CD30
p187
aVmaintain
p188
aVgreen
p189
aVCTL-specif
p190
aVexclus
p191
aVbase-pair
p192
aVbcl-xL
p193
aVover
p194
aVPosit
p195
aVInhibitori
p196
aVSp-1
p197
aVDBF-site
p198
aVNumber
p199
aVvari
p200
aVBCR-deriv
p201
aVdeprivation-induc
p202
aVsarcoma-associ
p203
aVligand
p204
aVPRL
p205
aVsuperinduc
p206
aV-deriv
p207
aVtyrosine-protein
p208
aVpersist
p209
aVinduct
p210
aVstimulus-induc
p211
aVFITC-conjug
p212
aVpromin
p213
aVIP-10
p214
aVICRF-193-treat
p215
aVmonocyt
p216
aVNFkappaB-sit
p217
aVMaintain
p218
aVCREB-depend
p219
aVProteolyt
p220
aV/Stat6
p221
aVControl
p222
aV/OCA-B
p223
aVIkappaB
p224
aVandrogen-bind
p225
aVInterleukin-12
p226
aVInterleukin-13
p227
aVInterleukin-10
p228
aVserum-induc
p229
aVRFX1
p230
aV-Induce
p231
aVtuberculin
p232
aVLipopolysaccharide-induc
p233
aVAPC
p234
aVligand-bind
p235
aVcJun
p236
aVanti-E-selectin
p237
aVTNFRII
p238
aVparasite-medi
p239
aVself-replenish
p240
aV-Fas
p241
aV5-lipoxygenas
p242
aVFactor
p243
aVBCL-2
p244
aVBZLF1
p245
aVBCL-6
p246
aVeosinophil-specif
p247
aVecto-5
p248
aV/SS-B
p249
aVthrombin
p250
aVeffector-to-target
p251
aVRestor
p252
aVcrucial
p253
aVdifferentiation-specif
p254
aVLMP-1
p255
aVsyk
p256
aVCorrel
p257
aVvimentin
p258
aVSP-1
p259
aVhGATA-2
p260
aVsteroid-regul
p261
aVTCF1
p262
aVbcl-xl
p263
aVGlucocorticoid-induc
p264
aVIL-2Rbeta
p265
aVGlycoprotein
p266
aVVia
p267
aVISGF3
p268
aVglial-deriv
p269
aVDefect
p270
aVloCD25
p271
aVIkappaBalpha
p272
aVpattern
p273
aVCREB
p274
aVhormone-medi
p275
aVkinase-target
p276
aVCooper
p277
aVEpo-R
p278
aVindepend
p279
aVDue
p280
aVNF-kappaB-induc
p281
aVrestrict
p282
aVhormone-activ
p283
aVDMSO-induc
p284
aV11-base-pair
p285
aVsyndrome-associ
p286
aVNotch1
p287
aVbiosynthesi
p288
aVblr1
p289
aVanti-LMP1
p290
aVcompos
p291
aVglucocorticoid
p292
aVIncreas
p293
aVCell-specif
p294
aVunimpair
p295
aVantioxidant-depend
p296
aVcis-el
p297
aVB
aVlower
p298
aVcalcineurin-depend
p299
aVproteolysis-resist
p300
aVCD2-activ
p301
aVp54
p302
aVp55
p303
aV/c-Rel
p304
aVInhibitor
p305
aVIRF-7
p306
aVp52
p307
aVp53
p308
aVGATA-bind
p309
aVtarget
p310
aVprovid
p311
aVcis-activ
p312
aV-defect
p313
aVanti-CD25
p314
aVactivation-induc
p315
aVautoantigen
p316
aVproteolyt
p317
aVModul
p318
aVanti-CD28
p319
aVself-perpetu
p320
aVE12
p321
aV-catalyz
p322
aVPMA/ionomycin-induc
p323
aV2/core-bind
p324
aVLPS-Induce
p325
aVOCA-B
p326
aVpromoter-specif
p327
aVHNP-1
p328
aVSyk
p329
aVLTR-depend
p330
aV-
aVMacrophage-colony-stimul
p331
aVdifferentiation-induc
p332
aVoverstimul
p333
aVretinoblastoma
p334
aVCAML
p335
aVRequir
p336
aV-bi
p337
aVAbsenc
p338
aVgene-target
p339
aVfactor-activ
p340
aVpGSK3alpha
p341
aVoncostatin
p342
aVItk
p343
aVpRb
p344
aVdoe
p345
aVgranulocyte-macrophag
p346
aVE1A
p347
aVanti-CD2-medi
p348
aVE1B
p349
aVtissu
p350
aVCD38
p351
aVupregul
p352
aVCD30
p353
aVopposit
p354
aVMAPK-depend
p355
aVCD34
p356
aVCD35
p357
aVCD36
p358
aVCD3/CD28
p359
aVPAF
p360
aVnonsecret
p361
aVinvolv
p362
aVdespit
p363
aVlatent
p364
aVTRAFs2
p365
aVNFAT-contain
p366
aVDNMT1
p367
aVStat3gamma
p368
aVhematopoiet
p369
aVIFN-alpha-stimul
p370
aVLevel
p371
aV50-kDa
p372
aVphospholipas
p373
aVaccount
p374
aVgamma-specif
p375
aVPtdIns-mCD14
p376
aVDose-depend
p377
aV-nonproduc
p378
aVrunt
p379
aV/NF-AT
p380
aVdelta-globin
p381
aVOver
p382
aVHTLV-I-induc
p383
aVbax
p384
aVbad
p385
aVElf-1
p386
aVBFU-E-deriv
p387
aVbak
p388
aVrespond
p389
aVbi-direct
p390
aVCsA-sensit
p391
aVdominant-neg
p392
aVGrpL
p393
aVIFN-gamma-activ
p394
aVR-PK
p395
aVGAPDH
p396
aVresist
p397
aVcalcium-independ
p398
aVovalbumin
p399
aVresult
p400
aVrespons
p401
aVfail
p402
aVanti-CD3epsilon
p403
aVeosinophil-deriv
p404
aVsubject
p405
aVdisulfide-link
p406
aVloss-of-funct
p407
aVEGR1
p408
aVES-deriv
p409
aVc-jun
p410
aVattribut
p411
aVbufalin-induc
p412
aVinabl
p413
aVC
aVchemically-react
p414
aVC/EBP-epsilon
p415
aVAP-2
p416
aVweak
p417
aVvitamin
p418
aVandrogen
p419
aVEBV-negat
p420
aVSOCS3
p421
aVcalmodulin-bind
p422
aVHES-1
p423
aVradiation-induc
p424
aVunaffect
p425
aVmyristate-induc
p426
aVleukemia-specif
p427
aVcAMP-activ
p428
aVhRAR
p429
aVAbnormal
p430
aVGABP
p431
aVRAP30
p432
aVCdk2
p433
aVvirus-specif
p434
aVthyroid
p435
aVretroviral-induc
p436
aVbox-specif
p437
aVp300
p438
aVp120
p439
aVreceptor-associ
p440
aVNFATp/c-bind
p441
aV25-hydroxyvitamin
p442
aVInitial
p443
aVgender-specif
p444
aVInitiat
p445
aV-direct
p446
aVBCR
p447
aVGAL4
p448
aVpAT
p449
aVLPS-stimul
p450
aVB/KBF1
p451
aVD3-mediat
p452
aVbacteria-induc
p453
aVsequence-specif
p454
aV/c-Jun
p455
aVaccumul
p456
aVtrigger
p457
aVintegrin
p458
aVpAkt
p459
aVCytokine-stimul
p460
aVC1
p461
aVCD79b
p462
aVv-rel
p463
aVregul
p464
aVCN
p465
aVSTAT-3
p466
aVsuppress
p467
aVNegat
p468
aVSTAT-6
p469
aVSTAT-4
p470
aVlineage-specif
p471
aVefficaci
p472
aVdeltaDNA-bind
p473
aVAnti-CD28
p474
aVinhibit
p475
aVspecific-transcript
p476
aVHIV-mediat
p477
aVHLA-B27
p478
aVpaclitaxel-induc
p479
aVDecreas
p480
aVFollow
p481
aVendotheli
p482
aVforskolin-tr
p483
aVp39c-jun
p484
aVp65
p485
aV70/Z3-deriv
p486
aVsteroid-tr
p487
aVIkB
p488
aVelicit
p489
aVEB1
p490
aVester-stimul
p491
aVc-Jun
p492
aVCoactiv
p493
aVHNF-3alpha
p494
aVoligomer
p495
aVmake
p496
aVformat
p497
aVphosphoform
p498
aVamount
p499
aVpreserv
p500
aVcomplex
p501
aVT-lymphocyte-deplet
p502
aVMegakaryocyte/Platelet-specif
p503
aVDQ
p504
aVTGF-beta-induc
p505
aVearly-induc
p506
aVMIP-1beta
p507
aV/PTF
p508
aVCD16-induc
p509
aVTbx-21
p510
aVTACI
p511
aVCCAAT/enhancer-bind
p512
aVCD25
p513
aVnon-PRL
p514
aVEBF
p515
aVstimuli
p516
aVIntercellular
p517
aVEBV
p518
aVIL-1beta
p519
aVCombin
p520
aVMobil
p521
aVdifferentiation-promot
p522
aVunchang
p523
aVidentifi
p524
aV225/EGR1
p525
aVTHP-1-hGH-transfect
p526
aVcostimul
p527
aVOCT-1
p528
aVhuman
p529
aVcalcium-sign
p530
aVHsp70
p531
aVTNF-alpha
p532
aVDisrupt
p533
aVF1-revers
p534
aVErk1
p535
aVlymphoma
p536
aVcalmodulin
p537
aVinterfer
p538
aVconjug
p539
aVanthracycline-induc
p540
aVEVI1
p541
aVmTOR
p542
aVperforin-express
p543
aVdomain-contain
p544
aVInhibit
p545
aVCD28
p546
aV-PhoQ
p547
aVAugment
p548
aVCD23
p549
aVCD21
p550
aVCD26
p551
aVreceptor-induc
p552
aVcell-associ
p553
aVIL-1-RA
p554
aVDown-regul
p555
aV-specif
p556
aVcell-type-independ
p557
aVlck
p558
aVcomigr
p559
aVGATA-4
p560
aVmeasur
p561
aVGATA-1
p562
aVspecif
p563
aVGATA-3
p564
aVnegat
p565
aVCTF
p566
aVRA-mediat
p567
aVDNase
p568
aVInterleukin-3
p569
aVAre
p570
aV/CD40L
p571
aVLPS-mediat
p572
aVsignal
p573
aVunderli
p574
aVInterleukin-7
p575
aVhypoxia-induc
p576
aVmaxim
p577
aVbeta-globin
p578
aVAnalyz
p579
aVPKC-independ
p580
aVinterf
p581
aVcomplement-depend
p582
aVSCL
p583
aVcooper
p584
aVfor
p585
aVfos
p586
aVPTF
p587
aVCHO-DR/B7
p588
aVpituitary-specif
p589
aVZEBRA
p590
aVovercom
p591
aVcalcium-depend
p592
aVcondit
p593
aVPPARgamma
p594
aVMKP-1
p595
aVFosB
p596
aVconfer
p597
aVNF-E1
p598
aVpromot
p599
aVheat-inactiv
p600
aVsuper
p601
aVgranzym
p602
aVUtiliz
p603
aVCD8-posit
p604
aVTis-8
p605
aVALD-treat
p606
aVH2
p607
aVB-activ
p608
aVRasN17
p609
aVcycloheximide-sensit
p610
aVproduc
p611
aVUse
p612
aVCoCl2-induc
p613
aVc-Maf
p614
aVCoupl
p615
aV-deplet
p616
aVbound
p617
aVlineage-restrict
p618
aVstage-specif
p619
aVPrf1
p620
aVmembrane-bound
p621
aVTAR-independ
p622
aVrelA
p623
aVgenotyp
p624
aVprolactin
p625
aV-induc
p626
aVsuffici
p627
aVsupport
p628
aVrecombination-activ
p629
aVNF-microB
p630
aVstimulation-depend
p631
aVdexamethasone-induc
p632
aVleukocyte-medi
p633
aVlymphokine-activ
p634
aVIL-2
p635
aVlowest
p636
aVcell-medi
p637
aVform
p638
aVhormone-respons
p639
aVCD-40
p640
aVretarget
p641
aVPMA-stimul
p642
aVfactor-depend
p643
aVheat
p644
aVPlatelet-activ
p645
aVlineage-determin
p646
aVtrue
p647
aVERK5
p648
aVabsent
p649
aVnon-insulin
p650
aVphosphotyrosine-contain
p651
aVCD30L
p652
aVBSAP
p653
aVtissue-specif
p654
aVabsenc
p655
aVdown-regul
p656
aVTPA-induc
p657
aVTRAFs
p658
aVhormone-depend
p659
aVstain
p660
aVBamHI
p661
aVId3
p662
aVTCRG
p663
aVId1
p664
aVwell-recogn
p665
aVkappaB-bind
p666
aV1-mediat
p667
aVhiCD25
p668
aVkinase-depend
p669
aVassembl
p670
aVHigh
p671
aVligation-medi
p672
aVelement-regul
p673
aVEBV-posit
p674
aVIL-12-depend
p675
aVcolony-form
p676
aVTLR-depend
p677
aVwhen
p678
aVInduce
p679
aVPathway
p680
aVrole
p681
aVmethylation-sensit
p682
aVimmune-medi
p683
aVbeta-lik
p684
aVhalf-liv
p685
aVTRAF1
p686
aVTRAF2
p687
aVp75
p688
aVTRAF6
p689
aVfactor-bind
p690
aVReceptor
p691
aVHalf-maxim
p692
aVFMS
p693
aVintens
p694
aVabrog
p695
aVretinaldehyd
p696
aVTreg-specif
p697
aVlamin
p698
aVanti-CD45
p699
aVanti-CD44
p700
aVanti-CD40
p701
aVblastocyst-deriv
p702
aVcalcineurin-regul
p703
aVhPRL
p704
aVTAFII250
p705
aVATF4
p706
aVco-immobil
p707
aVReduct
p708
aVmonocyte-deriv
p709
aVAPC-independ
p710
aVIkappaB-alpha
p711
aVNRE-2a
p712
aVTransgen
p713
aViNO
p714
aVpromoter-medi
p715
aVpneumoniae-medi
p716
aVbeta-interferon
p717
aVCross-link
p718
aVLEF1
p719
aVdepend
p720
aVdifferentiation-depend
p721
aVN-Oct-3
p722
aVcatalyz
p723
aVIFN-regul
p724
aVHePTP
p725
aVintercellular
p726
aVsourc
p727
aVhLH-2
p728
aVadherence-depend
p729
aVRho-induc
p730
aVRecruit
p731
aVIFNA
p732
aVTNFR-associ
p733
aVHsp60
p734
aVMyD88
p735
aVTat
p736
aVanti-TIMP-1
p737
aVextracellular-sign
p738
aVHIV-1-LTR-driven
p739
aVlevel
p740
aVTax
p741
aVknock-out
p742
aVAP1-bind
p743
aVLEF-1
p744
aVshock-treat
p745
aVCompet
p746
aVActivation-depend
p747
aVA-sensit
p748
aVprevent
p749
aVLTR-CAT
p750
aVcore
p751
aVcompens
p752
aVTCR-transgen
p753
aVbiopsy-deriv
p754
aVRel
p755
aVDMDTC-treat
p756
aVhemin-tr
p757
aVcolig
p758
aVAgonist-induc
p759
aVprecipit
p760
aVNFAT-bind
p761
aVsite-form
p762
aVappear
p763
aVpromoter-depend
p764
aVForc
p765
aVE-cadherin
p766
aVEnhanc
p767
aVco-loc
p768
aVJAK2
p769
aVJAK3
p770
aVbeta-galactosidas
p771
aVLPS-treat
p772
aVRelA
p773
aV2A-sensit
p774
aVLPS-activ
p775
aVdefici
p776
aVderiv
p777
aV/RelA
p778
aVTFIID-depend
p779
aVICAM-3
p780
aVmodif
p781
aVendotoxin-medi
p782
aVTcf-respons
p783
aVstem
p784
aVAgs
p785
aVDNA-PK
p786
aVPC4
p787
aVCD16
p788
aVCD14
p789
aVCD13
p790
aVIL-12-mediat
p791
aVCD18
p792
aVCD19
p793
aVLTR-mediat
p794
aVmodul
p795
aVtwo-hybrid
p796
aVWhen
p797
aVBp65
p798
aVRIP
p799
aVmobil
p800
aVrevers
p801
aVp38alpha
p802
aVc-maf
p803
aVanti-granzym
p804
aVAP-1-depend
p805
aVmacrophage-CSF
p806
aVCREB-respons
p807
aVadherence-associ
p808
aVP/I-induc
p809
aVcell-type-depend
p810
aVredox-depend
p811
aV-depend
p812
aVenhanc
p813
aVIRES-GFP
p814
aVSLP-76
p815
aVacetate-stimul
p816
aVcell-specif
p817
aVExpression
p818
aVTransient-transfect
p819
aVTal-1
p820
aVlymphoid-restrict
p821
aVlocal
p822
aVfoci
p823
aVL32
p824
aVacid-sensit
p825
aVimped
p826
aVserine/threonin
p827
aVERP
p828
aVDPA
p829
aVsignal-regul
p830
aVp105
p831
aVp100
p832
aVisotype-specif
p833
aVD-depend
p834
aVbactericidal/permeability-increas
p835
aVcritic
p836
aVimmunolog
p837
aVH4
p838
aV/p105
p839
aVligand-activ
p840
aVInduction
p841
aVoccur
p842
aVtrans-factor
p843
aVoccup
p844
aVGH-N
p845
aV-express
p846
aVdysregul
p847
aVacid-react
p848
aVp90
p849
aVligat
p850
aVpathway
p851
aVlipid-associ
p852
aVmap
p853
aVproduct
p854
aVdownmodul
p855
aVGSSG/GSH-induc
p856
aVCD40L
p857
aVAU-motif-direct
p858
aVcomplex-neg
p859
aV-SLP-76
p860
aVFGF-1
p861
aVtransfect
p862
aVswitch
p863
aVcoexpress
p864
aVcombin
p865
aVblock
p866
aVNF-kappaBp65
p867
aVINK4A
p868
aVFra-1
p869
aVcell-deriv
p870
aVLIF
p871
aVp85
p872
aVincreas
p873
aVE2F-mediat
p874
aV-treat
p875
aVRb
p876
aVZXDA
p877
aVPMA-treat
p878
aVHigher
p879
aVapoptosis-associ
p880
aVgroup
p881
aVthrombopoietin
p882
aVII-induc
p883
aVced-3
p884
aVLSIRF
p885
aVG-protein-coupl
p886
aVTP1
p887
aVUsing
p888
aVG-CSF
p889
aVWT1
p890
aVCD62E
p891
aVGzmb
p892
aVJun-D
p893
aVTPO
p894
aVCD62L
p895
aVAiolo
p896
aViniti
p897
aVautoregul
p898
aVMNDA
p899
aVcyclin-depend
p900
aVtype-specif
p901
aVnot
p902
aVMKK3
p903
aVvirus-medi
p904
aVCD45RA
p905
aVGzmB
p906
aVIL-15
p907
aVrevert
p908
aVIL-13
p909
aVIL-10
p910
aVTRAIL
p911
aVmb-1
p912
aV/MEK1
p913
aVH2O2-induc
p914
aVHSF-1
p915
aVcyclic-AMP
p916
aVhemin-induc
p917
aVtranscription-independ
p918
aVfasL
p919
aVTCR-stimul
p920
aVE-selectin
p921
aVreplac
p922
aVcAMP
p923
aVculmin
p924
aV/Pip
p925
aVrelB
p926
aVet
p927
aValpha2
p928
aVaccomplish
p929
aVSuppress
p930
aVIg/EBP
p931
aVNH2Cl-treat
p932
aVEts-1
p933
aVblk
p934
aV-posit
p935
aVLCR/gamma-globin
p936
aVIl2rb
p937
aVc-Kit
p938
aVets-bind
p939
aVRescu
p940
aVmigrat
p941
aVcontain
p942
aVantigen-specif
p943
aV17beta-HSD
p944
aVB-regul
p945
aVTumor
p946
aV-driven
p947
aVSTAT5-contain
p948
aVPDX-1
p949
aVanti-P-selectin
p950
aVSV40
p951
aVNF-IL6beta
p952
aVsignal-medi
p953
aVinducer-medi
p954
aVpaxillin
p955
aVHSF2-alpha
p956
aV-granzym
p957
aVrecov
p958
aVturn
p959
aVplatelet-deriv
p960
aVPBGD
p961
aVInvolvement
p962
aVc-erbA/TR-specif
p963
aV/CREB2
p964
aVlambda
p965
aVoper
p966
aVheme-tr
p967
aVThrombin
p968
aVtransform
p969
aVoppos
p970
aVhGATA-4
p971
aVhGATA-1
p972
aVglucocorticoid-repress
p973
aVhGATA-3
p974
aVgamma-globin
p975
aVContribut
p976
aVGSK3beta
p977
aVhematopoietic-specif
p978
aVsilenc
p979
aV2
aV.c-rel
p980
aVSEA
p981
aVEomes-VP16
p982
aVGata-3
p983
aVspecifi
p984
aVsignal-depend
p985
aVI-kappaBbeta
p986
aV-respons
p987
aVZEB
p988
aVcytokine-stimul
p989
aV:
aVrecruit
p990
aVPKC-mediat
p991
aVposit
p992
aVBtk
p993
aVPMA/PHA
p994
aVPhospho-Stat3
p995
aVBPI
p996
aVPCR-amplifi
p997
aVHSP70B
p998
aVsite-medi
p999
aVDR
p1000
aVZAP-70
p1001
aVDP
p1002
aVNF-kappaB-depend
p1003
aVNF-AT-bind
p1004
aVB-independ
p1005
aVforc
p1006
aVImportant
p1007
aVTGF
p1008
aVIL-12-stimul
p1009
aVHIV-associ
p1010
aVblunt
p1011
aVun-conjug
p1012
aVEpoR
p1013
aV/tal
p1014
aVbisulfite-sequenc
p1015
aVc-sis
p1016
aV-positv
p1017
aVauto-inhibitori
p1018
aV-transcrib
p1019
aVbeta
p1020
aVmicrococc
p1021
aVpair
p1022
aVTCR-mediat
p1023
aVv-src
p1024
aVsynthesi
p1025
aVforskolin-induc
p1026
aVrescu
p1027
aVlow-mobl
p1028
aVdrive
p1029
aVCOX-2
p1030
aVBP1
p1031
aVFludarabine-induc
p1032
aVactivation-defici
p1033
aVBP2
p1034
aVnuclear
p1035
aVLMO-depend
p1036
aVshow
p1037
aV65-kDa
p1038
aVRole
p1039
aVcyclosporin
p1040
aVTNF-induc
p1041
aVfra-1
p1042
aVTCR-initi
p1043
aVspi-1
p1044
aVDeltaFKH
p1045
aVAltere
p1046
aVactiv
p1047
aVco-repressor
p1048
aVpromoter/CAT
p1049
aVIL-4
p1050
aVactin
p1051
aVanalyz
p1052
aVBS-I-revers
p1053
aVWp
p1054
aV70-base-pair
p1055
aVagonist-induc
p1056
aVp40tax
p1057
aVp98
p1058
aVkappaB-depend
p1059
aVIL-7
p1060
aVmitogen-induc
p1061
aVco-immunoprecipit
p1062
aVLTB4
p1063
aVstimuli-specif
p1064
aVautoinduc
p1065
aVp96
p1066
aVp97
p1067
aVgp160
p1068
aVReactiv
p1069
aV-produc
p1070
aVimport
p1071
aVastrocyte-deriv
p1072
aVrequir
p1073
aVhRXR
p1074
aVTCL1
p1075
aVPAF-stimul
p1076
aVA-treat
p1077
aVC/EBPbeta
p1078
aVmediat
p1079
aVH-CAM
p1080
aVIL-1RI
p1081
aVLTR-modifi
p1082
aVSOCS-1
p1083
aVre-express
p1084
aVextracellular-regul
p1085
aVIL-12p40
p1086
aVCo-lig
p1087
aVGC-depend
p1088
aVDelet
p1089
aVsuper-induc
p1090
aVT-cell
p1091
aVMEK
p1092
aVkinase-defici
p1093
aVGM-CSF
p1094
aVdetect
p1095
aVThat
p1096
aVB/MAD
p1097
aVfactor-medi
p1098
aVLDL
p1099
aVITF-1
p1100
aV3
aVITF-2
p1101
aVdisease-deriv
p1102
aVinhibitori
p1103
aVHIV-CAT
p1104
aVorientation-independ
p1105
aVTarget
p1106
aVFOS
p1107
aVOct-2A
p1108
aVIL-2R
p1109
aVscreen
p1110
aVTcR
p1111
aVTransfect
p1112
aVPax-5
p1113
aVlymphotoxin-alpha
p1114
aVPGE2-depend
p1115
aVp15INK4b
p1116
aVEo-VP16
p1117
aVcAMP-respons
p1118
aVBase-pair
p1119
aVpromoter-driven
p1120
aVmuE3-bind
p1121
aVFoxj1
p1122
aVc-kit
p1123
aVNF-kappaB-contain
p1124
aVDNA-receptor
p1125
aVFK506-mediat
p1126
aVp56lck
p1127
aVThrough
p1128
aVSAA
p1129
aVBob1
p1130
aVacceler
p1131
aVdrug-induc
p1132
aVAP-1-bind
p1133
aVLiber
p1134
aVatherosclerosis-promot
p1135
aVinhibitor-kappaB
p1136
aVpol
p1137
aVc-Rel
p1138
aVpost-transcript
p1139
aVIL1B
p1140
aV-regul
p1141
aVtumour
p1142
aVIKKbeta
p1143
aVcoupl
p1144
aVinvers
p1145
aVdopamine-induc
p1146
aV/granzym
p1147
aVPromot
p1148
aVmannos
p1149
aVExcess
p1150
aV-ABL
p1151
aV1-revers
p1152
aVGA-bind
p1153
aVGram-neg
p1154
aV50K
p1155
aVGTP-bind
p1156
aVsuscept
p1157
aVD-respons
p1158
aVTATA-bind
p1159
aVnon-IL-5
p1160
aVnon-IL-2
p1161
aVkappa
p1162
aVIL10
p1163
aVIL13
p1164
aVTcf-depend
p1165
aVIL15
p1166
aValter
p1167
aVIL6
p1168
aVIL4
p1169
aVIL5
p1170
aVIL2
p1171
aVIL3
p1172
aVIL9
p1173
aVLKLF
p1174
aVHTLV-1-associ
p1175
aVtumor-deriv
p1176
aVprotease-tr
p1177
aVIl10
p1178
aVAIM
p1179
aVanti-CD3
p1180
aVanti-CD4
p1181
aVanti-CD8
p1182
aVprotein
p1183
aVubiquitin
p1184
aVcytokine-receptor
p1185
aVAP1-depend
p1186
aVtransloc
p1187
aVcell-type-specif
p1188
aVprotein-bind
p1189
aVvascular-cel
p1190
aVsubunit
p1191
aVSelenium-medi
p1192
aVbreakdown
p1193
aVI
aVT-cell-receptor-medi
p1194
aVSignal
p1195
aVjunD
p1196
aVplatelet-activating-factor
p1197
aVdriven
p1198
aVMCM6
p1199
aVMCM5
p1200
aVIL
p1201
aVp-mTOR
p1202
aVREF-1
p1203
aVB-cell-medi
p1204
aVN-Oct-factor
p1205
aVanti-C/EBPdelta
p1206
aVanti-IL-6
p1207
aVeomesodermin
p1208
aVanti-IL-1
p1209
aVanti-IL-2
p1210
aVIg
p1211
aVCdc42
p1212
aVTal1
p1213
aVabund
p1214
aVS-adenosylhomocystein
p1215
aVlymphocyte-specif
p1216
aVbcl-2
p1217
aVEPO
p1218
aVBOB
p1219
aVMDS1
p1220
aVNF-kappaB-direct
p1221
aVsuperinduct
p1222
aVconcentr
p1223
aVhigh-affin
p1224
aVfactor-induc
p1225
aVC-reactiv
p1226
aV4
aVanti-IkappaBalpha
p1227
aVDNA-bound
p1228
aVadhesion-depend
p1229
aVdisrupt
p1230
aVearli
p1231
aVmyeloid-select
p1232
aVmethylation-inhibitor
p1233
aVPAO-sensit
p1234
aVdeplet
p1235
aVLTR-direct
p1236
aVco-stimul
p1237
aVErythropoietin
p1238
aV-stimul
p1239
aVNF-AT-driven
p1240
aVEP4
p1241
aVcell-subset-specif
p1242
aVNF-M
p1243
aVEnhancement
p1244
aVRFX5
p1245
aVbeta-Actin
p1246
aVMyb
p1247
aVVDR
p1248
aVFli-1
p1249
aVSite-direct
p1250
aVPhosphoinositid
p1251
aVPDGF
p1252
aVself-react
p1253
aVintact
p1254
aVinterleukin
p1255
aVproIL-1beta
p1256
aVimmuno-defici
p1257
aVresynthesi
p1258
aVsyncytium-form
p1259
aVinterleukin-1beta
p1260
aVIFN-alpha5
p1261
aVTFE3
p1262
aVIkaro
p1263
aVinterferon-stimul
p1264
aVcycle-associ
p1265
aVnonexpress
p1266
aVretinoid
p1267
aVAnti-TNF-alpha
p1268
aVTRX
p1269
aVdouble-transgen
p1270
aVIRF-1
p1271
aVNF-kappaB-respons
p1272
aVanti-CD3-induc
p1273
aVsrc
p1274
aVof
p1275
aVCaMKIV/Gr
p1276
aVVP16
p1277
aVC5a-induc
p1278
aVtumor
p1279
aVTPA-treat
p1280
aVact
p1281
aVBSO-induc
p1282
aVB-mediat
p1283
aVerythropoietin
p1284
aVantigen-stimul
p1285
aVCCK-8-induc
p1286
aVhomodimer
p1287
aVenzyme-link
p1288
aVCD86
p1289
aVC-mediat
p1290
aVintegrin-depend
p1291
aVdominant-act
p1292
aVZif-268
p1293
aVcis-link
p1294
aVNF
p1295
aVstress-activ
p1296
aVdose-respons
p1297
aVinterfac
p1298
aVlow
p1299
aVnitric
p1300
aVSHP2
p1301
aVICOS
p1302
aVfactor-stimul
p1303
aVIL-1alpha
p1304
aVsite-direct
p1305
aVjun
p1306
aVamplifi
p1307
aVIL-1-induc
p1308
aVSP-A-depend
p1309
aVDNase-I
p1310
aVanti-Egr-1
p1311
aVanti-AIM
p1312
aVwith
p1313
aVc-Fos
p1314
aVAnti-intercellular
p1315
aVFox01
p1316
aVLTR-driven
p1317
aVMethyl-CpG-bind
p1318
aVkappaB-driven
p1319
aVconcentration-depend
p1320
aVCis-act
p1321
aVSTAT5B
p1322
aVSTAT5A
p1323
aVtranscription-depend
p1324
aV-interact
p1325
aVvascular-specif
p1326
aVSerum
p1327
aVphyto
p1328
aVDespit
p1329
aVARRE/NF-AT
p1330
aVLatent
p1331
aVdecreas
p1332
aVat
p1333
aVgenerat
p1334
aVproport
p1335
aVIL-2Ralpha
p1336
aVcollagenase-1
p1337
aVreexpress
p1338
aValpha-tcp-induc
p1339
aVA-MYB
p1340
aVC/EBP-beta
p1341
aVhybrid
p1342
aVEgr-1
p1343
aVEgr-2
p1344
aVEgr-3
p1345
aVdex-resist
p1346
aVTbx21
p1347
aVthat
p1348
aVcompet
p1349
aVB-site
p1350
aVbox-bind
p1351
aVhTAFII130
p1352
aVradical-gener
p1353
aVpoor
p1354
aVhindranc
p1355
aVDNMT3A
p1356
aVcoactiv
p1357
aVBRLF1
p1358
aVSpecif
p1359
aVnon-express
p1360
aVCyclin
p1361
aVage-associ
p1362
aVICE
p1363
aVElement
p1364
aVMitogen-medi
p1365
aVpeak
p1366
aVparasite-induc
p1367
aVpromoter-bind
p1368
aVreduc
p1369
aVCTLA-4
p1370
aVanti-Runx3
p1371
aVsynthesis-depend
p1372
aVmask
p1373
aVDirect
p1374
aVimmunoglobulin
p1375
aVJak2
p1376
aVenhancer-bind
p1377
aVpotenti
p1378
aVspecies-medi
p1379
aVdegrad
p1380
aVimmunoreact
p1381
aVmaximum
p1382
aVlack
p1383
aV-I
p1384
aVheat-activ
p1385
aVProlong
p1386
aVAccumul
p1387
aVcorrel
p1388
aVabil
p1389
aVfollow
p1390
aVImpairment
p1391
aVP-selectin
p1392
aVstimuli-induc
p1393
aVoct-2A
p1394
aVTIMP-2
p1395
aVTIMP-1
p1396
aVAzeptin-tr
p1397
aVto
p1398
aVSAP-1
p1399
aVvWf
p1400
aVEar
p1401
aVC-Jun
p1402
aVAMP-depend
p1403
aVgrowth-regul
p1404
aV1-bind
p1405
aVfluorescence-activ
p1406
aVfas
p1407
aVcytokine-medi
p1408
aVJagged1
p1409
aVanti-VCAM-1
p1410
aVRA-induc
p1411
aVutil
p1412
aVmechan
p1413
aVMn-SOD
p1414
aVfailur
p1415
aVTFG-beta
p1416
aVNFAT-direct
p1417
aVProduc
p1418
aVunalt
p1419
aVstimulus
p1420
aVbcl-xs
p1421
aVdestabil
p1422
aV-5
p1423
aV-4
p1424
aV-6
p1425
aVanti-IFN-gamma
p1426
aV-3
p1427
aV-2
p1428
aVsmall
p1429
aVcyclophilin
p1430
aVCTCF
p1431
aVEA/S-direct
p1432
aVmurine-specif
p1433
aVNF-CLE0
p1434
aVDNA-bind
p1435
aVGranulocyt
p1436
aVHIV-enhanc
p1437
aVACLA-treat
p1438
aVlipopolysaccharide-induc
p1439
aVlymphocyte-activ
p1440
aVNF-muE3
p1441
aVHTLV-1-mediat
p1442
aVLAZ3
p1443
aVmatrix-associ
p1444
aVrate-limit
p1445
aVdelet
p1446
aVEomesodermin
p1447
aVcyclooxygenase-2
p1448
aVGPIbalpha
p1449
aVB-cell-restrict
p1450
aVTATA-less
p1451
aVVCAM-1
p1452
aVexcess
p1453
aVstrong
p1454
aVmodifi
p1455
aVvalu
p1456
aVIFN-alpha-induc
p1457
aVcell-independ
p1458
aVB-bind
p1459
aVCREB-1
p1460
aVaction
p1461
aVmolecule-medi
p1462
aVrepressor
p1463
aVvia
p1464
aVp27kip1
p1465
aVLPS-mCD14
p1466
aVdeclin
p1467
aVOverexpress
p1468
aVBcl-x
p1469
aVNF-activ
p1470
aVlambda5
p1471
aV-trigger
p1472
aVestablish
p1473
aVselect
p1474
aVCore
p1475
aVliber
p1476
aV/progesteron
p1477
aVenhancer-depend
p1478
aVOTF2
p1479
aVOTF1
p1480
aVinterleukin-13
p1481
aVanti-C/EBP-epsilon
p1482
aVTax-respons
p1483
aVhyporespons
p1484
aVmore
p1485
aVB-depend
p1486
aVgp39
p1487
aVSp
p1488
aVp75TNF-R
p1489
aVE2F-1
p1490
aVsite
p1491
aVNot
p1492
aVBcl-3
p1493
aVBcl-2
p1494
aVcalcineurin
p1495
aV-TRAF2
p1496
aVremain
p1497
aVT-bet
p1498
aVTAFII105
p1499
aVtar-independ
p1500
aVcross-react
p1501
aVaxin
p1502
aVphosphatas
p1503
aV/NFATp
p1504
aVInterfer
p1505
aV/NFATx
p1506
aVCAT
p1507
aVRBP-Jkappa
p1508
aVcontext-depend
p1509
aVHZF
p1510
aVhormone-induc
p1511
aVanti-Tat
p1512
aVIRBP
p1513
aVHLA-DRA
p1514
aVintegrin-ligand
p1515
aVDownstream
p1516
aVperforin
p1517
aVligand-independ
p1518
aVRel/NF-kappaB-depend
p1519
aVv-Fos
p1520
aVP53
p1521
aVMeasur
p1522
aVnon-cell-type-specif
p1523
aVcis-regulatori
p1524
aVOTF-2
p1525
aVOTF-1
p1526
aVAkt
p1527
aVorientation-specif
p1528
aVHSF/Hsp70-mediat
p1529
aVreverse-transcript
p1530
aVassoci
p1531
aVmyeloperoxidas
p1532
aVTcf-1
p1533
aVstabil
p1534
aVTAR-delet
p1535
aVE2F1
p1536
aVcaus
p1537
aVmalignancy-associ
p1538
aVUDG
p1539
aVproteolysi
p1540
aVPAF-receptor
p1541
aVCHO-CD14
p1542
aVIL-8
p1543
aVIL-9
p1544
aVreservoir
p1545
aVp62c-fos
p1546
aVIL-5
p1547
aVIL-6
p1548
aVfour-subunit
p1549
aVIL-1
p1550
aVGPIX
p1551
aVIL-3
p1552
aVdouble-posit
p1553
aVthrough
p1554
aVA-resist
p1555
aVphosphorylation-depend
p1556
aVMAD-3
p1557
aVIL-17a
p1558
aVVpr
p1559
aVIfng
p1560
aVmyeloid-specif
p1561
aVinterleukin-1
p1562
aVinterleukin-2
p1563
aVinterleukin-3
p1564
aVinterleukin-4
p1565
aVinterleukin-5
p1566
aVinterleukin-6
p1567
aVinterleukin-7
p1568
aVinterleukin-8
p1569
aVpromoter-bound
p1570
aVglucocorticoid-medi
p1571
aVoctamer-bind
p1572
aVALD-induc
p1573
aVcounter-receptor
p1574
aVreturn
p1575
aVF2-revers
p1576
aVICSAT
p1577
aVpim-1
p1578
aVC3a
p1579
aVL
aVBax
p1580
aVDysregul
p1581
aVBad
p1582
aV2A
p1583
aVsite-specif
p1584
aVplate-bound
p1585
aVgranulocyte/macrophage-colony-stimul
p1586
aV/c-jun
p1587
aVTSC2
p1588
aVNF-kappaB-medi
p1589
aVcoimmunoprecipit
p1590
aVtransactiv
p1591
aVantigen-pres
p1592
aVLack
p1593
aVreactiv
p1594
aVRas
p1595
aVfound
p1596
aVAREs
p1597
aVIndepend
p1598
aVAnnexin
p1599
aVSpi-1
p1600
aVcompetit
p1601
aVmethyl-CpG-bind
p1602
aVVitD3-treat
p1603
aVAML1/PEBP2
p1604
aVPKC-induc
p1605
aVlinkag
p1606
aVTATA-box
p1607
aVreduct
p1608
aVMore
p1609
aVSH2
p1610
aVcolony-stimul
p1611
aVpeptide-medi
p1612
aVFcepsilonRIIb
p1613
aV24-hydroxylas
p1614
aVinactiv
p1615
aVIl-2
p1616
aVRel-B
p1617
aVRel-A
p1618
aVsustain
p1619
aVE6
p1620
aVGSK3
p1621
aVE3
p1622
aVE2
p1623
aVp70I
p1624
aVG0S3
p1625
aVdifferentiation-associ
p1626
aVIFN-induc
p1627
aVTCR
p1628
aVeosinophil
p1629
aVChang
p1630
aVmite-specif
p1631
aVlineage-associ
p1632
aVBlock
p1633
aVER
p1634
aVc-rel-specif
p1635
aVcapabl
p1636
aVTBP
p1637
aVgamma-posit
p1638
aVObservat
p1639
aVIK
p1640
aVdimer
p1641
aVSpi-B
p1642
aVanti-CD19
p1643
aVundergo
p1644
aVEp
p1645
aVperoxisome-prolifer
p1646
aVhTAFII105
p1647
aVmajor
p1648
aV2D3-mediat
p1649
aVAP-1
p1650
aVturnover-degrad
p1651
aVX1-specif
p1652
aVPhosphoryl
p1653
aVnumber
p1654
aVgain-of-funct
p1655
aVnon-specif
p1656
aVTRAMP
p1657
aVTRADD
p1658
aVCD40
p1659
aVImmunoprecipit
p1660
aVheparin-bind
p1661
aVinteract
p1662
aVanti-TNF-alpha
p1663
aVnegative-act
p1664
aVcross-link
p1665
aVallergen-specif
p1666
aVintegrin-medi
p1667
aVPPARalpha
p1668
aVEKLF
p1669
aVMAPK
p1670
aVD1/CDR2-loop
p1671
aVradical-induc
p1672
aVCDR2-loop
p1673
aVproliferator-activ
p1674
aVBcl-XL
p1675
aV591/EGR2
p1676
aVcyclin
p1677
aVapoptosis-induc
p1678
aVjagged1
p1679
aVPI3K/Akt
p1680
aVTSH-R
p1681
aVhomodim
p1682
aVGPIIb
p1683
aV/Fas
p1684
aVimmunoglobulin-lik
p1685
aV/CBF
p1686
aVv-abl
p1687
aVDepend
p1688
aVPCL
p1689
aVexert
p1690
aVdefect
p1691
aVRag1
p1692
aVGal4-BD-c-Jun
p1693
aVATF-2
p1694
aVNFATc.beta
p1695
aVpromoter/enhancer-luciferas
p1696
aVequival
p1697
aVIFNgamma
p1698
aVbcl-x
p1699
aVwithout
p1700
aVAlpha
p1701
aVWith
p1702
aVGranzym
p1703
aVElk-1
p1704
aVRP1
p1705
aVTG-induc
p1706
aVdistribut
p1707
aVTh2-specif
p1708
aVreact
p1709
aV1-depend
p1710
aVGranulocyte-macrophag
p1711
aValpha
p1712
aVkappaB-regul
p1713
aVPMA-activ
p1714
aVP65
p1715
aV-lymphoid
p1716
aV/STF
p1717
aVXP-B
p1718
aVreceptor-medi
p1719
aVvirus-induc
p1720
aVcleav
p1721
aVXP-D
p1722
aVphytohemagglutinin
p1723
aVabnorm
p1724
aVmineralocorticoid
p1725
aVsquelch
p1726
aVhyperphosphoryl
p1727
aVepsilon-globin
p1728
aVpCMV4-Tax
p1729
aVIgM-secret
p1730
aVT-cell-activ
p1731
aVover-express
p1732
aVprotein-coupl
p1733
aV-mRNA
p1734
aVp95vav
p1735
aVp56
p1736
aVheterodimer
p1737
aVPP-2A-oppos
p1738
aVDefici
p1739
aVineffect
p1740
aVanti-CD3-stimul
p1741
aV-42
p1742
aVp50
p1743
aVTGF-beta1
p1744
aVfactor
p1745
aVIRF-4
p1746
aVLck
p1747
aVCo-stimul
p1748
aVIRAK
p1749
aVfas-ligand
p1750
aVUp-regul
p1751
aVexpress
p1752
aVnaturally-occur
p1753
aVmainten
p1754
aVRelB
p1755
aVMRNA
p1756
aVanti-p65
p1757
aVSox4
p1758
aVTCR-direct
p1759
aVTranscription-independ
p1760
aVTumor-deriv
p1761
aVIfngamma
p1762
aVPHA
p1763
aVAdherence-depend
p1764
aVsynthes
p1765
aVacut
p1766
aVIgMhighIgDlowCD5
p1767
aVremov
p1768
aVcase-control
p1769
aVNF-kappaB-bind
p1770
aVFor
p1771
aVFos
p1772
aVStat5
p1773
aVorder-depend
p1774
aVMaxim
p1775
aVleukocyt
p1776
aVhistocompat
p1777
aVposition-depend
p1778
aVare
p1779
aVled
p1780
aVFLAP
p1781
aVcalcium-calmodulin-depend
p1782
aVLPS-induc
p1783
aVPAF-induc
p1784
aVplatelet
p1785
aVvascular
p1786
aVCD11b
p1787
aVinterferon-gamma
p1788
aV/RelB
p1789
aVinduc
p1790
aVlectin
p1791
aVkinase/chloramphenicol
p1792
aVJanus
p1793
aVEGR-1
p1794
aVelement-bind
p1795
aV-abl
p1796
aVC/EBP
p1797
aVthymidin
p1798
aVc
aVColig
p1799
aVcleavag
p1800
aVCACCC-bind
p1801
aVnon-mCD14
p1802
aVGH-induc
p1803
aVFas
p1804
aVTCDD
p1805
aVYY1
p1806
aVmRNA
p1807
aVTcf-mediat
p1808
aVAPL-deriv
p1809
aVB-cell-deriv
p1810
aVpp52
p1811
aVzeta
p1812
aVlyso-platelet-activ
p1813
aVintracellular
p1814
aVdue
p1815
aVperpetu
p1816
aVsecret
p1817
aVmcl-1
p1818
aVLMP1
p1819
aVcytokine-secret
p1820
aVLMP2
p1821
aVlymphoid-specif
p1822
aVadenomat
p1823
aVdouble-neg
p1824
aVlac-Z
p1825
aVCK-2
p1826
aV-phoQ
p1827
aVC/EBP-bind
p1828
aVnon-lineage-specif
p1829
aVSwitch
p1830
aVEBV-mediat
p1831
aVreceptor-neg
p1832
aVester-induc
p1833
aVcoengag
p1834
aVdesensit
p1835
aVA20
p1836
aVTrans-activ
p1837
aVdownregul
p1838
aVsignal-induc
p1839
aVLPS-specif
p1840
aVTCR-control
p1841
aVRESULTS
p1842
aVE2F-4
p1843
aVofIL-10
p1844
aVT-cell-specif
p1845
aVbox-depend
p1846
aVaberr
p1847
aVapoptosis-resist
p1848
aVloop
p1849
aVvon
p1850
aV-high
p1851
aVcalcium-mobil
p1852
aVoligonucleotide-direct
p1853
aVDelay
p1854
aVIgkappa
p1855
aVanti-thrombin
p1856
aVA-induc
p1857
aVTINUR
p1858
aVglycogen
p1859
aVRXR-specif
p1860
aVAffinity-driven
p1861
aVoctam
p1862
aV2-revers
p1863
aVTH-depend
p1864
aVhigher
p1865
aVfkhrl1
p1866
aVActiviti
p1867
aV-CD16
p1868
aVStat3alpha
p1869
aVX-rays-induc
p1870
aVRaf1
p1871
aVCon
p1872
aVRXR
p1873
aVIi-express
p1874
aVKB-enhanc
p1875
aVhalf-maxim
p1876
aV-associ
p1877
aVelev
p1878
aVBCL6
p1879
aVdose-depend
p1880
aVexplan
p1881
aVPKC-zeta
p1882
aVJNK1
p1883
aVc-fos
p1884
aVhck
p1885
aVhigher-affin
p1886
aVeffector
p1887
aVCREB-bind
p1888
aVCCK
p1889
aVoff-rat
p1890
aVpro-interleukin
p1891
aVdepriv
p1892
aVbcl6
p1893
aVNFATp
p1894
aVneutrophil-medi
p1895
aVhelper-induc
p1896
aVstimul
p1897
aVacid-respons
p1898
aVp27Kip1
p1899
aVETS1
p1900
aVCCAAT/enhanc
p1901
aVNFATc
p1902
aVp21ras
p1903
aVSialoadhesin
p1904
aVAIDS-associ
p1905
aVB7.1
p1906
aVTAT
p1907
aVOf
p1908
aVcatalas
p1909
aVInducibl
p1910
aVhost-deriv
p1911
aVE2F-depend
p1912
aVCyclinD2
p1913
aVB/CD28
p1914
aVnNOS
p1915
aVNFAT4
p1916
aVglucocorticoid-resist
p1917
aVNFAT1
p1918
aVNFAT2
p1919
aVNFAT3
p1920
aVhTLR2
p1921
aVdown-modul
p1922
aVstaphylococc
p1923
aVCostimul
p1924
aVLigand
p1925
aVPattern
p1926
aVstrongest
p1927
aV-independ
p1928
aVinterferon-regul
p1929
aVMeCP
p1930
aVDNA-protein
p1931
aVtrypsin-resist
p1932
aVTCR-induc
p1933
aVCD3-activ
p1934
aVAllergen-specif
p1935
aVP450IA1
p1936
aVhalf-sit
p1937
aVrecognit
p1938
aVB7
p1939
aVCNS-deriv
p1940
aVsyncytia-form
p1941
aVIg-mediat
p1942
aV/p300
p1943
aVHEB
p1944
aVI/i
p1945
aVTCR-signal
p1946
aVmCD14
p1947
aVcascad
p1948
aVegr-1
p1949
aVegr-2
p1950
aVegr-3
p1951
aVEpo
p1952
aVPI3K-depend
p1953
aVC5a
p1954
aVNF-IL-6
p1955
aVSynerg
p1956
aVby
p1957
aV/ATF
p1958
aV-EVI1
p1959
aVEnhancer
p1960
aVELAM-1
p1961
aVReplac
p1962
aVphytohemagglutin
p1963
aV/p75
p1964
aV-signal
p1965
aVTFIIB
p1966
aVTFIIE
p1967
aVleukocyte-deriv
p1968
aVNP-5
p1969
aVhEpoR
p1970
aVNP-1
p1971
aVgamma
p1972
aVantisens
p1973
aVglycoprotein
p1974
aVbeta-g
p1975
aVinto
p1976
aVdispens
p1977
aVBiosynthesi
p1978
aVECS-depend
p1979
aVcdk6
p1980
aVInterferon-gamma
p1981
aVLPS-respons
p1982
aVoccupi
p1983
aVmegakaryocyte-specif
p1984
aVcontext-specif
p1985
aVNeutral
p1986
aVNef
p1987
aVanti-CR1
p1988
aVBCR-induc
p1989
aVTissu
p1990
aVGLRP
p1991
aVB-specif
p1992
aVSteel
p1993
aVretino
p1994
aVAP-1-regul
p1995
aVEnforc
p1996
aVlink
p1997
aVdelta
p1998
aVtransient-transfect
p1999
aVFcR-mediat
p2000
aVEffect
p2001
aVstem-loop
p2002
aV/Epo-R
p2003
aVtranslation-depend
p2004
aVBfl-1
p2005
aVTransactiv
p2006
aVpromoter/luciferas
p2007
aVLPS/IFN-gamma
p2008
aVpromoter-chloramphenicol
p2009
aVInterleukin
p2010
aVLFA-3
p2011
aVearly-respons
p2012
aVconstant
p2013
aVestrogen
p2014
aVphytohemaglutinin
p2015
aVhemin-medi
p2016
aV/CD18
p2017
aVHPRT
p2018
aVRepress
p2019
aVtrans-act
p2020
aVTo
p2021
aVPKCalpha
p2022
aVburst-form
p2023
aVFcgammaRI
p2024
aVTCF-1
p2025
aVOct-bind
p2026
aVTCF-2
p2027
aV-defici
p2028
aVIKKalpha
p2029
aVIFN-alpha
p2030
aVMax
p2031
aVIL-4STAT
p2032
aVplatelet-endotheli
p2033
aVTF
p2034
aVfibrinogen-deriv
p2035
aVimmunoprecipit
p2036
aV-p50
p2037
aVGAS-bind
p2038
aVTNF-mediat
p2039
aVHB-EGF
p2040
aVLT-betaR
p2041
aVII-negat
p2042
aVAR
p2043
aVAT
p2044
aVGATA-factor
p2045
aV3-kinase-link
p2046
aVenzym
p2047
aVinterferon-respons
p2048
aVpromoter/chloramphenicol
p2049
aVACT-1-activ
p2050
aVAh
p2051
aVPMA-depend
p2052
aVNF-AT-direct
p2053
aVAt
p2054
aVCRP1
p2055
aVrepeat-direct
p2056
aVtal-1
p2057
aVDetect
p2058
aVB-cell
p2059
aVTCR-depend
p2060
aVresynthes
p2061
aVJurkat-deriv
p2062
aVAPC-driven
p2063
aVpurine-box/ARRE/NF-AT
p2064
aVIL-1-mediat
p2065
aVuracil-DNA
p2066
aVSp1
p2067
aVSp3
p2068
aVcore-bind
p2069
aVELK-1
p2070
aVIRAK2
p2071
aVMechan
p2072
aV-mediat
p2073
aVCD33
p2074
aVcoproduc
p2075
aVIL-2R-alpha
p2076
aVEpstein-Barr
p2077
aVGATA3
p2078
aVGATA1
p2079
aVgranulocyte/macrophag
p2080
aVanti-CD3-activ
p2081
aVLITAF
p2082
aVgene-nonexpress
p2083
aVOVA
p2084
aVSpl
p2085
aVantigen-driven
p2086
aVLAP
p2087
aVSelect
p2088
aVc-abl
p2089
aVIPF1
p2090
aVB7-2
p2091
aVGATA/ER
p2092
aVTip-associ
p2093
aVpStat6
p2094
aVpStat3
p2095
aVATF-1
p2096
aVcotransfect
p2097
aVbeta-actin
p2098
aVacid
p2099
aV/p85
p2100
aVcytokine-induc
p2101
aVsnRNA
p2102
aVXIST
p2103
aVundetect
p2104
aVrate
p2105
aVco-migr
p2106
aV-link
p2107
aVaffin
p2108
aVStatG
p2109
aVISG15
p2110
aV-Produc
p2111
aVFasL
p2112
aVPKC-depend
p2113
aVPDGF-B
p2114
aVStat6
p2115
aV-p56
p2116
aV/Egr
p2117
aVStat3
p2118
aVStat1
p2119
aVRevers
p2120
aVDeregul
p2121
aVAhR
p2122
aVlymphotoxin-beta
p2123
aVtransmembran
p2124
aVCalcium/calmodulin-depend
p2125
aVcell-restrict
p2126
aVCBP
p2127
aVinsulin
p2128
aVunderphosphoryl
p2129
aVchang
p2130
aVHigh-level
p2131
aVcontrol
p2132
aVRALDH2
p2133
aVExclusion
p2134
aVanti-ICAM-1
p2135
aVRAG-1
p2136
aVD-mediat
p2137
aVFN
p2138
aVTGF-beta2
p2139
aVuse
p2140
aVfrom
p2141
aVATF2
p2142
aVCIITA
p2143
aVlipopolysaccharide-medi
p2144
aVPG490
p2145
aVfactor-AT
p2146
aVglucocorticoid-sensit
p2147
aVetoposide-tr
p2148
aV21-base-pair
p2149
aV/p65
p2150
aVFc
p2151
aVmulti-protein
p2152
aVphoQ
p2153
aVphoP
p2154
aVOctamer-depend
p2155
aVBS-II-revers
p2156
aVAML1
p2157
aVDefin
p2158
aVUpregul
p2159
aVRelief
p2160
aV/anti-CD
p2161
aVheme-respons
p2162
aVkinase-specif
p2163
aVp16INK4a
p2164
aVacetate-induc
p2165
aVaugment
p2166
aVHSF2-beta
p2167
aVerythroid
p2168
aVRBC-induc
p2169
aVcdc-2
p2170
aVinhibitor
p2171
aVB-contain
p2172
aVEBNA-2
p2173
aV-interf
p2174
aVNF-AT-1
p2175
aVtat
p2176
aVintermediate-depend
p2177
aVneutrophil-specif
p2178
aVprocess
p2179
aVlymphotoxin
p2180
aVtax
p2181
aVInactiv
p2182
aVmonocyte-specif
p2183
aVhigh
p2184
aVOct-1
p2185
aVOct-2
p2186
aVOct-4
p2187
aVOct-6
p2188
aVredox-regul
p2189
aVpromoter-enhanc
p2190
aVbcr-abl
p2191
aVserum
p2192
aVtransgen
p2193
aVERK
p2194
aVPHA-stimul
p2195
aV/CD69
p2196
aVM-TAT/GM-CSF
p2197
aVleukemia
p2198
aVAssociat
p2199
aVGal4-BD-CREB-1
p2200
aVenhancer-medi
p2201
aVgammac
p2202
aVLdb-1
p2203
aVproteasome-medi
p2204
aVattenu
p2205
aVco-transfect
p2206
aVEBV-associ
p2207
aVCCl4-induc
p2208
aVATRA-treat
p2209
aVessenti
p2210
aVHIV
p2211
aVbind
p2212
aVlipopolysaccharide-activ
p2213
aVOct2
p2214
aVelement
p2215
aVResist
p2216
aVMBD4
p2217
aVMBD1
p2218
aVallow
p2219
aVMBD2
p2220
aVplatelet-activ
p2221
aVtranscription-enhanc
p2222
aVCa2
p2223
aVrapamycin-medi
p2224
aVauto-regul
p2225
aVTrigger
p2226
aV/TAN
p2227
aVpore-form
p2228
aVligand-receptor
p2229
aVdelay
p2230
aVPEBP2
p2231
aVhigh-antigen-dose-induc
p2232
aVIkappaBbeta
p2233
aVMCP-1
p2234
aVmafK
p2235
aVRAR
p2236
aVFGF
p2237
aVsuppressor
p2238
aVKJ1-26
p2239
aVshear-induc
p2240
aVNFAT-1
p2241
aVsubset-specif
p2242
aVIFN-beta
p2243
aVNFAT-depend
p2244
aVc-Raf-1
p2245
aVelement-contain
p2246
aVfacilit
p2247
aVp16
p2248
aVX-ray-treat
p2249
aVKrox-24
p2250
aVActivat
p2251
aVcalmodulin-depend
p2252
aVAntisens
p2253
aVAb-associ
p2254
aVGrb2
p2255
aVanti-Eom
p2256
aVRORgammat
p2257
aVMn
p2258
aVRaf-1
p2259
aVSTAT
p2260
aVFrom
p2261
aVROI-reactiv
p2262
aVId-3
p2263
aV/LFA
p2264
aVCaMKIV
p2265
aVstromal-deriv
p2266
aVfibronectin
p2267
aVreceptor-ligand
p2268
aVchain-specif
p2269
aVIFN
p2270
aVmatrix
p2271
aVinfluenc
p2272
aVSequenc
p2273
aVphosphoryl
p2274
aVMi-2-HDAC
p2275
aVrepress
p2276
aVPKB
p2277
aVPKC
p2278
aVrel
p2279
aVBHRF1
p2280
aVsubset-restrict
p2281
aVregulatori
p2282
aVTcR-deriv
p2283
aVcoregul
p2284
aVnuclear-activ
p2285
aVAnti-CD40
p2286
aV-11
p2287
aV-10
p2288
aV/P50
p2289
aVreleas
p2290
aVtrans-activ
p2291
aVIL-1ra
p2292
aVPhoQ
p2293
aVPhoP
p2294
aVthymus-depend
p2295
aVnon-antigen-select
p2296
aVMIBP1
p2297
aVFoxO1
p2298
aVConstant
p2299
aVrhIL-2
p2300
aVCo-express
p2301
aVnucleotide-depend
p2302
aVTcl-5
p2303
aVdown-regulatori
p2304
aVglucos
p2305
aVsteroid-induc
p2306
aVpFA-Tax
p2307
aVPAFR
p2308
aVdual-specif
p2309
aVcapac
p2310
aVRch1
p2311
aVT-Cell
p2312
aVc-rel
p2313
aVtyrosin
p2314
aVIL-12-induc
p2315
aVselenium-depriv
p2316
aVLT-beta
p2317
aVBind
p2318
aVTCR/CD3-signal
p2319
aVaccompani
p2320
aVpotent
p2321
aVCREB-induc
p2322
aVdiminish
p2323
aVtat-I
p2324
aVPE-conjug
p2325
aVCD106
p2326
aVkappaB-Sp1
p2327
aV/p50
p2328
aVsensit
p2329
aVAggregat
p2330
aVGal/ER
p2331
aVexhibit
p2332
aVIFNalpha-induc
p2333
aVRAP74
p2334
aVGal4-BD-Tax
p2335
aVSTAT-depend
p2336
aVConsequ
p2337
aVligand-depend
p2338
aVSecret
p2339
aVoctamer-bound
p2340
aVneed
p2341
aVEBNA2
p2342
aVOct1
p2343
aVLDL-receptor
p2344
aVPan
p2345
aVUSF
p2346
aVthyroglobulin
p2347
aVNK-deriv
p2348
aVp59fyn
p2349
aVHTLV-I-associ
p2350
aVAfter
p2351
aVgrowth-rel
p2352
aVMEK2
p2353
aVMEK1
p2354
aVpreced
p2355
aVacid-induc
p2356
aVMEK5
p2357
aVRemov
p2358
aVGlycation-depend
p2359
aVUV-induc
p2360
aVCore-specif
p2361
aVGRE-specif
p2362
aVmethylation-resist
p2363
aVMac-1
p2364
aVCPP32
p2365
aVPMA-mediat
p2366
aVM-TAT/EPO
p2367
aVNF-ATp
p2368
aVM-CSF
p2369
aVtranscript
p2370
aVclass
p2371
aVGIG18
p2372
aVERK1
p2373
aVERK2
p2374
aVfilaria-induc
p2375
aV-sensit
p2376
aVhalf-lif
p2377
aVGFP
p2378
aVCRE-mediat
p2379
aVstronger
p2380
aVNOTCH1
p2381
aVPotent
p2382
aVB-respons
p2383
aVEGR2
p2384
aVBlockad
p2385
aVVLA-4
p2386
aVdetermin
p2387
aVKBF1
p2388
aVHSF1
p2389
aVHSF2
p2390
aVtime-depend
p2391
aVparticip
p2392
aVUSA-deriv
p2393
aVTransloc
p2394
aVmonocyte/B-cell-specif
p2395
aVUnder
p2396
aVhigh-level
p2397
aVNGFI-B
p2398
aVNGFI-A
p2399
aVFKHRL1
p2400
aVCompetit
p2401
aVhighest
p2402
aVYY-1
p2403
aV(
aVderepress
p2404
aVprolong
p2405
aVFoxo3a
p2406
aVStrong
p2407
aVTranscript
p2408
aVcontribut
p2409
aVGPA
p2410
aVGPX
p2411
aVhormone-bind
p2412
aVp70
p2413
aVanti-lambda
p2414
aVantagonist
p2415
aVNIK
p2416
aVenabl
p2417
aViNOS
p2418
aVEts1
p2419
aV-negat
p2420
aVbeta-casein
p2421
aVredox-regulatori
p2422
aVZXDB
p2423
aVProtein
p2424
aVgene-suppress
p2425
aVDNaseI
p2426
aVOFT-2
p2427
aVOFT-1
p2428
aVRac1
p2429
aVMEK-depend
p2430
aVinterleukin-1-beta
p2431
aVOBF-1
p2432
aVp24
p2433
aVp27
p2434
aVPR
p2435
aVFcR-depend
p2436
aVPU
p2437
aVC5a-stimul
p2438
aVG-protein
p2439
aVARE-contain
p2440
aVfavor
p2441
aVbisulfite-tr
p2442
aVPI
p2443
aVcomplement
p2444
aVmitogen-activ
p2445
aV/MAD
p2446
aVE47
p2447
aVelimin
p2448
aVTNF-treat
p2449
aVmotif-specif
p2450
aVcytokine-activ
p2451
aVStudi
p2452
aVaddit
p2453
aVoctamer-depend
p2454
aVCR1
p2455
aVRNA
p2456
aVchloram-phenicol
p2457
aVself-sustain
p2458
aVNF-kappaB-driven
p2459
aV-CD40
p2460
aVResult
p2461
aVDose-respons
p2462
aVHMG-I
p2463
aVChloramphenicol
p2464
aVCD4
p2465
aVCD5
p2466
aVenhancer-zeta
p2467
aVCD7
p2468
aVLow
p2469
aVCD2
p2470
aVCD3
p2471
aVbeta-catenin
p2472
aVphosphorylation-defect
p2473
aVCD8
p2474
aVmonocyte-medi
p2475
aVSTAT6
p2476
aVSTAT5
p2477
aVSTAT4
p2478
aVSTAT3
p2479
aVSTAT2
p2480
aVSTAT1
p2481
aVretinoid-X
p2482
aVoriP
p2483
aVCD80
p2484
aVJun
p2485
aVGATA-2
p2486
aVinsuffici
p2487
aVcytokine-depend
p2488
aVPMA-induc
p2489
aVALF1
p2490
aVtreat
p2491
aVActive
p2492
aVNF-AT-depend
p2493
aVtransactivator-induc
p2494
aVRA
p2495
aVprotein-protein
p2496
aVManLAM-medi
p2497
aVDeath-induc
p2498
aVOBF
p2499
aVpresenc
p2500
aVTFIIIB90
p2501
aVCD69
p2502
aVCD68
p2503
aVBLR1
p2504
aVPHKA1
p2505
aVpresent
p2506
aVlymphocyt
p2507
aVplatelet/endotheli
p2508
aVfluorophosphate-thrombin
p2509
aVimplic
p2510
aVdefin
p2511
aVmurin
p2512
aVPU.1
p2513
aVCotransfect
p2514
aVobserv
p2515
aVNF-IL6
p2516
aVratio-depend
p2517
aVTPA-depend
p2518
aVmutant
p2519
aVengag
p2520
aV/I
p2521
aVinterleukin-12
p2522
aVpromoter-CAT
p2523
aVinterleukin-10
p2524
aVEngagement
p2525
aVchloramphenicol
p2526
aV-Elf-1
p2527
aVpartner
p2528
aVEBV-induc
p2529
aVProduct
p2530
aVproteasome-depend
p2531
aVTpl-2
p2532
aVTNFRI
p2533
aVIkBalpha
p2534
aVthyrotropin
p2535
aVanti-C/EBPbeta
p2536
aVstress-induc
p2537
aVmultim
p2538
aVB-direct
p2539
aV/p44
p2540
aVpost-receptor
p2541
aVMBP
p2542
aVEBNA
p2543
aVNF-AT
p2544
aVeosinophil-activ
p2545
aVcalcium-medi
p2546
aVGC-mediat
p2547
aVc-Myc
p2548
aVc-Myb
p2549
aVupon
p2550
aVeffect
p2551
aVIFN-alpha-activ
p2552
aVGATA-associ
p2553
aVpro-interleukin-1beta
p2554
aVanti-TNF
p2555
aVanti-NF-ATp
p2556
aVFK506-sensit
p2557
aVup-regul
p2558
aVAttenuat
p2559
aVtranfect
p2560
aVanti-NF-ATc
p2561
aVthrombomodulin
p2562
aV/5
p2563
aVJun-B
p2564
aV/3
p2565
aV/2
p2566
aVADP-activ
p2567
aVCD11c
p2568
aVactivation-driven
p2569
aVcytokine-specif
p2570
aVsingle-posit
p2571
aVless
p2572
aVobtain
p2573
aVreplenish
p2574
aVBW
p2575
aVanti-IL10
p2576
aVshuttl
p2577
aV-CD30L
p2578
aVabolish
p2579
aVtyrosine-phosphoryl
p2580
aVlow-level
p2581
aVp55TNF-R
p2582
aVNF-kappaB-independ
p2583
aVcerulein-induc
p2584
aVester-respons
p2585
aVnonrespons
p2586
aVNO-induc
p2587
aV26S
p2588
aVc-MYC
p2589
aVCK-1
p2590
aVGPI-1
p2591
aV5
aV/E2A
p2592
aVBy
p2593
aVinterferon-induc
p2594
aVproIL-1
p2595
aVRpd3p
p2596
aVadipocyt
p2597
aVIFP53
p2598
aVATF1
p2599
aVferritin
p2600
aVOX-40
p2601
aVLimit
p2602
aVT
aVlectin-activ
p2603
aVpagC
p2604
aVbcl2
p2605
aVloss
p2606
aV/MUM1
p2607
aVIL-18
p2608
aVlost
p2609
aVsuper-induct
p2610
aVnecessari
p2611
aVB2
p2612
aVlose
p2613
aVTNF
p2614
aVDNMT3B
p2615
aVCD45RO
p2616
aVporphobilinogen
p2617
aVAddition
p2618
aVIL-12
p2619
aVInteract
p2620
aVNFATx1
p2621
aVMZF-1
p2622
aVPGE2-mediat
p2623
aVRunx3
p2624
aVL-selectin
p2625
aVRunx1
p2626
aVexport
p2627
aV/nur77
p2628
aVglucocorticoid-induc
p2629
aVmacrophag
p2630
aVGal4
p2631
aVFoxp3
p2632
aVgamma-activ
p2633
aVlead
p2634
aVCSF-1
p2635
aVICSBP
p2636
aV-protein
p2637
aVligand-induc
p2638
aV-transfect
p2639
aVOSM
p2640
aVsequenc
p2641
aVmitogen-stimul
p2642
aV-binding-protein
p2643
aVregain
p2644
aVsystem-deriv
p2645
aVMyc
p2646
aVglucose-stimul
p2647
aVsite-depend
p2648
aVE2F-bind
p2649
aVp38
p2650
aVanti-Fa
p2651
aVanti-Fo
p2652
aVsialoadhesin
p2653
aVNM23
p2654
aV/MEK2
p2655
aVETV6
p2656
aVT-box
p2657
aVImpair
p2658
aVmyeloid
p2659
aVinclud
p2660
aVreverse-transcrib
p2661
aVAMP-respons
p2662
aVPit-1
p2663
aVcytokine-mRNA
p2664
aVDRA
p2665
aVFOSB
p2666
aVhToll-induc
p2667
aVreceptor
p2668
aVdamage-induc
p2669
aVPan-2
p2670
aVPan-1
p2671
aVsecond-sit
p2672
aVPeroxisom
p2673
aVheterodim
p2674
aVPit-1b
p2675
aVtransfer
p2676
aVLmo2
p2677
aVUpon
p2678
aVCoexpress
p2679
aVp-FoxO1
p2680
aV9.3
p2681
aVfunction
p2682
aVC/EBPalpha
p2683
aVproto-enhanc
p2684
aVMethylation-sensit
p2685
aVanti-TF
p2686
aVDifferentiation-depend
p2687
aV/NFATc3
p2688
aVDNasel
p2689
aVII-posit
p2690
aVneutral
p2691
aVmyeloid-cell-specif
p2692
aVC2
p2693
aVSIT
p2694
aVNFAT-driven
p2695
aVHsN3
p2696
aVc-fms
p2697
aVcold-shock-induc
p2698
aVmade
p2699
aVNF-kappaB/NF-AT
p2700
aVc-ABL
p2701
aVIFNA2
p2702
aVdeoxyribonucleas
p2703
aVHMG-CoA
p2704
aVTATA
p2705
aVfaster-migr
p2706
aVkappaB-respons
p2707
aVlimit
p2708
aVElevat
p2709
aVsynerg
p2710
aV/Oct
p2711
aVimmobil
p2712
aVIL2Rbeta
p2713
aVCD54
p2714
aVmedia-stimul
p2715
aV-p65
p2716
aVdure
p2717
aVSite
p2718
aVCIS
p2719
aVB-cell-specif
p2720
aVTAL1
p2721
aVactivation-depend
p2722
aVp50B
p2723
aVthioredoxin
p2724
aVFunction
p2725
aVcaspase-3
p2726
aVGener
p2727
aVionomycin-induc
p2728
aVDOX-treat
p2729
aVPU-1
p2730
aVtemperature-sensit
p2731
aVpentoxifylline-medi
p2732
aVJak3
p2733
aV/beta
p2734
aVEome
p2735
aVHIV-proteas
p2736
aV-contain
p2737
aVoxidant-induc
p2738
aVTBP-1
p2739
aVcrosslink
p2740
aVpreform
p2741
aVAct
p2742
aVcycle-depend
p2743
aVpertussis-toxin-sensit
p2744
aValpha-interferon
p2745
aVgp120
p2746
aVc-myc
p2747
aVc-myb
p2748
aVjunB
p2749
aVThromboxan
p2750
aVB-induc
p2751
aVanti-kappa
p2752
aVphoP-activ
p2753
aVbcr
p2754
a.