(lp1
Vupregul
p2
aVwhen
p3
aVlack
p4
aVinactiv
p5
aVthrough
p6
aVfollow
p7
aVinvolv
p8
aVdepend
p9
aVoverexpress
p10
aVstimul
p11
aVactiv
p12
aVto
p13
aVlocal
p14
aValter
p15
aVInhibit
p16
aVcontribut
p17
aVformat
p18
aVexpress
p19
aVcoexpress
p20
aV-produc
p21
aVincreas
p22
aVaffect
p23
aVActivat
p24
aVrequir
p25
aVinduct
p26
aVloss
p27
aVlevel
p28
aVnegat
p29
aV-negat
p30
aVnecessari
p31
aVmediat
p32
aVprevent
p33
aVDNA-bind
p34
aVresult
p35
aVrespons
p36
aVdefici
p37
aVreduct
p38
aVdetect
p39
aVlead
p40
aVinfluenc
p41
aVphosphoryl
p42
aVtranscrib
p43
aVrepress
p44
aV-posit
p45
aVimport
p46
aVdepriv
p47
aVled
p48
aVLPS-induc
p49
aVinduc
p50
aVpromot
p51
aVmRNA
p52
aVreleas
p53
aVRegul
p54
aVtrans-activ
p55
aVby
p56
aVof
p57
aVchang
p58
aVproduc
p59
aVblock
p60
aVdeclin
p61
aVOverexpress
p62
aVmodul
p63
aVPhosphoryl
p64
aVbound
p65
aVtransactiv
p66
aV-induc
p67
aVheterodim
p68
aVtranscript
p69
aVinteract
p70
aVdue
p71
aVaccumul
p72
aVsecret
p73
aVPMA-induc
p74
aVIncreas
p75
aVcross-link
p76
aVregul
p77
aVsuppress
p78
aVenhanc
p79
aVdiminish
p80
aVExpression
p81
aVpresent
p82
aVimpair
p83
aVinhibit
p84
aVdownregul
p85
aVtarget
p86
aVaugment
p87
aVrecruit
p88
aVabsenc
p89
aVup-regul
p90
aVdown-regul
p91
aVinhibitor
p92
aVcontrol
p93
aVengag
p94
aVdefect
p95
aVhigh
p96
aVdecreas
p97
aVgenerat
p98
aVInduction
p99
aVoccur
p100
aVProduct
p101
aV-defici
p102
aV-express
p103
aVtransloc
p104
aVabolish
p105
aVligat
p106
aVcomplex
p107
aVrole
p108
aVproduct
p109
aVrecogn
p110
aVafter
p111
aVeffect
p112
aVabrog
p113
aVassoci
p114
aVunaffect
p115
aVsynthesi
p116
aVreduc
p117
aVstabil
p118
aVessenti
p119
aVbind
p120
aVtransfect
p121
aVcaus
p122
aVelev
p123
aVdegrad
p124
a.