(lp1
VDetect
p2
aVglucocorticoid-induc
p3
aVimmunoreact
p4
aVX-link
p5
aVphosphoryl
p6
aVlack
p7
aVTransgen
p8
aVcorrel
p9
aVabil
p10
aVfollow
p11
aVCross-link
p12
aVdepend
p13
aVB-bind
p14
aVoverexpress
p15
aVerythroid-specif
p16
aVunder
p17
aVNot
p18
aV-mediat
p19
aVintroduc
p20
aVAMP-depend
p21
aVsourc
p22
aVdownstream
p23
aVrise
p24
aVinhibit
p25
aVRA-induc
p26
aVutil
p27
aVmechan
p28
aVupstream
p29
aVPosit
p30
aVaffect
p31
aVinduct
p32
aVlevel
p33
aVstimulus
p34
aVCorrel
p35
aVGlucocorticoid-induc
p36
aVrepeat-driven
p37
aVSelect
p38
aVA-sensit
p39
aVprevent
p40
aVblood-deriv
p41
aVdirect
p42
aVmaintain
p43
aVconsequ
p44
aVrate
p45
aVaggreg
p46
aVcotransfect
p47
aVprecipit
p48
aVNFAT-bind
p49
aVundetect
p50
aVappear
p51
aVreceptor-medi
p52
aV+
aVtranscrib
p53
aVrate-limit
p54
aVEnhanc
p55
aVdelet
p56
aVPKC-depend
p57
aVLPS-treat
p58
aVBFU-E-deriv
p59
aVelimin
p60
aVdefici
p61
aVderiv
p62
aVLPS-induc
p63
aVRevers
p64
aVTATA-less
p65
aVmodif
p66
aVmRNA
p67
aVexcess
p68
aVstrong
p69
aVmodifi
p70
aVvalu
p71
aVHIV-mediat
p72
aVcell-restrict
p73
aVderegul
p74
aVsensit
p75
aVamount
p76
aVTissue-specif
p77
aVpermit
p78
aVaction
p79
aVstudi
p80
aVrepressor
p81
aVvia
p82
aVdeclin
p83
aVOverexpress
p84
aVmodul
p85
aVtwo-hybrid
p86
aVWhen
p87
aVblockad
p88
aVmobil
p89
aVselect
p90
aVuse
p91
aVRegul
p92
aVto
p93
aVliber
p94
aVPG490
p95
aVIFN-stimul
p96
aVimplic
p97
aVmulti-protein
p98
aVTax-respons
p99
aVmore
p100
aVB-depend
p101
aV-depend
p102
aVenhanc
p103
aV-bind
p104
aVloss
p105
aVcell-specif
p106
aVExpression
p107
aVhigh
p108
aVaccount
p109
aVaugment
p110
aVrestor
p111
aVagonist-induc
p112
aVfoci
p113
aVremain
p114
aVacid-sensit
p115
aVinhibitor
p116
aVcontrol
p117
aVprocess
p118
aVStimul
p119
aVmonocyte-specif
p120
aVcis-act
p121
aVimpair
p122
aVcritic
p123
aVligand-activ
p124
aVInduction
p125
aVoccur
p126
aVoccup
p127
aV-express
p128
aVdysregul
p129
aVtransgen
p130
aVligat
p131
aVconfin
p132
aVpathway
p133
aVproduct
p134
aVrecogn
p135
aVcis-regulatori
p136
aVdownmodul
p137
aVafter
p138
aVAssociat
p139
aVproteasome-medi
p140
aVattenu
p141
aVco-transfect
p142
aVEBV-associ
p143
aVassoci
p144
aVdemonstr
p145
aVstabil
p146
aVessenti
p147
aVlineage-specif
p148
aVbind
p149
aVDure
p150
aVtransfect
p151
aVester-induc
p152
aVcaus
p153
aVswitch
p154
aVReactiv
p155
aVcombin
p156
aVCTL-specif
p157
aVexclus
p158
aVproteolysi
p159
aVcell-deriv
p160
aVplatelet-activ
p161
aVreservoir
p162
aVover
p163
aVfailur
p164
aVE2F-mediat
p165
aV-treat
p166
aVSite
p167
aVNumber
p168
aVPMA-treat
p169
aVdelay
p170
aVgroup
p171
aVligand
p172
aVtreat
p173
aVmyeloid-specif
p174
aVrequir
p175
aVpersist
p176
aVUsing
p177
aVunalt
p178
aVglucocorticoid-medi
p179
aVoctamer-bind
p180
aVreturn
p181
aVpromin
p182
aViniti
p183
aVautoregul
p184
aVcyclin-depend
p185
aVfacilit
p186
aVnot
p187
aVCREB-depend
p188
aVActivat
p189
aVControl
p190
aVcoimmunoprecipit
p191
aVantigen-pres
p192
aVrevers
p193
aVrevert
p194
aVself-react
p195
aVreactiv
p196
aVdepriv
p197
aVfound
p198
aVligand-bind
p199
aVH2O2-induc
p200
aVpresenc
p201
aVhemin-induc
p202
aVFrom
p203
aVTCR-stimul
p204
aVreplac
p205
aVmyeloid-cell-specif
p206
aVFactor
p207
aVB-cell-specif
p208
aVreduct
p209
aVMore
p210
aVaccomplish
p211
aVcolony-stimul
p212
aVinfluenc
p213
aVSuppress
p214
aVActiviti
p215
aVcrucial
p216
aVinactiv
p217
aVrepress
p218
aVsustain
p219
aV-posit
p220
aVsteroid-regul
p221
aVmigrat
p222
aVantigen-specif
p223
aV-driven
p224
aVreleas
p225
aVChang
p226
aVtrans-activ
p227
aVdifferentiation-depend
p228
aVlocal
p229
aVrecov
p230
aVturn
p231
aVInvolvement
p232
aVdimer
p233
aVundergo
p234
aVSite-direct
p235
aVoper
p236
aVheme-tr
p237
aVAP-1
p238
aVindepend
p239
aVPhosphoryl
p240
aVnumber
p241
aVcapac
p242
aVrestrict
p243
aVtransactiv
p244
aVoppos
p245
aVCotransfect
p246
aVinteract
p247
aVEffect
p248
aVhematopoietic-specif
p249
aVsilenc
p250
aVcompos
p251
aVIncreas
p252
aVnegative-act
p253
aVcross-link
p254
aVallergen-specif
p255
aVintegrin-medi
p256
aVinclud
p257
aVcis-el
p258
aVthat
p259
aVcompens
p260
aVDNA-bind
p261
aVsignal-depend
p262
aVaccompani
p263
aVdiminish
p264
aV-respons
p265
aVPE-conjug
p266
aVGATA-bind
p267
aVtarget
p268
aVlipopolysaccharide-induc
p269
aVprovid
p270
aVremov
p271
aVrecruit
p272
aVactivation-induc
p273
aVlectin
p274
aVposit
p275
aVproteolyt
p276
aVCACCC-bind
p277
aVare
p278
aVexhibit
p279
aVexert
p280
aVdefect
p281
aVConsequ
p282
aVT-cell-specif
p283
aVneed
p284
aVelement
p285
aVNF-kappaB-depend
p286
aVequival
p287
aVAfter
p288
aVNF-AT-bind
p289
aVImportant
p290
aVcytokine-induc
p291
aVBind
p292
aVWith
p293
aVRequir
p294
aVUV-induc
p295
aVled
p296
aVdistribut
p297
aVreact
p298
aVpair
p299
aVTCR-mediat
p300
aVtranscript
p301
aVsynthesi
p302
aVPlatelet-activ
p303
aVhalf-lif
p304
aVrescu
p305
aVvirus-induc
p306
aVdrive
p307
aVdoe
p308
aVHigh
p309
aVabnorm
p310
aVdetermin
p311
aVpattern
p312
aVsquelch
p313
aVupregul
p314
aVtime-depend
p315
aVshow
p316
aVopposit
p317
aVaffin
p318
aVsequenc
p319
aVRole
p320
aVUnder
p321
aV-mRNA
p322
aVhigh-level
p323
aVTNF-induc
p324
aVheterodimer
p325
aVinvolv
p326
aVdespit
p327
aVInhibitor
p328
aVineffect
p329
aVloss-of-funct
p330
aVtrue
p331
aVactiv
p332
aVprolong
p333
aVanalyz
p334
aVfactor
p335
aVstain
p336
aVTranscript
p337
aVmitogen-induc
p338
aVcontribut
p339
aVexpress
p340
aVregulatori
p341
aVcytokine-stimul
p342
aVcoexpress
p343
aV-produc
p344
aVincreas
p345
aVG-protein-coupl
p346
aVenabl
p347
aVOver
p348
aVsynthes
p349
aV-negat
p350
aVmediat
p351
aVcontain
p352
aVthrough
p353
aVProtein
p354
aVrespond
p355
aVNF-kappaB-bind
p356
aVCsA-sensit
p357
aVdominant-neg
p358
aVFor
p359
aVpotent
p360
aVMaxim
p361
aVresist
p362
aVDelet
p363
aVresult
p364
aVrespons
p365
aVfail
p366
aV-activ
p367
aVsubject
p368
aVdetect
p369
aVThat
p370
aVvari
p371
aVparticip
p372
aVfavor
p373
aVinhibitori
p374
aVimport
p375
aVinduc
p376
aVmitogen-activ
p377
aVattribut
p378
aVinabl
p379
aVTarget
p380
aVscreen
p381
aVweak
p382
aVTransfect
p383
aVelement-bind
p384
aVStudi
p385
aVcAMP-respons
p386
aVpromoter-driven
p387
aVaddit
p388
aVoctamer-depend
p389
aVsynerg
p390
aVRNA
p391
aVResult
p392
aVacceler
p393
aVAP-1-bind
p394
aVreceptor-associ
p395
aVLow
p396
aVpost-transcript
p397
aVimmobil
p398
aVLPS-stimul
p399
aVinvers
p400
aVperpetu
p401
aVsequence-specif
p402
aVaccumul
p403
aVsecret
p404
aVtrigger
p405
aVPromot
p406
aVlymphoid-specif
p407
aVhomodim
p408
aVprotein-protein
p409
aVGA-bind
p410
aVregul
p411
aVsuppress
p412
aV-
aVsuscept
p413
aVD-respons
p414
aVNF-AT
p415
aVefficaci
p416
aVpresent
p417
aV-secret
p418
aVdownregul
p419
aVEBV-induc
p420
aVdisrupt
p421
aVRESULTS
p422
aValter
p423
aVdefin
p424
aVbox-depend
p425
aVaberr
p426
aVFollow
p427
aVobserv
p428
aVloop
p429
aVmutant
p430
aVengag
p431
aVEngagement
p432
aVsite
p433
aVelicit
p434
aVpartner
p435
aVprotein
p436
aVProduct
p437
aVmake
p438
aVtransloc
p439
aVcell-type-specif
p440
aVcomplex
p441
aVsubunit
p442
aVhigher
p443
aVcompetit
p444
aVRestor
p445
aVenzym
p446
aVSignal
p447
aVupon
p448
aVeffect
p449
aVpreced
p450
aVdriven
p451
aVcapabl
p452
aVCCAAT/enhancer-bind
p453
aVchang
p454
aVlower
p455
aVup-regul
p456
aVstimuli
p457
aVwithout
p458
aV-associ
p459
aVelev
p460
aVdeplet
p461
aVMobil
p462
aVdose-depend
p463
aVADP-activ
p464
aVexplan
p465
aVidentifi
p466
aVabund
p467
aVless
p468
aVwhen
p469
aVlymphocyte-specif
p470
aVobtain
p471
aVcostimul
p472
aVeffector
p473
aVDOX-treat
p474
aVDisrupt
p475
aVconcentr
p476
aVantagonist
p477
aVhigh-affin
p478
aVinterfer
p479
aVstimul
p480
aVconjug
p481
aVrole
p482
aVsignal-induc
p483
aVBy
p484
aVacid-induc
p485
aVInhibit
p486
aVformat
p487
aVOf
p488
aVInducibl
p489
aVcell-associ
p490
aV-specif
p491
aVco-stimul
p492
aVmeasur
p493
aVmainten
p494
aV-stimul
p495
aVspecif
p496
aVsignal
p497
aVnegat
p498
aVCostimul
p499
aVnecessari
p500
aVAre
p501
aVcascad
p502
aVLPS-mediat
p503
aVunderli
p504
aVAddition
p505
aVInteract
p506
aVcell-medi
p507
aVmaxim
p508
aVstrongest
p509
aVtissue-specif
p510
aV-independ
p511
aVPKC-independ
p512
aVinterf
p513
aVintact
p514
aVPathway
p515
aVDNA-protein
p516
aVcooper
p517
aVfor
p518
aVestablish
p519
aV-protein
p520
aVligand-induc
p521
aVrecognit
p522
aVovercom
p523
aVcalcium-depend
p524
aVcondit
p525
aVcleavag
p526
aVcore
p527
aVFunction
p528
aVconfer
p529
aVpromot
p530
aVfrom
p531
aVby
p532
aVEnhancer
p533
aVCD8-posit
p534
aVcoupl
p535
aVof
p536
aVC5a-induc
p537
aVTPA-treat
p538
aVact
p539
aVproduc
p540
aVblock
p541
aVAT
p542
aVB-mediat
p543
aVantisens
p544
aVinto
p545
aVdispens
p546
aVbound
p547
aVtype-specif
p548
aVdue
p549
aVstage-specif
p550
aVreceptor
p551
aVmembrane-bound
p552
aVdamage-induc
p553
aVTAR-independ
p554
aVinsuffici
p555
aVgenotyp
p556
aVoccupi
p557
aV-induc
p558
aVheterodim
p559
aVsuffici
p560
aVtransfer
p561
aVsupport
p562
aVUpon
p563
aVlost
p564
aVPMA-induc
p565
aVlow
p566
aV:
aVB-specif
p567
aVfunction
p568
aVproto-enhanc
p569
aVform
p570
aVforc
p571
aVsite-direct
p572
aVPMA-stimul
p573
aVamplifi
p574
aVneutral
p575
aVlink
p576
aVNFAT-driven
p577
aVculmin
p578
aVhighest
p579
aVwith
p580
aVmethylation-sensit
p581
aVabsent
p582
aVmade
p583
aVLTR-driven
p584
aVmaximum
p585
aVconcentration-depend
p586
aVTransactiv
p587
aVlimit
p588
aVabsenc
p589
aVdown-regul
p590
aVTPA-induc
p591
aVDespit
p592
aVconstant
p593
aVstronger
p594
aVdure
p595
aVRepress
p596
aVtrans-act
p597
aVTo
p598
aVdecreas
p599
aVat
p600
aVAllergen-specif
p601
aVgenerat
p602
aVproport
p603
aVmultim
p604
aVassembl
p605
aV-defici
p606
aVEBV-posit
p607
aVallow
p608
aVhybrid
p609
aVabolish
p610
aVdex-resist
p611
aVcompet
p612
aVGTP-bind
p613
aVLTR-direct
p614
aVAt
p615
aVpoor
p616
aVimmunoprecipit
p617
aVcoactiv
p618
aVSpecif
p619
aVTNF-mediat
p620
aVNegat
p621
aV-contain
p622
aVcrosslink
p623
aVintens
p624
aVpeak
p625
aVabrog
p626
aVlipopolysaccharide-stimul
p627
aVunaffect
p628
aVreduc
p629
aVIL-1-induc
p630
aVlead
p631
aVDirect
p632
aVenhancer-bind
p633
aVpotenti
p634
aVSequenc
p635
aVdegrad
p636
aVmonocyte-deriv
p637
a.