(lp1
Vlimited
p2
aVIkappaB-alpha
p3
aV5
aVB-cell
p4
aVchain
p5
aVcytosol
p6
aVcaused
p7
aVboth
p8
aVactivated
p9
aVresults
p10
aV-binding
p11
aVfour
p12
aVknown
p13
aVefficient
p14
aVFig
p15
aVcooperative
p16
aVcoactivator
p17
aVactivates
p18
aVVav
p19
aVcytokines
p20
aVpoorly
p21
aVcontent
p22
aVamplification
p23
aVIL
p24
aVadhesion
p25
aVpretreatment
p26
aVpromote
p27
aVstably
p28
aVinteract
p29
aVcontaining
p30
aVto
p31
aVcritical
p32
aVtissue-specific
p33
aVmonocytes
p34
aVDNA-binding
p35
aVendogenous
p36
aVindicating
p37
aVinflammation
p38
aVPRE-I
p39
aVactivities
p40
aVhormone
p41
aVassay
p42
aVexpressing
p43
aVdownstream
p44
aVvery
p45
aVapoptosis
p46
aVactivation
p47
aVNF-kB
p48
aVinterleukin-1beta
p49
aVlymphomas
p50
aVsubunits
p51
aV-specific
p52
aVreplication
p53
aVnovel
p54
aVGC
p55
aVcellular
p56
aVupstream
p57
aVaffect
p58
aVmultiple
p59
aVh.
p60
aVmarkers
p61
aVTat
p62
aVleads
p63
aVand
p64
aVTranscriptional
p65
aVprogression
p66
aVlevel
p67
aVdid
p68
aVpositions
p69
aVCLE0
p70
aVshock
p71
aVTax
p72
aVprolonged
p73
aVphosphorylation
p74
aVGATA
p75
aVlarge
p76
aVIL10
p77
aVOVA
p78
aVform
p79
aV-3
p80
aVJNK
p81
aVenhance
p82
aVresponsiveness
p83
aVIFNs
p84
aVaccumulation
p85
aVprevent
p86
aVzinc
p87
aVfindings
p88
aVcore
p89
aVuse
p90
aVplatelet-activating
p91
aVTCR-mediated
p92
aVubiquitous
p93
aVcombination
p94
aVprogenitors
p95
aVrecruitment
p96
aVsecond
p97
aVactivity
p98
aVenhancement
p99
aVfurther
p100
aVacid
p101
aVtargets
p102
aVeven
p103
aVsynthesis
p104
aVplays
p105
aVH2O2
p106
aVrate
p107
aVinteractions
p108
aVwhile
p109
aVexpressed
p110
aVp95vav
p111
aVcell
p112
aVIgE
p113
aVB/Rel
p114
aVtransactivator
p115
aVremain
p116
aVnew
p117
aVRelA
p118
aVincreasing
p119
aVisoforms
p120
aVconsisting
p121
aVcontrast
p122
aVIgH
p123
aVdimerization
p124
aVOct-2A
p125
aVproliferation
p126
aVconstruct
p127
aVdegree
p128
aVreporter
p129
aVrespectively
p130
aVgenes
p131
aVcomponent
p132
aVhere
p133
aVhours
p134
aVreported
p135
aVVCAM-1
p136
aVsustained
p137
aVmRNA
p138
aValone
p139
aVlatent
p140
aV[
aVstrong
p141
aVappears
p142
aVchange
p143
aVobtained
p144
aVCBF
p145
aVprecursor
p146
aVinvolved
p147
aVstudy
p148
aVvectors
p149
aVEGR-1
p150
aVCpG
p151
aVamount
p152
aVresulting
p153
aVconstitutive
p154
aVHere
p155
aVSp1
p156
aVdomains
p157
aVgene
p158
aVstudies
p159
aVratio
p160
aVinvolves
p161
aVCD19
p162
aVinterferon
p163
aVglutathione
p164
aVstabilization
p165
aVThus
p166
aVfamily
p167
aVmobility
p168
aVinducing
p169
aVWhen
p170
aVmarked
p171
aVhighly
p172
aVmodulated
p173
aVdecrease
p174
aVTreatment
p175
aVprotein-1
p176
aVMAPK
p177
aVconcomitant
p178
aVtotal
p179
aVaberrant
p180
aVreceptor
p181
aVp40
p182
aVare
p183
aVStat
p184
aVe.g.
p185
aVremains
p186
aVpositive
p187
aVcontains
p188
aVenzyme
p189
aVproperties
p190
aVp105
p191
aVmonocytic
p192
aVmAb
p193
aVsequence
p194
aVtherefore
p195
aV6
aVassociated
p196
aVER
p197
aVtype
p198
aVstart
p199
aVmore
p200
aVLTR
p201
aVheterodimers
p202
aVinitiated
p203
aVAML1
p204
aVThese
p205
aVthus
p206
aVconstructs
p207
aVinfection
p208
aVit
p209
aVtested
p210
aVE2A
p211
aVtandem
p212
aVtransiently
p213
aVConstitutive
p214
aVparticular
p215
aVerythropoietin
p216
aVcases
p217
aVBcl-2
p218
aVExpression
p219
aVblocking
p220
aVall
p221
aVhigh
p222
aVcalcineurin
p223
aVOct-1
p224
aVthis
p225
aVmotif
p226
aVphosphorylated
p227
aVerythroid
p228
aVdramatically
p229
aVprotein-protein
p230
aVreduction
p231
aVoxide
p232
aVT-bet
p233
aVcan
p234
aVLMO
p235
aVfollowing
p236
aVOur
p237
aVICAM-1
p238
aVinhibitor
p239
aVcontrol
p240
aVNF-kappa
p241
aVhomodimers
p242
aVindicated
p243
aVprocess
p244
aVof
p245
aVin
p246
aVlysates
p247
aVCAT
p248
aVinvolve
p249
aVeffectively
p250
aVOct-2
p251
aVAbs
p252
aVblot
p253
aV-dependent
p254
aVpeptide
p255
aVInduction
p256
aVserum
p257
aVcDNA
p258
aV/
aVcrucial
p259
aVaging
p260
aVrespective
p261
aVrequirements
p262
aVdefective
p263
aVperforin
p264
aVprovide
p265
aVtype-specific
p266
aVActivation
p267
aVacts
p268
aVanti-CD3
p269
aVdamage
p270
aVspecies
p271
aVregions
p272
aVimmune
p273
aVadjacent
p274
aVactivator
p275
aVoptimal
p276
aVif
p277
aVspecific
p278
aVpathway
p279
aVtranslocation
p280
aVTFIID
p281
aVA
aVE-selectin
p282
aVproduct
p283
aVblocks
p284
aVmodulation
p285
aVOTF-2
p286
aVOTF-1
p287
aVreaction
p288
aVderived
p289
aVCD40
p290
aVresidues
p291
aVAkt
p292
aVSpecific
p293
aVCD40L
p294
aVproduce
p295
aVinduce
p296
aVdemonstrating
p297
aVsuch
p298
aVdata
p299
aVresponse
p300
aVtypes
p301
aVefficiently
p302
aVa
aVtranscripts
p303
aVstress
p304
aVinduction
p305
aVTNFalpha
p306
aVNFkappaB
p307
aVeffective
p308
aVP
aVenzymes
p309
aVrecombination
p310
aVelongation
p311
aVOne
p312
aVsuppressive
p313
aVcascade
p314
aVswitch
p315
aVgamma
p316
aVinteracts
p317
aVcytometry
p318
aVorder
p319
aVtriggering
p320
aVturnover
p321
aVesters
p322
aVIL-8
p323
aVtuberculosis
p324
aVB-dependent
p325
aVIL-4
p326
aVIL-5
p327
aVIL-6
p328
aVAP1
p329
aVmainly
p330
aVIL-1
p331
aVIL-2
p332
aVtranscriptionally
p333
aVproduced
p334
aVcourse
p335
aVtermed
p336
aVexperiments
p337
aVsame
p338
aVRb
p339
aVmodified
p340
aV2D3
p341
aVstaining
p342
aVstill
p343
aVactivating
p344
aVits
p345
aVpriming
p346
aV1
aVrapidly
p347
aVligand
p348
aVhow
p349
aVPRL
p350
aVtranslation
p351
aVFK506
p352
aVdecreases
p353
aVforms
p354
aVinterleukin-1
p355
aVabsence
p356
aVproduction
p357
aVtriggered
p358
aVantagonist
p359
aVdistal
p360
aVBinding
p361
aVdecreased
p362
aVuptake
p363
aVmaximal
p364
aVthen
p365
aVNFAT-1
p366
aVaffected
p367
aVdiseases
p368
aVOverexpression
p369
aVIFN-beta
p370
aVC3a
p371
aVsignificant
p372
aVAnalysis
p373
aVnumber
p374
aVester
p375
aVhypoxia
p376
aVtherapy
p377
aVeffects
p378
aVthey
p379
aVJurkat
p380
aVnot
p381
aVimpaired
p382
aVnow
p383
aVday
p384
aVassociation
p385
aVlineage
p386
aVionophore
p387
aVitself
p388
aVNef
p389
aVinducibility
p390
aVproteins
p391
aVFunctional
p392
aVIL-10
p393
aVevents
p394
aVstimulus
p395
aVRas
p396
aVeach
p397
aVRaf-1
p398
aVfound
p399
aVhigher
p400
aVPHA
p401
aVcharacterized
p402
aVsubset
p403
aVcytokine-induced
p404
aVSTAT
p405
aVactivate
p406
aVsignificantly
p407
aVEts
p408
aVgeneration
p409
aVTranscription
p410
aVtransient
p411
aVplatelets
p412
aVabnormal
p413
aVrelated
p414
aVdeficiency
p415
aV-stimulated
p416
aVhypothesis
p417
aV/p65
p418
aVhistocompatibility
p419
aVp38
p420
aVcytokine
p421
aVfactor-kappaB
p422
aVevent
p423
aVtransduction
p424
aVBCL-6
p425
aVIFN-gamma
p426
aVshown
p427
aVmediates
p428
aVfactors
p429
aVthrombin
p430
aVsince
p431
aVCsA
p432
aVplasmids
p433
aVviability
p434
aVincrease
p435
aVPKC
p436
aVmediated
p437
aVmessenger
p438
aVmotifs
p439
aVCD44
p440
aVsuggesting
p441
aVTwo
p442
aVinduced
p443
aVcause
p444
aVoccurs
p445
aVE3
p446
aVB-like
p447
aVU0126
p448
aVdown-regulation
p449
aVlocalization
p450
aVThis
p451
aVseveral
p452
aVmechanisms
p453
aVjunB
p454
aVEC
p455
aVleukemia
p456
aVadherence
p457
aVregulators
p458
aVbase
p459
aVformation
p460
aVoligonucleotide
p461
aVmembers
p462
aVbiological
p463
aVregulatory
p464
aVapproach
p465
aVmitogenic
p466
aVFoxp3
p467
aVadditional
p468
aV-deficient
p469
aVpairs
p470
aVinteraction
p471
aVmethylation
p472
aVTBP
p473
aVcould
p474
aVE2F
p475
aVFoxO1
p476
aVturn
p477
aVB-cell-specific
p478
aVIkappaBalpha
p479
aVdue
p480
aVtransfer
p481
aVCREB
p482
aVrepeats
p483
aVfacilitate
p484
aVstimulate
p485
aVfirst
p486
aVkey
p487
aVenhancer
p488
aVmajor
p489
aVkb
p490
aVantibody
p491
aVencoding
p492
aVAP-1
p493
aVAP-2
p494
aVvitro
p495
aVone
p496
aVCell
p497
aVoctamer-binding
p498
aVgeneral
p499
aVinhibits
p500
aVNF
p501
aVanother
p502
aVspecificity
p503
aVimplicated
p504
aVB-alpha
p505
aVIkappaB
p506
aVNF-kappaB-dependent
p507
aVSTAT6
p508
aVlittle
p509
aVlong
p510
aVIncreased
p511
aVmutated
p512
aVleading
p513
aVionomycin
p514
aVengagement
p515
aVsystem
p516
aVleast
p517
aVstimulation
p518
aVtheir
p519
aVregulation
p520
aV2
aVobservations
p521
aVglucocorticoid
p522
aVantigen
p523
aV13-acetate
p524
aVmolecular
p525
aVlow
p526
aVcell-specific
p527
aVEKLF
p528
aVB
aVgrowth
p529
aVHS-40
p530
aVapoptotic
p531
aVthat
p532
aVMAPk
p533
aVcostimulation
p534
aVlower
p535
aVD
aVdirect
p536
aVbasal
p537
aVpart
p538
aVbecause
p539
aVsignaling
p540
aVcultures
p541
aVheterologous
p542
aVsynergistic
p543
aVIRF-1
p544
aVreactivation
p545
aVp50
p546
aVthan
p547
aVpositively
p548
aVIRF-4
p549
aValternative
p550
aVrelative
p551
aVcritically
p552
aVtarget
p553
aVshowed
p554
aVcyclic
p555
aVlikely
p556
aVregulator
p557
aVbinds
p558
aV/p50
p559
aVdetermined
p560
aVplasmid
p561
aVassays
p562
aVwere
p563
aVnegatively
p564
aVtyrosine
p565
aVT-cell-specific
p566
aVanti-CD28
p567
aVconfirming
p568
aVmodulating
p569
aVvector
p570
aVenhanced
p571
aVremained
p572
aVcultured
p573
aVlines
p574
aVmediators
p575
aVTPA
p576
aVdefect
p577
aVTh1
p578
aVIt
p579
aVmedium
p580
aVmanner
p581
aVhave
p582
aVhost
p583
aVinhibiting
p584
aV-mediated
p585
aVelement
p586
aVclearly
p587
aVPDTC
p588
aVlatency
p589
aVenhancing
p590
aVmin
p591
aVIFNgamma
p592
aVtranscription
p593
aVligation
p594
aVable
p595
aVisolated
p596
aVmechanism
p597
aVKit
p598
aVEomes
p599
aValso
p600
aVMEK1
p601
aVcausing
p602
aVThey
p603
aVepsilon
p604
aVessential
p605
aVmutants
p606
aVantigens
p607
aVLPS
p608
aVplay
p609
aVN-acetylcysteine
p610
aValtered
p611
aVcomponents
p612
aVc-Rel
p613
aVnormal
p614
aVany
p615
aVoverexpression
p616
aVmolecule
p617
aVsystems
p618
aVregulate
p619
aVmolecule-1
p620
aVmost
p621
aVvirus
p622
aVinvolving
p623
aVcycloheximide
p624
aVphase
p625
aVassessed
p626
aVcis-acting
p627
aVsegment
p628
aVclass
p629
aV4
aVremoval
p630
aVERK1
p631
aVERK2
p632
aVOct
p633
aVmutagenesis
p634
aVcompounds
p635
aVdisease
p636
aVwild-type
p637
aVmediate
p638
aVantibodies
p639
aVwhich
p640
aVc-Myb
p641
aVphytohemagglutinin
p642
aVhematopoietic
p643
aVpattern
p644
aVbcl-2
p645
aV-responsive
p646
aVD3
p647
aVNF-kappaB
p648
aVIL-12
p649
aVselection
p650
aVphenomenon
p651
aVregulated
p652
aVshow
p653
aVCD30
p654
aVthymocytes
p655
aVdetection
p656
aVprobe
p657
aVCD36
p658
aVpotently
p659
aVpathogens
p660
aVdetermine
p661
aVWT
p662
aVPAF
p663
aVparticipate
p664
aVhigh-level
p665
aVline
p666
aVheterodimer
p667
aVhomology
p668
aVIgG
p669
aVWe
p670
aVbind
p671
aVRT-PCR
p672
aVHIV-2
p673
aVmRNAs
p674
aVproportion
p675
aVkinase
p676
aVreceptors
p677
aVmaturation
p678
aVfailed
p679
aVonly
p680
aVSCL
p681
aVmolecules
p682
aVfactor
p683
aVinterleukin-2
p684
aVpopulation
p685
aVphosphatase
p686
aVdo
p687
aVantisense
p688
aVdominant
p689
aVFasL
p690
aV3-kinase
p691
aVdependent
p692
aVHIV-1
p693
aVexpress
p694
aVdesignated
p695
aVdegradation
p696
aVT-lymphocytes
p697
aVWhile
p698
aVstate
p699
aVnegative
p700
aVlymphoid-specific
p701
aVMoreover
p702
aVreport
p703
aVLMP1
p704
aVIL-3
p705
aVSimilar
p706
aVHTLV-I
p707
aVinducible
p708
aVposttranscriptional
p709
aVstability
p710
aVprocesses
p711
aVBecause
p712
aVphorbol
p713
aVh
aVtransgenic
p714
aVdifferential
p715
aVlymphokine
p716
aVinvestigate
p717
aVinactive
p718
aVElf-1
p719
aVcommon
p720
aVcontain
p721
aVrelease
p722
aVProtein
p723
aVwhere
p724
aVrespond
p725
aVenhances
p726
aVrequirement
p727
aVset
p728
aVproximal
p729
aVFos
p730
aVsensitivity
p731
aVT-cells
p732
aValterations
p733
aVpotent
p734
aVoligonucleotides
p735
aVobserved
p736
aVculture
p737
aVp27
p738
aVcytoplasmic
p739
aVlack
p740
aVmigration
p741
aVdomain
p742
aVCRE
p743
aVStat3
p744
aVprotein-DNA
p745
aVinstead
p746
aVCIITA
p747
aVGM-CSF
p748
aVCD3
p749
aVoncogene
p750
aVpotential
p751
aVinteracting
p752
aVPU
p753
aVCD14
p754
aVnuclear
p755
aVEGR1
p756
aVTCR
p757
aVsites
p758
aVB7
p759
aVCa2
p760
aVDeltaFKH
p761
aV3
aVvarious
p762
aVfinger
p763
aVLPS-stimulated
p764
aVmembrane
p765
aVaffecting
p766
aVinterferon-gamma
p767
aVblocked
p768
aVconditions
p769
aVc-jun
p770
aVP2
p771
aVbasis
p772
aVwe
p773
aV/MAD
p774
aVrecently
p775
aVresponses
p776
aVregulates
p777
aVtargeted
p778
aVIL-2R
p779
aVlymphocyte
p780
aVweak
p781
aVvitamin
p782
aVhowever
p783
aVdeath
p784
aVselectively
p785
aVTcells
p786
aVextent
p787
aVsynthase
p788
aVanalyzed
p789
aVROI
p790
aVnucleotide
p791
aVsuppressed
p792
aVTGF-beta
p793
aVC/EBP
p794
aVCR3
p795
aVresponsive
p796
aVC
aVmany
p797
aVextracts
p798
aVkappaB
p799
aVdrug
p800
aVputative
p801
aVsensitive
p802
aVs
aVselective
p803
aVpresent
p804
aVcontext
p805
aVIkappaBbeta
p806
aVsubsequent
p807
aVexpression
p808
aVbeta
p809
aVcapable
p810
aVinflammatory
p811
aVPGE2
p812
aVappeared
p813
aVhelix-loop-helix
p814
aVmutations
p815
aVCD4
p816
aVactive
p817
aVFinally
p818
aVfashion
p819
aVagents
p820
aVMutation
p821
aVCD2
p822
aVsequences
p823
aVbeta-catenin
p824
aVHIV
p825
aVsuppressing
p826
aVT-cell
p827
aVnM
p828
aVminutes
p829
aVlate
p830
aVSTAT5
p831
aVSTAT4
p832
aVdescribed
p833
aVacetate
p834
aVmobilization
p835
aVaddition
p836
aVcapacity
p837
aVcross-linking
p838
aVintracellular
p839
aVinduces
p840
aVmarkedly
p841
aVbeen
p842
aVdetected
p843
aVgenetic
p844
aVTransient
p845
aVinitiation
p846
aVcombined
p847
aVmaintenance
p848
aVcytoplasm
p849
aVexpected
p850
aVRA
p851
aVhomodimer
p852
aVbox
p853
aVtissues
p854
aVfamilies
p855
aVCN
p856
aVSRE
p857
aVdrugs
p858
aVsuppress
p859
aVsufficient
p860
aVNFATc
p861
aVresistance
p862
aVAP-1-binding
p863
aVTogether
p864
aVTh2
p865
aVsilencer
p866
aVdecline
p867
aVup-regulation
p868
aVp21ras
p869
aVviruses
p870
aVPMA
p871
aVevidence
p872
aVimportance
p873
aVligands
p874
aVthose
p875
aVinhibitory
p876
aVinhibit
p877
aVB-binding
p878
aVkappa
p879
aVsubsets
p880
aVthese
p881
aVmight
p882
aVCa
p883
aVappearance
p884
aVconserved
p885
aVpromoter
p886
aVcalcium
p887
aVIL4
p888
aVsynergistically
p889
aVrapamycin
p890
aVmutation
p891
aVlocated
p892
aVCp
p893
aVregion
p894
aVloop
p895
aVidentical
p896
aVendothelial
p897
aVmutant
p898
aVp65
p899
aVlinked
p900
aVFurthermore
p901
aVproteasome
p902
aVbinding
p903
aVsite
p904
aVsurface
p905
aVMutations
p906
aVtissue
p907
aVproteolytic
p908
aVdual
p909
aVseen
p910
aVRBP-Jkappa
p911
aVaspects
p912
aVprotein
p913
aVclone
p914
aVmouse
p915
aVconcentration
p916
aVc-Jun
p917
aVupregulation
p918
aVresult
p919
aVmediating
p920
aVdifferent
p921
aVunaffected
p922
aVthereby
p923
aVmember
p924
aVsuggest
p925
aVGAS
p926
aVpreferentially
p927
aVelevated
p928
aVtrans-activation
p929
aVStat6
p930
aVfragment
p931
aVstimulated
p932
aVcomplex
p933
aVpotentially
p934
aVphenotype
p935
aVdeletion
p936
aVmodification
p937
aVproducts
p938
aVsubunit
p939
aVMBP
p940
aVCells
p941
aVdexamethasone
p942
aVNF-AT
p943
aVdevelopment
p944
aVindependent
p945
aVused
p946
aVphosphatases
p947
aVI
aVhypersensitive
p948
aVeffect
p949
aVII
p950
aVaction
p951
aVlevels
p952
aVtwo
p953
aVenhancers
p954
aVfactor-alpha
p955
aVon
p956
aVsingle
p957
aVcycle
p958
aVpolymorphism
p959
aVEBF
p960
aVisotype
p961
aVrestricted
p962
aVstimuli
p963
aVno
p964
aVwell
p965
aVfusion
p966
aVanalysis
p967
aVwithout
p968
aVthought
p969
aVpatterns
p970
aVEBV
p971
aVIL-1beta
p972
aVregulating
p973
aVrepressor
p974
aVIL-13
p975
aVIn
p976
aVposition
p977
aVthe
p978
aVIg
p979
aVNAC
p980
aVresponsible
p981
aVc-fos
p982
aVless
p983
aVbeing
p984
aVGATA-binding
p985
aVanergy
p986
aVdose
p987
aVeffector
p988
aVunderlying
p989
aVhuman
p990
aVdifferentiation
p991
aVGSH
p992
aVpurified
p993
aVpredominantly
p994
aVfunctionally
p995
aVprevious
p996
aVsequence-specific
p997
aVglobin
p998
aVlymphoma
p999
aVNFATp
p1000
aVvivo
p1001
aVmacrophage
p1002
aVFas
p1003
aVcostimulatory
p1004
aVhad
p1005
aVexclusively
p1006
aVsignals
p1007
aVarrest
p1008
aVInhibition
p1009
aVaffinity
p1010
aVtreatment
p1011
aVAlthough
p1012
aV-induced
p1013
aVlymphocytes
p1014
aVML-9
p1015
aVhas
p1016
aVtransformation
p1017
aVhybridization
p1018
aVsteady-state
p1019
aVBoth
p1020
aVTNF-alpha
p1021
aVCD28
p1022
aVelevation
p1023
aVincreased
p1024
aVlacking
p1025
aVCD23
p1026
aVsurvival
p1027
aVdoses
p1028
aVpossible
p1029
aVearly
p1030
aVpossibly
p1031
aVincreases
p1032
aVinhibition
p1033
aVfive
p1034
aVT
aVusing
p1035
aVunique
p1036
aVNFAT1
p1037
aVloss
p1038
aVmodifications
p1039
aVnecessary
p1040
aVGATA-1
p1041
aVGATA-2
p1042
aVGATA-3
p1043
aVB.
p1044
aVstatus
p1045
aVactivation-induced
p1046
aVswitching
p1047
aVconsensus
p1048
aVDeletion
p1049
aVindividuals
p1050
aVUsing
p1051
aVB1
p1052
aVcompletely
p1053
aVFurther
p1054
aVneutrophils
p1055
aVdifferentially
p1056
aVsignal
p1057
aVtherapeutic
p1058
aVcopies
p1059
aVVDR
p1060
aVfunctional
p1061
aVPBMC
p1062
aVTaken
p1063
aVtruncated
p1064
aVFli-1
p1065
aVHS
p1066
aVfootprinting
p1067
aVdose-dependent
p1068
aVsome
p1069
aVTRAF2
p1070
aVlineages
p1071
aVidentified
p1072
aVRunx3
p1073
aVrepeat
p1074
aVdifferentiate
p1075
aVTherefore
p1076
aVintact
p1077
aVinterleukin
p1078
aVrecognition
p1079
aVfibroblasts
p1080
aVprimary
p1081
aVtransfected
p1082
aVfor
p1083
aVCD8
p1084
aVability
p1085
aVcytolytic
p1086
aVHowever
p1087
aVpathogenesis
p1088
aVerythroid-specific
p1089
aVrepression
p1090
aVdoes
p1091
aVZEBRA
p1092
aVHUVECs
p1093
aVLPS-induced
p1094
aVfragments
p1095
aVthree
p1096
aVchains
p1097
aVminimal
p1098
aVeither
p1099
aVinhibitors
p1100
aVbe
p1101
aVassembly
p1102
aVmacrophages
p1103
aVsilencing
p1104
aVTRE
p1105
aVNF-E2
p1106
aVexpansion
p1107
aVstep
p1108
aVbp
p1109
aVvariation
p1110
aValthough
p1111
aVsubstitution
p1112
aVPBL
p1113
aVanalyses
p1114
aVis
p1115
aVby
p1116
aVstage
p1117
aVIL-7
p1118
aVcomparison
p1119
aVcentral
p1120
aVSTAT1
p1121
aVcomplexes
p1122
aVT-box
p1123
aVUV
p1124
aVkDa
p1125
aVreduced
p1126
aVtumor
p1127
aVdistinct
p1128
aVrange
p1129
aVTNF
p1130
aVgreatly
p1131
aVcotransfection
p1132
aVact
p1133
aVconcentrations
p1134
aVnucleus
p1135
aVslightly
p1136
aVother
p1137
aVblock
p1138
aVpathways
p1139
aVcomposed
p1140
aVtransactivation
p1141
aVpost-transcriptional
p1142
aVprotease
p1143
aVpresence
p1144
aVpreviously
p1145
aVJun
p1146
aVrather
p1147
aVbound
p1148
aVlocus
p1149
aVStimulation
p1150
aVpair
p1151
aVtranscript
p1152
aVinvolvement
p1153
aVrapid
p1154
aVprimarily
p1155
aValpha
p1156
aVThe
p1157
aVGR
p1158
aVetal.
p1159
aVnovo
p1160
aVNK
p1161
aVi
aVNO
p1162
aV]
aVinitial
p1163
aVincubation
p1164
aVspecifically
p1165
aVRNA
p1166
aVAddition
p1167
aVFc
p1168
aVc-rel
p1169
aVSignaling
p1170
aVfraction
p1171
aVsecretion
p1172
aVresulted
p1173
aV.1
p1174
aVlipopolysaccharide
p1175
aVwas
p1176
aVpatients
p1177
aVkinases
p1178
aVfunction
p1179
aVcAMP
p1180
aVDNA
p1181
aVcomplete
p1182
aVoctamer
p1183
aVsecreted
p1184
aVhr
p1185
aVabundantly
p1186
aVInterestingly
p1187
aVdifferences
p1188
aVdelayed
p1189
aVM-CSF
p1190
aVSince
p1191
aVMZF-1
p1192
aVdelta
p1193
aVclones
p1194
aVencoded
p1195
aVmice
p1196
aVhighest
p1197
aVwith
p1198
aVpartially
p1199
aVdirected
p1200
aVabsent
p1201
aVpromoters
p1202
aVwhether
p1203
aVantioxidants
p1204
aVcells
p1205
aVup
p1206
aVBSAP
p1207
aVlead
p1208
aVcis
p1209
aVc-myc
p1210
aVbeta-globin
p1211
aVmurine
p1212
aVdetectable
p1213
aVstages
p1214
aVsimilar
p1215
aVConsistent
p1216
aVLFA-3
p1217
aVstrongly
p1218
aVmodel
p1219
aVchanges
p1220
aVrequired
p1221
aVtranscriptional
p1222
aVdirectly
p1223
aVIKKbeta
p1224
aVNuclear
p1225
aVcontribute
p1226
aVinfluence
p1227
aVconcentration-dependent
p1228
aVan
p1229
aVTo
p1230
aVas
p1231
aVat
p1232
aVNFAT
p1233
aVour
p1234
aVTAL1
p1235
aVIFN
p1236
aVdithiocarbamate
p1237
aVphysical
p1238
aVTCF-1
p1239
aVfunctions
p1240
aVcompared
p1241
aV%
aVIKKalpha
p1242
aVvariety
p1243
aVamounts
p1244
aVinactivation
p1245
aVwhereas
p1246
aVpopulations
p1247
aVwhen
p1248
aVEgr-1
p1249
aVpreventing
p1250
aVaspirin
p1251
aVinhibited
p1252
aVrole
p1253
aVDNA-protein
p1254
aVTF
p1255
aVgermline
p1256
aVtransfection
p1257
aVelements
p1258
aVmay
p1259
aVviral
p1260
aVmonocyte
p1261
aVPMA-induced
p1262
aVactivators
p1263
aVconstitutively
p1264
aVimportant
p1265
aVglucocorticoids
p1266
aVpeak
p1267
aVsuppression
p1268
aVnuclei
p1269
aVstructure
p1270
aVexposure
p1271
aVcytotoxicity
p1272
aVindependently
p1273
aVcorrelated
p1274
aVindividual
p1275
aVc-Fos
p1276
aVmitogen-activated
p1277
aVdisruption
p1278
aVcontrolled
p1279
aVnecrosis
p1280
aVacids
p1281
aVkinetics
p1282
aVAn
p1283
aVAs
p1284
aVimmunoglobulin
p1285
aVcorrelates
p1286
aVkD
p1287
aVtime
p1288
aVcontrolling
p1289
aVsignalling
p1290
aVaugmented
p1291
aVrequires
p1292
aVindirectly
p1293
aVSLP-76
p1294
a.