(lp1
Vlimited
p2
aVIkappaB-alpha
p3
aV5
aVB-cell
p4
aVchain
p5
aVcytosol
p6
aVcaused
p7
aVboth
p8
aVactivated
p9
aVresults
p10
aV-binding
p11
aVuse
p12
aVfour
p13
aVknown
p14
aVefficient
p15
aVFig
p16
aVcooperative
p17
aVcoactivator
p18
aVactivates
p19
aVVav
p20
aVcytokines
p21
aVpoorly
p22
aVcontent
p23
aVamplification
p24
aVadhesion
p25
aVpretreatment
p26
aVpromote
p27
aVstably
p28
aVinteract
p29
aVcontaining
p30
aVto
p31
aVcritical
p32
aVtissue-specific
p33
aVmonocytes
p34
aVDNA-binding
p35
aVendogenous
p36
aVindicating
p37
aVinflammation
p38
aVPRE-I
p39
aVactivities
p40
aVhormone
p41
aVassay
p42
aVexpressing
p43
aVdownstream
p44
aVvery
p45
aVapoptosis
p46
aVactivation
p47
aVNF-kB
p48
aVinterleukin-1beta
p49
aVinduce
p50
aVsubunits
p51
aVIL
p52
aVreplication
p53
aVnovel
p54
aVGC
p55
aVcellular
p56
aVupstream
p57
aVaffect
p58
aVh.
p59
aVmarkers
p60
aVTat
p61
aVleads
p62
aVand
p63
aVTranscriptional
p64
aVprogression
p65
aVlevel
p66
aVdid
p67
aVpositions
p68
aVCLE0
p69
aVshock
p70
aVTax
p71
aVprolonged
p72
aVphosphorylation
p73
aVGATA
p74
aVlarge
p75
aVIL10
p76
aVOVA
p77
aVform
p78
aV-3
p79
aVJNK
p80
aVenhance
p81
aVresponsiveness
p82
aVIFNs
p83
aVaccumulation
p84
aVprevent
p85
aVzinc
p86
aVfindings
p87
aVcore
p88
aVplatelet-activating
p89
aVTCR-mediated
p90
aVubiquitous
p91
aVdirect
p92
aVprogenitors
p93
aVrecruitment
p94
aVsecond
p95
aVactivity
p96
aVenhancement
p97
aVfurther
p98
aVacid
p99
aVtargets
p100
aVeven
p101
aVsynthesis
p102
aVplays
p103
aVH2O2
p104
aVrate
p105
aVinteractions
p106
aVwhile
p107
aVexpressed
p108
aVp95vav
p109
aVcell
p110
aVIgE
p111
aVB/Rel
p112
aVtransactivator
p113
aVremain
p114
aVnew
p115
aVRelA
p116
aVincreasing
p117
aVisoforms
p118
aVconsisting
p119
aVcontrast
p120
aVIgH
p121
aVdimerization
p122
aVOct-2A
p123
aVproliferation
p124
aVconstruct
p125
aVdegree
p126
aVreporter
p127
aVrespectively
p128
aVgenes
p129
aVcomponent
p130
aVhere
p131
aVhours
p132
aVreported
p133
aVVCAM-1
p134
aVsustained
p135
aVmRNA
p136
aValone
p137
aVlatent
p138
aV[
aVstrong
p139
aVappears
p140
aVchange
p141
aVobtained
p142
aVCBF
p143
aVprecursor
p144
aVinvolved
p145
aVstudy
p146
aVvectors
p147
aVEGR-1
p148
aVCpG
p149
aVamount
p150
aVresulting
p151
aVconstitutive
p152
aVSp1
p153
aVdomains
p154
aVgene
p155
aVstudies
p156
aVratio
p157
aVinvolves
p158
aVCD19
p159
aVinterferon
p160
aVglutathione
p161
aVstabilization
p162
aVThus
p163
aVfamily
p164
aVmobility
p165
aVinducing
p166
aVWhen
p167
aVmarked
p168
aVhighly
p169
aVmodulated
p170
aVdecrease
p171
aVTreatment
p172
aVprotein-1
p173
aVMAPK
p174
aVconcomitant
p175
aVtotal
p176
aVaberrant
p177
aVreceptor
p178
aVp40
p179
aVare
p180
aVStat
p181
aVe.g.
p182
aVremains
p183
aVpositive
p184
aVcontains
p185
aVenzyme
p186
aVproperties
p187
aVp105
p188
aVmonocytic
p189
aVmAb
p190
aVsequence
p191
aVtherefore
p192
aV6
aVassociated
p193
aVER
p194
aVtype
p195
aVstart
p196
aVmore
p197
aVLTR
p198
aVheterodimers
p199
aVinitiated
p200
aVAML1
p201
aVThese
p202
aVthus
p203
aVconstructs
p204
aVinfection
p205
aVit
p206
aVtested
p207
aVE2A
p208
aVtandem
p209
aVtransiently
p210
aVConstitutive
p211
aVparticular
p212
aVerythropoietin
p213
aVcases
p214
aVBcl-2
p215
aVExpression
p216
aVblocking
p217
aVhigh
p218
aVcalcineurin
p219
aVOct-1
p220
aVthis
p221
aVmotif
p222
aVphosphorylated
p223
aVerythroid
p224
aVdramatically
p225
aVprotein-protein
p226
aVreduction
p227
aVoxide
p228
aVT-bet
p229
aVcan
p230
aVLMO
p231
aVfollowing
p232
aVOur
p233
aVICAM-1
p234
aVinhibitor
p235
aVcontrol
p236
aVNF-kappa
p237
aVhomodimers
p238
aVindicated
p239
aVprocess
p240
aVof
p241
aVinhibitory
p242
aVin
p243
aVlysates
p244
aVCAT
p245
aVinvolve
p246
aVeffectively
p247
aVOct-2
p248
aVAbs
p249
aV-dependent
p250
aVpeptide
p251
aVInduction
p252
aVserum
p253
aVcDNA
p254
aV/
aVcrucial
p255
aVaging
p256
aVrespective
p257
aVrequirements
p258
aVdefective
p259
aVperforin
p260
aVprovide
p261
aVtype-specific
p262
aVActivation
p263
aVacts
p264
aVanti-CD3
p265
aVdamage
p266
aVspecies
p267
aVregions
p268
aVimmune
p269
aVall
p270
aVadjacent
p271
aVactivator
p272
aVoptimal
p273
aVif
p274
aVpathway
p275
aVtranslocation
p276
aVTFIID
p277
aVA
aVE-selectin
p278
aVproduct
p279
aVblocks
p280
aVmodulation
p281
aVOTF-2
p282
aVOTF-1
p283
aVreaction
p284
aVderived
p285
aVCD40
p286
aVresidues
p287
aVAkt
p288
aVSpecific
p289
aVCD40L
p290
aVproduce
p291
aVdemonstrating
p292
aVsuch
p293
aVdata
p294
aVresponse
p295
aVtypes
p296
aVefficiently
p297
aVa
aVtranscripts
p298
aVstress
p299
aVinduction
p300
aVTNFalpha
p301
aVNFkappaB
p302
aVeffective
p303
aVP
aVenzymes
p304
aVrecombination
p305
aVelongation
p306
aVHIV-1
p307
aVOne
p308
aVsuppressive
p309
aVcascade
p310
aVswitch
p311
aVgamma
p312
aVinteracts
p313
aVcytometry
p314
aVorder
p315
aVtriggering
p316
aVturnover
p317
aVesters
p318
aVIL-8
p319
aVtuberculosis
p320
aVB-dependent
p321
aVIL-4
p322
aVIL-5
p323
aVIL-6
p324
aVAP1
p325
aVmainly
p326
aVIL-1
p327
aVIL-2
p328
aVtranscriptionally
p329
aVproduced
p330
aVcourse
p331
aVtermed
p332
aVexperiments
p333
aVsame
p334
aVRb
p335
aVmodified
p336
aV2D3
p337
aVstaining
p338
aVstill
p339
aVactivating
p340
aVits
p341
aVpriming
p342
aV1
aVrapidly
p343
aVligand
p344
aVhow
p345
aVPRL
p346
aVtranslation
p347
aVFK506
p348
aVdecreases
p349
aVforms
p350
aVinterleukin-1
p351
aVabsence
p352
aVproduction
p353
aVtriggered
p354
aVinducible
p355
aVdistal
p356
aVBinding
p357
aVdecreased
p358
aVuptake
p359
aVantigens
p360
aVmaximal
p361
aVthen
p362
aVNFAT-1
p363
aVaffected
p364
aVdiseases
p365
aVOverexpression
p366
aV-specific
p367
aVIFN-beta
p368
aVC3a
p369
aVsignificant
p370
aVAnalysis
p371
aVnumber
p372
aVStat6
p373
aVester
p374
aVhypoxia
p375
aVtherapy
p376
aVeffects
p377
aVthey
p378
aVJurkat
p379
aVnot
p380
aVimpaired
p381
aVnow
p382
aVday
p383
aVassociation
p384
aVlineage
p385
aVionophore
p386
aVmutation
p387
aVitself
p388
aVNef
p389
aVinducibility
p390
aVproteins
p391
aVFunctional
p392
aVIL-10
p393
aVevents
p394
aVstimulus
p395
aVRas
p396
aVeach
p397
aVRaf-1
p398
aVfound
p399
aVhigher
p400
aVPHA
p401
aVcharacterized
p402
aVsubset
p403
aVcytokine-induced
p404
aVSTAT
p405
aVactivate
p406
aVsignificantly
p407
aVEts
p408
aVgeneration
p409
aVTranscription
p410
aVtransient
p411
aVplatelets
p412
aVabnormal
p413
aVrelated
p414
aVdeficiency
p415
aVlymphomas
p416
aVhypothesis
p417
aV/p65
p418
aVhistocompatibility
p419
aVp38
p420
aVcytokine
p421
aVfactor-kappaB
p422
aVTaken
p423
aVevent
p424
aVtransduction
p425
aVBCL-6
p426
aVIFN-gamma
p427
aVshown
p428
aVmediates
p429
aVfactors
p430
aVthrombin
p431
aVsince
p432
aVCsA
p433
aVplasmids
p434
aVviability
p435
aVincrease
p436
aVPKC
p437
aVmediated
p438
aVmessenger
p439
aVmotifs
p440
aVCD44
p441
aVsuggesting
p442
aVTwo
p443
aVinduced
p444
aVcause
p445
aVoccurs
p446
aVE3
p447
aVB-like
p448
aVU0126
p449
aVdown-regulation
p450
aVlocalization
p451
aVThis
p452
aVseveral
p453
aVmechanisms
p454
aVEC
p455
aVleukemia
p456
aVadherence
p457
aVregulators
p458
aVbase
p459
aVformation
p460
aVoligonucleotide
p461
aVmembers
p462
aVbiological
p463
aVregulatory
p464
aVapproach
p465
aVmitogenic
p466
aVFoxp3
p467
aVadditional
p468
aV-deficient
p469
aVpairs
p470
aVinteraction
p471
aVmethylation
p472
aVTBP
p473
aVcould
p474
aVE2F
p475
aVFoxO1
p476
aVturn
p477
aVB-cell-specific
p478
aVIkappaBalpha
p479
aVdue
p480
aVtransfer
p481
aVCREB
p482
aVrepeats
p483
aVfacilitate
p484
aVstimulate
p485
aVfirst
p486
aVkey
p487
aVenhancer
p488
aVmajor
p489
aVkb
p490
aVantibody
p491
aVencoding
p492
aVAP-1
p493
aVAP-2
p494
aVvitro
p495
aVone
p496
aVCell
p497
aVoctamer-binding
p498
aVgeneral
p499
aVinhibits
p500
aVNF
p501
aVanother
p502
aVspecificity
p503
aVimplicated
p504
aVB-alpha
p505
aVIkappaB
p506
aVNF-kappaB-dependent
p507
aVlittle
p508
aVlong
p509
aVIncreased
p510
aVmutated
p511
aVleading
p512
aVionomycin
p513
aVengagement
p514
aVsystem
p515
aVleast
p516
aVstimulation
p517
aVtheir
p518
aVregulation
p519
aV2
aVobservations
p520
aVglucocorticoid
p521
aVantigen
p522
aV13-acetate
p523
aVmolecular
p524
aVlow
p525
aVcell-specific
p526
aVEKLF
p527
aVB
aVgrowth
p528
aVHS-40
p529
aVapoptotic
p530
aVthat
p531
aVcostimulation
p532
aVlower
p533
aVD
aVbasal
p534
aVpart
p535
aVbecause
p536
aVsignaling
p537
aVcultures
p538
aVheterologous
p539
aVsynergistic
p540
aVIRF-1
p541
aVreactivation
p542
aVp50
p543
aVthan
p544
aVpositively
p545
aVIRF-4
p546
aValternative
p547
aVrelative
p548
aVcritically
p549
aVtarget
p550
aVshowed
p551
aVcyclic
p552
aVstatus
p553
aVlikely
p554
aVregulator
p555
aVbinds
p556
aV/p50
p557
aVdetermined
p558
aVplasmid
p559
aVassays
p560
aVwere
p561
aVidentical
p562
aVnegatively
p563
aVtyrosine
p564
aVT-cell-specific
p565
aVanti-CD28
p566
aVconfirming
p567
aVmodulating
p568
aVvector
p569
aVenhanced
p570
aVremained
p571
aVcultured
p572
aVlines
p573
aVmediators
p574
aVTPA
p575
aVdefect
p576
aVTh1
p577
aVIt
p578
aVmedium
p579
aVmanner
p580
aVhave
p581
aVhost
p582
aVinhibiting
p583
aV-mediated
p584
aVelement
p585
aVclearly
p586
aVPDTC
p587
aVlatency
p588
aVenhancing
p589
aVmin
p590
aVIFNgamma
p591
aVtranscription
p592
aVligation
p593
aVable
p594
aVisolated
p595
aVmechanism
p596
aVKit
p597
aVEomes
p598
aValso
p599
aVMEK1
p600
aVcausing
p601
aVThey
p602
aVepsilon
p603
aVessential
p604
aVmutants
p605
aVswitching
p606
aVLPS
p607
aVplay
p608
aVN-acetylcysteine
p609
aValtered
p610
aVcomponents
p611
aVc-Rel
p612
aVnormal
p613
aVany
p614
aVoverexpression
p615
aVmolecule
p616
aVsystems
p617
aVregulate
p618
aVmolecule-1
p619
aVmost
p620
aVvirus
p621
aVinvolving
p622
aVcycloheximide
p623
aVphase
p624
aVassessed
p625
aVcis-acting
p626
aVsegment
p627
aVclass
p628
aV4
aVremoval
p629
aVERK1
p630
aVERK2
p631
aVOct
p632
aVmutagenesis
p633
aVcompounds
p634
aVdisease
p635
aVwild-type
p636
aVSTAT6
p637
aVmediate
p638
aVantibodies
p639
aVwhich
p640
aVc-Myb
p641
aVphytohemagglutinin
p642
aVhematopoietic
p643
aVpattern
p644
aVbcl-2
p645
aV-responsive
p646
aVD3
p647
aVNF-kappaB
p648
aVIL-12
p649
aVselection
p650
aVphenomenon
p651
aVregulated
p652
aVshow
p653
aVCD30
p654
aVthymocytes
p655
aVdetection
p656
aVprobe
p657
aVCD36
p658
aVpotently
p659
aVpathogens
p660
aVdetermine
p661
aVWT
p662
aVlack
p663
aVPAF
p664
aVparticipate
p665
aVhigh-level
p666
aVline
p667
aVheterodimer
p668
aVhomology
p669
aVIgG
p670
aVWe
p671
aVbind
p672
aVRT-PCR
p673
aVHIV-2
p674
aVmRNAs
p675
aVproportion
p676
aVkinase
p677
aVreceptors
p678
aVmaturation
p679
aVfailed
p680
aVonly
p681
aVmolecules
p682
aVfactor
p683
aVpopulation
p684
aVphosphatase
p685
aVdo
p686
aVantisense
p687
aVdominant
p688
aVFasL
p689
aV3-kinase
p690
aVdependent
p691
aVexpress
p692
aVtissues
p693
aVdegradation
p694
aVT-lymphocytes
p695
aVWhile
p696
aVstate
p697
aVjunB
p698
aVnegative
p699
aVlymphoid-specific
p700
aVMoreover
p701
aVreport
p702
aVIL-3
p703
aVSimilar
p704
aVHTLV-I
p705
aVantagonist
p706
aVposttranscriptional
p707
aVstability
p708
aVprocesses
p709
aVBecause
p710
aVphorbol
p711
aVh
aVtransgenic
p712
aVdifferential
p713
aVlymphokine
p714
aVinvestigate
p715
aVinactive
p716
aVElf-1
p717
aVcommon
p718
aVcontain
p719
aVrelease
p720
aVProtein
p721
aVwhere
p722
aVrespond
p723
aVenhances
p724
aVrequirement
p725
aVset
p726
aVproximal
p727
aVFos
p728
aVsensitivity
p729
aVT-cells
p730
aValterations
p731
aVpotent
p732
aVoligonucleotides
p733
aVobserved
p734
aVculture
p735
aVp27
p736
aVcytoplasmic
p737
aVmigration
p738
aVdomain
p739
aVCRE
p740
aVStat3
p741
aVprotein-DNA
p742
aVCIITA
p743
aVGM-CSF
p744
aVCD3
p745
aVoncogene
p746
aVpotential
p747
aVinteracting
p748
aVPU
p749
aVCD14
p750
aVnuclear
p751
aVEGR1
p752
aVTCR
p753
aVsites
p754
aVB7
p755
aVDeltaFKH
p756
aV3
aVvarious
p757
aVfinger
p758
aVLPS-stimulated
p759
aVmembrane
p760
aVaffecting
p761
aVinterferon-gamma
p762
aVblocked
p763
aVconditions
p764
aVc-jun
p765
aVP2
p766
aVbasis
p767
aVwe
p768
aV/MAD
p769
aVrecently
p770
aVresponses
p771
aVregulates
p772
aVtargeted
p773
aVIL-2R
p774
aVlymphocyte
p775
aVweak
p776
aVvitamin
p777
aVhowever
p778
aVblot
p779
aVdeath
p780
aVselectively
p781
aVTcells
p782
aVextent
p783
aVsynthase
p784
aVanalyzed
p785
aVROI
p786
aVnucleotide
p787
aVsuppressed
p788
aVTGF-beta
p789
aVC/EBP
p790
aVCR3
p791
aVresponsive
p792
aVC
aVmany
p793
aVextracts
p794
aVkappaB
p795
aVdrug
p796
aVputative
p797
aVcomposed
p798
aVsensitive
p799
aVs
aVselective
p800
aVpresent
p801
aVcontext
p802
aVIkappaBbeta
p803
aVsubsequent
p804
aVexpression
p805
aVbeta
p806
aVcapable
p807
aVinflammatory
p808
aVPGE2
p809
aVappeared
p810
aVhelix-loop-helix
p811
aVrather
p812
aVmutations
p813
aVCD4
p814
aVactive
p815
aVFinally
p816
aVfashion
p817
aVagents
p818
aVMutation
p819
aVCD2
p820
aVsequences
p821
aVbeta-catenin
p822
aVHIV
p823
aVsuppressing
p824
aVT-cell
p825
aVnM
p826
aVHere
p827
aVlate
p828
aVSTAT5
p829
aVSTAT4
p830
aVdescribed
p831
aVacetate
p832
aVmobilization
p833
aVaddition
p834
aVcapacity
p835
aVcross-linking
p836
aVintracellular
p837
aVinduces
p838
aVmarkedly
p839
aVbeen
p840
aVdetected
p841
aVgenetic
p842
aVTransient
p843
aVinitiation
p844
aVcombined
p845
aVmaintenance
p846
aVcytoplasm
p847
aVexpected
p848
aVCa2
p849
aVRA
p850
aVhomodimer
p851
aVbox
p852
aVcontribute
p853
aVfamilies
p854
aVCN
p855
aVSRE
p856
aVdrugs
p857
aVsuppress
p858
aVsufficient
p859
aVNFATc
p860
aVresistance
p861
aVAP-1-binding
p862
aVTogether
p863
aVTh2
p864
aVsilencer
p865
aVdecline
p866
aVup-regulation
p867
aVp21ras
p868
aVviruses
p869
aVPMA
p870
aVevidence
p871
aVimportance
p872
aVligands
p873
aVthose
p874
aVinhibit
p875
aVB-binding
p876
aVkappa
p877
aVsubsets
p878
aVthese
p879
aVmight
p880
aVCa
p881
aVappearance
p882
aVconserved
p883
aVpromoter
p884
aVcalcium
p885
aVIL4
p886
aVsynergistically
p887
aVrapamycin
p888
aVlocated
p889
aVCp
p890
aVregion
p891
aVloop
p892
aVSince
p893
aVendothelial
p894
aVmutant
p895
aVp65
p896
aVlinked
p897
aVFurthermore
p898
aVproteasome
p899
aVbinding
p900
aVsite
p901
aVsurface
p902
aVMutations
p903
aVtissue
p904
aVproteolytic
p905
aVdual
p906
aVseen
p907
aVRBP-Jkappa
p908
aVaspects
p909
aVprotein
p910
aVclone
p911
aVmouse
p912
aVconcentration
p913
aVc-Jun
p914
aVupregulation
p915
aVresult
p916
aVmediating
p917
aVdifferent
p918
aVunaffected
p919
aVthereby
p920
aVfraction
p921
aVsuggest
p922
aVGAS
p923
aVpreferentially
p924
aVelevated
p925
aVtrans-activation
p926
aVmember
p927
aVfragment
p928
aVstimulated
p929
aVcomplex
p930
aVpotentially
p931
aVphenotype
p932
aVdeletion
p933
aVmodification
p934
aVproducts
p935
aVsubunit
p936
aVMBP
p937
aVCells
p938
aVdexamethasone
p939
aVNF-AT
p940
aVdevelopment
p941
aVindependent
p942
aVused
p943
aVphosphatases
p944
aVI
aVMAPk
p945
aVeffect
p946
aVII
p947
aVaction
p948
aVlevels
p949
aVtwo
p950
aVenhancers
p951
aVfactor-alpha
p952
aVon
p953
aVsingle
p954
aVcycle
p955
aVpolymorphism
p956
aVEBF
p957
aVisotype
p958
aVrestricted
p959
aVstimuli
p960
aVno
p961
aVwell
p962
aVfusion
p963
aVanalysis
p964
aVwithout
p965
aVthought
p966
aVpatterns
p967
aVEBV
p968
aVIL-1beta
p969
aVregulating
p970
aVrepressor
p971
aVIL-13
p972
aVIn
p973
aVposition
p974
aVthe
p975
aVIg
p976
aVNAC
p977
aVresponsible
p978
aVc-fos
p979
aVless
p980
aVbeing
p981
aVGATA-binding
p982
aVanergy
p983
aVdose
p984
aVeffector
p985
aVunderlying
p986
aVhuman
p987
aVdifferentiation
p988
aVGSH
p989
aVpurified
p990
aVpredominantly
p991
aVfunctionally
p992
aVprevious
p993
aVsequence-specific
p994
aVglobin
p995
aVlymphoma
p996
aVNFATp
p997
aVvivo
p998
aVmacrophage
p999
aVFas
p1000
aVcostimulatory
p1001
aVhad
p1002
aVexclusively
p1003
aVsignals
p1004
aVarrest
p1005
aVhypersensitive
p1006
aVInhibition
p1007
aVaffinity
p1008
aVtreatment
p1009
aVAlthough
p1010
aV-induced
p1011
aVlymphocytes
p1012
aVML-9
p1013
aVinterleukin-2
p1014
aVhas
p1015
aVtransformation
p1016
aVhybridization
p1017
aVsteady-state
p1018
aVBoth
p1019
aVTNF-alpha
p1020
aVCD28
p1021
aVelevation
p1022
aVincreased
p1023
aVlacking
p1024
aVCD23
p1025
aVsurvival
p1026
aVcombination
p1027
aVpossible
p1028
aVearly
p1029
aVpossibly
p1030
aVincreases
p1031
aVinhibition
p1032
aVfive
p1033
aVT
aVspecific
p1034
aVusing
p1035
aVunique
p1036
aVNFAT1
p1037
aVloss
p1038
aVmodifications
p1039
aVnecessary
p1040
aVGATA-1
p1041
aVGATA-2
p1042
aVGATA-3
p1043
aVB.
p1044
aVactivation-induced
p1045
aVTherefore
p1046
aVfibroblasts
p1047
aVDeletion
p1048
aVindividuals
p1049
aVUsing
p1050
aVB1
p1051
aVcompletely
p1052
aVFurther
p1053
aVneutrophils
p1054
aVdifferentially
p1055
aVsignal
p1056
aVetal.
p1057
aVtherapeutic
p1058
aVcopies
p1059
aVVDR
p1060
aVfunctional
p1061
aVPBMC
p1062
aVminutes
p1063
aVtruncated
p1064
aVFli-1
p1065
aVHS
p1066
aVfootprinting
p1067
aVdose-dependent
p1068
aVsome
p1069
aVTRAF2
p1070
aVlineages
p1071
aVidentified
p1072
aVRunx3
p1073
aVelements
p1074
aVdifferentiate
p1075
aVmultiple
p1076
aVintact
p1077
aVinterleukin
p1078
aVrecognition
p1079
aVconsensus
p1080
aVprimary
p1081
aVtransfected
p1082
aVfor
p1083
aVCD8
p1084
aVability
p1085
aVcytolytic
p1086
aVHowever
p1087
aVpathogenesis
p1088
aVerythroid-specific
p1089
aVrepression
p1090
aVdoes
p1091
aVZEBRA
p1092
aVHUVECs
p1093
aVLPS-induced
p1094
aVfragments
p1095
aVthree
p1096
aVchains
p1097
aVminimal
p1098
aVeither
p1099
aVinhibitors
p1100
aVbe
p1101
aVassembly
p1102
aVmacrophages
p1103
aVsilencing
p1104
aVTRE
p1105
aVNF-E2
p1106
aVexpansion
p1107
aVstep
p1108
aVbp
p1109
aVvariation
p1110
aValthough
p1111
aVsubstitution
p1112
aVPBL
p1113
aVanalyses
p1114
aVis
p1115
aVby
p1116
aVstage
p1117
aVIL-7
p1118
aVcomparison
p1119
aVcentral
p1120
aVSTAT1
p1121
aVcomplexes
p1122
aVT-box
p1123
aVinstead
p1124
aVUV
p1125
aVkDa
p1126
aVreduced
p1127
aVtumor
p1128
aVdistinct
p1129
aVrange
p1130
aVTNF
p1131
aVgreatly
p1132
aVcotransfection
p1133
aVact
p1134
aVconcentrations
p1135
aVnucleus
p1136
aVslightly
p1137
aVother
p1138
aVblock
p1139
aVpathways
p1140
aVtransactivation
p1141
aVpost-transcriptional
p1142
aVprotease
p1143
aVpresence
p1144
aVpreviously
p1145
aVJun
p1146
aVbound
p1147
aVlocus
p1148
aVStimulation
p1149
aVpair
p1150
aVtranscript
p1151
aVinvolvement
p1152
aVrapid
p1153
aVprimarily
p1154
aValpha
p1155
aVThe
p1156
aVGR
p1157
aVSCL
p1158
aVnovo
p1159
aVNK
p1160
aVi
aVNO
p1161
aV]
aVinitial
p1162
aVincubation
p1163
aVspecifically
p1164
aVRNA
p1165
aVAddition
p1166
aVFc
p1167
aVc-rel
p1168
aVSignaling
p1169
aV-stimulated
p1170
aVsecretion
p1171
aVresulted
p1172
aV.1
p1173
aVlipopolysaccharide
p1174
aVwas
p1175
aVpatients
p1176
aVkinases
p1177
aVfunction
p1178
aVcAMP
p1179
aVDNA
p1180
aVcomplete
p1181
aVoctamer
p1182
aVsecreted
p1183
aVhr
p1184
aVabundantly
p1185
aVInterestingly
p1186
aVdifferences
p1187
aVdelayed
p1188
aVM-CSF
p1189
aVdesignated
p1190
aVLMP1
p1191
aVMZF-1
p1192
aVdelta
p1193
aVclones
p1194
aVencoded
p1195
aVmice
p1196
aVhighest
p1197
aVwith
p1198
aVpartially
p1199
aVdirected
p1200
aVabsent
p1201
aVpromoters
p1202
aVwhether
p1203
aVantioxidants
p1204
aVcells
p1205
aVup
p1206
aVBSAP
p1207
aVlead
p1208
aVcis
p1209
aVc-myc
p1210
aVbeta-globin
p1211
aVmurine
p1212
aVdetectable
p1213
aVstages
p1214
aVsimilar
p1215
aVConsistent
p1216
aVLFA-3
p1217
aVstrongly
p1218
aVmodel
p1219
aVchanges
p1220
aVrequired
p1221
aVtranscriptional
p1222
aVdirectly
p1223
aVIKKbeta
p1224
aVNuclear
p1225
aVdoses
p1226
aVinfluence
p1227
aVconcentration-dependent
p1228
aVan
p1229
aVTo
p1230
aVas
p1231
aVat
p1232
aVNFAT
p1233
aVour
p1234
aVTAL1
p1235
aVIFN
p1236
aVdithiocarbamate
p1237
aVphysical
p1238
aVTCF-1
p1239
aVfunctions
p1240
aVcompared
p1241
aV%
aVIKKalpha
p1242
aVvariety
p1243
aVamounts
p1244
aVinactivation
p1245
aVwhereas
p1246
aVpopulations
p1247
aVwhen
p1248
aVEgr-1
p1249
aVpreventing
p1250
aVaspirin
p1251
aVinhibited
p1252
aVrole
p1253
aVDNA-protein
p1254
aVTF
p1255
aVgermline
p1256
aVtransfection
p1257
aVrepeat
p1258
aVmay
p1259
aVviral
p1260
aVmonocyte
p1261
aVPMA-induced
p1262
aVactivators
p1263
aVconstitutively
p1264
aVimportant
p1265
aVglucocorticoids
p1266
aVpeak
p1267
aVsuppression
p1268
aVnuclei
p1269
aVstructure
p1270
aVexposure
p1271
aVcytotoxicity
p1272
aVindependently
p1273
aVcorrelated
p1274
aVindividual
p1275
aVc-Fos
p1276
aVmitogen-activated
p1277
aVdisruption
p1278
aVcontrolled
p1279
aVnecrosis
p1280
aVacids
p1281
aVkinetics
p1282
aVAn
p1283
aVAs
p1284
aVimmunoglobulin
p1285
aVcorrelates
p1286
aVkD
p1287
aVtime
p1288
aVcontrolling
p1289
aVsignalling
p1290
aVaugmented
p1291
aVrequires
p1292
aVindirectly
p1293
aVSLP-76
p1294
a.