(lp1
Vxsubj
p2
aVprep_despite
p3
aVprepc_in
p4
aVprepc_compared_to
p5
aVprep_during
p6
aVconj_nor
p7
aVprepc_with
p8
aVadvcl
p9
aVaux
p10
aVprep_unlike
p11
aVparataxis
p12
aVnsubj
p13
aVprep_with_respect_to
p14
aVcomplm
p15
aVprep_upon
p16
aVnpadvmod
p17
aVpurpcl
p18
aVamod
p19
aVprep_on
p20
aVprep_of
p21
aVprep_by
p22
aVprep_with
p23
aVprepc_according_to
p24
aVccomp
p25
aVprep_as
p26
aVprep_than
p27
aVprepc_for
p28
aVprepc_along_with
p29
aVneg
p30
aVauxpass
p31
aVpobj
p32
aVinfmod
p33
aVrel
p34
aVprep_for
p35
aVprep_through
p36
aVprep_at
p37
aVadvmod
p38
aVprep_involving
p39
aVacomp
p40
aVpcomp
p41
aVposs
p42
aVxcomp
p43
aVcop
p44
aVconj_but
p45
aVprep_like
p46
aVdobj
p47
aVprep_following
p48
aVprep_in
p49
aVprepc_that
p50
aVprep_against
p51
aVprepc_to
p52
aVprep_among
p53
aVnsubjpass
p54
aVconj_or
p55
aVcsubj
p56
aVprepc_compared_with
p57
aVprep_without
p58
aVmark
p59
aVprep_under
p60
aVprep_after
p61
aVprep_due_to
p62
aVprep_via
p63
aVconj_negcc
p64
aVprep
p65
aVconj_and
p66
aVprep_including
p67
aVprep_because_of
p68
aVprepc_without
p69
aVprep_to
p70
aVprepc_by
p71
aVprep_before
p72
aVprepc_through
p73
aVdep
p74
aVprep_in_addition_to
p75
aVdet
p76
aVnum
p77
aViobj
p78
aVprep_such_as
p79
aVappos
p80
aVprepc_of
p81
aVagent
p82
aVprt
p83
aVprep_into
p84
aVprep_from
p85
aVconj
p86
aVnn
p87
aVconj_and/or
p88
aVprep_within
p89
aVrcmod
p90
aVprep_between
p91
aVpartmod
p92
aVabbrev
p93
a.