(lp1
VNone
p2
aVGene_expression
p3
aVLocalization
p4
aVTranscription
p5
aVBinding
p6
aVPhosphorylation
p7
aVPositive_regulation
p8
aVRegulation
p9
aVProtein_catabolism
p10
aVNegative_regulation
p11
a.